ARM GAS  C:\Users\Nick\AppData\Local\Temp\ccT8jaHa.s 			page 1


   1              		.syntax unified
   2              		.cpu cortex-m3
   3              		.fpu softvfp
   4              		.eabi_attribute 20, 1
   5              		.eabi_attribute 21, 1
   6              		.eabi_attribute 23, 3
   7              		.eabi_attribute 24, 1
   8              		.eabi_attribute 25, 1
   9              		.eabi_attribute 26, 1
  10              		.eabi_attribute 30, 1
  11              		.eabi_attribute 34, 1
  12              		.eabi_attribute 18, 4
  13              		.thumb
  14              		.file	"Camera.c"
  15              		.text
  16              	.Ltext0:
  17              		.cfi_sections	.debug_frame
  18              		.section	.text.DMA_Start,"ax",%progbits
  19              		.align	2
  20              		.thumb
  21              		.thumb_func
  22              		.type	DMA_Start, %function
  23              	DMA_Start:
  24              	.LFB67:
  25              		.file 1 ".\\Generated_Source\\PSoC5\\Camera.c"
   1:.\Generated_Source\PSoC5/Camera.c **** #include "Camera.h"
   2:.\Generated_Source\PSoC5/Camera.c **** 
   3:.\Generated_Source\PSoC5/Camera.c **** extern const uint8 Camera_settings[][2];
   4:.\Generated_Source\PSoC5/Camera.c **** extern const uint8 Camera_format[];
   5:.\Generated_Source\PSoC5/Camera.c **** extern const uint8 Camera_sxga[];
   6:.\Generated_Source\PSoC5/Camera.c **** extern const uint8 Camera_vga[];
   7:.\Generated_Source\PSoC5/Camera.c **** extern const uint8 Camera_qvga[];
   8:.\Generated_Source\PSoC5/Camera.c **** extern const uint8 Camera_cif[];
   9:.\Generated_Source\PSoC5/Camera.c **** extern const uint8 Camera_qcif[];
  10:.\Generated_Source\PSoC5/Camera.c **** 
  11:.\Generated_Source\PSoC5/Camera.c **** #define N_BUFFERS 16
  12:.\Generated_Source\PSoC5/Camera.c **** #define BUFFER_SIZE 3168
  13:.\Generated_Source\PSoC5/Camera.c **** static uint8 DMA_channel;
  14:.\Generated_Source\PSoC5/Camera.c **** static uint8 DMA_TD[N_BUFFERS];
  15:.\Generated_Source\PSoC5/Camera.c **** 
  16:.\Generated_Source\PSoC5/Camera.c **** void Camera_WriteReg(const uint8 reg,const uint8 value)
  17:.\Generated_Source\PSoC5/Camera.c **** {
  18:.\Generated_Source\PSoC5/Camera.c **** 	while(Camera_I2C_MasterSendStart(0x30,0)!=Camera_I2C_MSTR_NO_ERROR);
  19:.\Generated_Source\PSoC5/Camera.c ****     Camera_I2C_MasterWriteByte(reg);
  20:.\Generated_Source\PSoC5/Camera.c ****     Camera_I2C_MasterWriteByte(value);
  21:.\Generated_Source\PSoC5/Camera.c ****     Camera_I2C_MasterSendStop();
  22:.\Generated_Source\PSoC5/Camera.c **** }
  23:.\Generated_Source\PSoC5/Camera.c **** 
  24:.\Generated_Source\PSoC5/Camera.c **** uint8 Camera_ReadReg(const uint8 reg)
  25:.\Generated_Source\PSoC5/Camera.c **** {
  26:.\Generated_Source\PSoC5/Camera.c **** 	while(Camera_I2C_MasterSendStart(0x30,0)!=Camera_I2C_MSTR_NO_ERROR);
  27:.\Generated_Source\PSoC5/Camera.c ****     Camera_I2C_MasterWriteByte(reg);
  28:.\Generated_Source\PSoC5/Camera.c ****     Camera_I2C_MasterSendStop();
  29:.\Generated_Source\PSoC5/Camera.c **** 	
  30:.\Generated_Source\PSoC5/Camera.c **** 	while(Camera_I2C_MasterSendStart(0x30,1)!=Camera_I2C_MSTR_NO_ERROR);
  31:.\Generated_Source\PSoC5/Camera.c ****     uint8 value=Camera_I2C_MasterReadByte(Camera_I2C_NAK_DATA);
  32:.\Generated_Source\PSoC5/Camera.c ****     Camera_I2C_MasterSendStop();
ARM GAS  C:\Users\Nick\AppData\Local\Temp\ccT8jaHa.s 			page 2


  33:.\Generated_Source\PSoC5/Camera.c **** 	return value;
  34:.\Generated_Source\PSoC5/Camera.c **** }
  35:.\Generated_Source\PSoC5/Camera.c **** 
  36:.\Generated_Source\PSoC5/Camera.c **** void Camera_SyncFrame()
  37:.\Generated_Source\PSoC5/Camera.c **** {
  38:.\Generated_Source\PSoC5/Camera.c **** 	while(Camera_VSYNC_Read());
  39:.\Generated_Source\PSoC5/Camera.c **** 	while(!Camera_VSYNC_Read());
  40:.\Generated_Source\PSoC5/Camera.c **** }
  41:.\Generated_Source\PSoC5/Camera.c **** 
  42:.\Generated_Source\PSoC5/Camera.c **** void Camera_Start()
  43:.\Generated_Source\PSoC5/Camera.c **** {
  44:.\Generated_Source\PSoC5/Camera.c **** 	Camera_SIOD_SetDriveMode(Camera_SIOD_DM_RES_UP); //turn on pull-up resistors on I2C pins
  45:.\Generated_Source\PSoC5/Camera.c **** 	Camera_SIOC_SetDriveMode(Camera_SIOC_DM_RES_UP);
  46:.\Generated_Source\PSoC5/Camera.c **** 	Camera_I2C_Start();
  47:.\Generated_Source\PSoC5/Camera.c **** 	
  48:.\Generated_Source\PSoC5/Camera.c **** 	Camera_WriteReg(0x12,0x80); //reset
  49:.\Generated_Source\PSoC5/Camera.c **** 	CyDelay(1);
  50:.\Generated_Source\PSoC5/Camera.c **** 	uint16 i;
  51:.\Generated_Source\PSoC5/Camera.c **** 	for(i=0;Camera_settings[i][0]!=0xff;i++) Camera_WriteReg(Camera_settings[i][0],Camera_settings[i][
  52:.\Generated_Source\PSoC5/Camera.c **** 	for(i=0;Camera_format[i]!=0xff;i++) Camera_WriteReg(Camera_format[i],Camera_qcif[i]); //qcif forma
  53:.\Generated_Source\PSoC5/Camera.c **** 	
  54:.\Generated_Source\PSoC5/Camera.c **** 	uint8 (*buffer)[BUFFER_SIZE]=(uint8(*)[BUFFER_SIZE])Camera_framebuffer; //recast buffer for easier
  55:.\Generated_Source\PSoC5/Camera.c **** 	DMA_channel=Camera_DMA_DmaInitialize(1,1,HI16(CYDEV_PERIPH_BASE),HI16(CYDEV_SRAM_BASE)); //periphe
  56:.\Generated_Source\PSoC5/Camera.c **** 	for(i=0;i<sizeof DMA_TD;i++) //set up TDs
  57:.\Generated_Source\PSoC5/Camera.c **** 	{
  58:.\Generated_Source\PSoC5/Camera.c **** 		DMA_TD[i]=CyDmaTdAllocate();
  59:.\Generated_Source\PSoC5/Camera.c **** 		CyDmaTdSetAddress(DMA_TD[i],LO16(Camera_FIFO_dp__F0_REG),LO16((uint32)buffer[i]));
  60:.\Generated_Source\PSoC5/Camera.c **** 		if(i) CyDmaTdSetConfiguration(DMA_TD[i-1],BUFFER_SIZE,DMA_TD[i],TD_INC_DST_ADR);
  61:.\Generated_Source\PSoC5/Camera.c **** 	}
  62:.\Generated_Source\PSoC5/Camera.c **** 	CyDmaChPriority(DMA_channel,0); //ensure highest priority for DMA channel
  63:.\Generated_Source\PSoC5/Camera.c **** }
  64:.\Generated_Source\PSoC5/Camera.c **** 
  65:.\Generated_Source\PSoC5/Camera.c **** static void DMA_Start()
  66:.\Generated_Source\PSoC5/Camera.c **** {
  26              		.loc 1 66 0
  27              		.cfi_startproc
  28              		@ args = 0, pretend = 0, frame = 0
  29              		@ frame_needed = 0, uses_anonymous_args = 0
  30 0000 10B5     		push	{r4, lr}
  31              		.cfi_def_cfa_offset 8
  32              		.cfi_offset 4, -8
  33              		.cfi_offset 14, -4
  67:.\Generated_Source\PSoC5/Camera.c **** 	*(reg8*)Camera_FIFO_dp__F0_REG;
  34              		.loc 1 67 0
  35 0002 094B     		ldr	r3, .L2
  36 0004 1A78     		ldrb	r2, [r3]	@ zero_extendqisi2
  68:.\Generated_Source\PSoC5/Camera.c **** 	*(reg8*)Camera_FIFO_dp__F0_REG;
  37              		.loc 1 68 0
  38 0006 1A78     		ldrb	r2, [r3]	@ zero_extendqisi2
  69:.\Generated_Source\PSoC5/Camera.c **** 	*(reg8*)Camera_FIFO_dp__F0_REG;
  39              		.loc 1 69 0
  40 0008 1A78     		ldrb	r2, [r3]	@ zero_extendqisi2
  70:.\Generated_Source\PSoC5/Camera.c **** 	*(reg8*)Camera_FIFO_dp__F0_REG; //clear fifo
  41              		.loc 1 70 0
  42 000a 1B78     		ldrb	r3, [r3]	@ zero_extendqisi2
  71:.\Generated_Source\PSoC5/Camera.c **** 	CyDmaClearPendingDrq(DMA_channel); //invalidate pending requests
  43              		.loc 1 71 0
ARM GAS  C:\Users\Nick\AppData\Local\Temp\ccT8jaHa.s 			page 3


  44 000c 074C     		ldr	r4, .L2+4
  45 000e 2078     		ldrb	r0, [r4]	@ zero_extendqisi2
  46 0010 FFF7FEFF 		bl	CyDmaClearPendingDrq
  47              	.LVL0:
  72:.\Generated_Source\PSoC5/Camera.c **** 	CyDmaChSetInitialTd(DMA_channel,DMA_TD[0]); //set initial TD
  48              		.loc 1 72 0
  49 0014 2078     		ldrb	r0, [r4]	@ zero_extendqisi2
  50 0016 2179     		ldrb	r1, [r4, #4]	@ zero_extendqisi2
  51 0018 FFF7FEFF 		bl	CyDmaChSetInitialTd
  52              	.LVL1:
  73:.\Generated_Source\PSoC5/Camera.c **** 	CyDmaChEnable(DMA_channel,1); //enable channel (start streaming)
  53              		.loc 1 73 0
  54 001c 2078     		ldrb	r0, [r4]	@ zero_extendqisi2
  55 001e 0121     		movs	r1, #1
  56 0020 FFF7FEFF 		bl	CyDmaChEnable
  57              	.LVL2:
  58 0024 10BD     		pop	{r4, pc}
  59              	.L3:
  60 0026 00BF     		.align	2
  61              	.L2:
  62 0028 4B640040 		.word	1073767499
  63 002c 00000000 		.word	.LANCHOR0
  64              		.cfi_endproc
  65              	.LFE67:
  66              		.size	DMA_Start, .-DMA_Start
  67              		.section	.text.Camera_WriteReg,"ax",%progbits
  68              		.align	2
  69              		.global	Camera_WriteReg
  70              		.thumb
  71              		.thumb_func
  72              		.type	Camera_WriteReg, %function
  73              	Camera_WriteReg:
  74              	.LFB63:
  17:.\Generated_Source\PSoC5/Camera.c **** {
  75              		.loc 1 17 0
  76              		.cfi_startproc
  77              		@ args = 0, pretend = 0, frame = 0
  78              		@ frame_needed = 0, uses_anonymous_args = 0
  79              	.LVL3:
  80 0000 F8B5     		push	{r3, r4, r5, r6, r7, lr}
  81              		.cfi_def_cfa_offset 24
  82              		.cfi_offset 3, -24
  83              		.cfi_offset 4, -20
  84              		.cfi_offset 5, -16
  85              		.cfi_offset 6, -12
  86              		.cfi_offset 7, -8
  87              		.cfi_offset 14, -4
  88 0002 0746     		mov	r7, r0
  89 0004 0E46     		mov	r6, r1
  18:.\Generated_Source\PSoC5/Camera.c **** 	while(Camera_I2C_MasterSendStart(0x30,0)!=Camera_I2C_MSTR_NO_ERROR);
  90              		.loc 1 18 0
  91 0006 3025     		movs	r5, #48
  92 0008 0024     		movs	r4, #0
  93              	.LVL4:
  94              	.L5:
  18:.\Generated_Source\PSoC5/Camera.c **** 	while(Camera_I2C_MasterSendStart(0x30,0)!=Camera_I2C_MSTR_NO_ERROR);
  95              		.loc 1 18 0 is_stmt 0 discriminator 1
ARM GAS  C:\Users\Nick\AppData\Local\Temp\ccT8jaHa.s 			page 4


  96 000a 2846     		mov	r0, r5
  97 000c 2146     		mov	r1, r4
  98 000e FFF7FEFF 		bl	Camera_I2C_MasterSendStart
  99              	.LVL5:
 100 0012 0028     		cmp	r0, #0
 101 0014 F9D1     		bne	.L5
  19:.\Generated_Source\PSoC5/Camera.c ****     Camera_I2C_MasterWriteByte(reg);
 102              		.loc 1 19 0 is_stmt 1
 103 0016 3846     		mov	r0, r7
 104 0018 FFF7FEFF 		bl	Camera_I2C_MasterWriteByte
 105              	.LVL6:
  20:.\Generated_Source\PSoC5/Camera.c ****     Camera_I2C_MasterWriteByte(value);
 106              		.loc 1 20 0
 107 001c 3046     		mov	r0, r6
 108 001e FFF7FEFF 		bl	Camera_I2C_MasterWriteByte
 109              	.LVL7:
  21:.\Generated_Source\PSoC5/Camera.c ****     Camera_I2C_MasterSendStop();
 110              		.loc 1 21 0
 111 0022 FFF7FEFF 		bl	Camera_I2C_MasterSendStop
 112              	.LVL8:
 113 0026 F8BD     		pop	{r3, r4, r5, r6, r7, pc}
 114              		.cfi_endproc
 115              	.LFE63:
 116              		.size	Camera_WriteReg, .-Camera_WriteReg
 117              		.section	.text.Camera_ReadReg,"ax",%progbits
 118              		.align	2
 119              		.global	Camera_ReadReg
 120              		.thumb
 121              		.thumb_func
 122              		.type	Camera_ReadReg, %function
 123              	Camera_ReadReg:
 124              	.LFB64:
  25:.\Generated_Source\PSoC5/Camera.c **** {
 125              		.loc 1 25 0
 126              		.cfi_startproc
 127              		@ args = 0, pretend = 0, frame = 0
 128              		@ frame_needed = 0, uses_anonymous_args = 0
 129              	.LVL9:
 130 0000 70B5     		push	{r4, r5, r6, lr}
 131              		.cfi_def_cfa_offset 16
 132              		.cfi_offset 4, -16
 133              		.cfi_offset 5, -12
 134              		.cfi_offset 6, -8
 135              		.cfi_offset 14, -4
 136 0002 0646     		mov	r6, r0
  26:.\Generated_Source\PSoC5/Camera.c **** 	while(Camera_I2C_MasterSendStart(0x30,0)!=Camera_I2C_MSTR_NO_ERROR);
 137              		.loc 1 26 0
 138 0004 3025     		movs	r5, #48
 139 0006 0024     		movs	r4, #0
 140              	.LVL10:
 141              	.L8:
  26:.\Generated_Source\PSoC5/Camera.c **** 	while(Camera_I2C_MasterSendStart(0x30,0)!=Camera_I2C_MSTR_NO_ERROR);
 142              		.loc 1 26 0 is_stmt 0 discriminator 1
 143 0008 2846     		mov	r0, r5
 144 000a 2146     		mov	r1, r4
 145 000c FFF7FEFF 		bl	Camera_I2C_MasterSendStart
 146              	.LVL11:
ARM GAS  C:\Users\Nick\AppData\Local\Temp\ccT8jaHa.s 			page 5


 147 0010 0028     		cmp	r0, #0
 148 0012 F9D1     		bne	.L8
  27:.\Generated_Source\PSoC5/Camera.c ****     Camera_I2C_MasterWriteByte(reg);
 149              		.loc 1 27 0 is_stmt 1
 150 0014 3046     		mov	r0, r6
 151 0016 FFF7FEFF 		bl	Camera_I2C_MasterWriteByte
 152              	.LVL12:
  28:.\Generated_Source\PSoC5/Camera.c ****     Camera_I2C_MasterSendStop();
 153              		.loc 1 28 0
 154 001a FFF7FEFF 		bl	Camera_I2C_MasterSendStop
 155              	.LVL13:
  30:.\Generated_Source\PSoC5/Camera.c **** 	while(Camera_I2C_MasterSendStart(0x30,1)!=Camera_I2C_MSTR_NO_ERROR);
 156              		.loc 1 30 0
 157 001e 3025     		movs	r5, #48
 158 0020 0124     		movs	r4, #1
 159              	.L9:
  30:.\Generated_Source\PSoC5/Camera.c **** 	while(Camera_I2C_MasterSendStart(0x30,1)!=Camera_I2C_MSTR_NO_ERROR);
 160              		.loc 1 30 0 is_stmt 0 discriminator 1
 161 0022 2846     		mov	r0, r5
 162 0024 2146     		mov	r1, r4
 163 0026 FFF7FEFF 		bl	Camera_I2C_MasterSendStart
 164              	.LVL14:
 165 002a 0028     		cmp	r0, #0
 166 002c F9D1     		bne	.L9
  31:.\Generated_Source\PSoC5/Camera.c ****     uint8 value=Camera_I2C_MasterReadByte(Camera_I2C_NAK_DATA);
 167              		.loc 1 31 0 is_stmt 1
 168 002e FFF7FEFF 		bl	Camera_I2C_MasterReadByte
 169              	.LVL15:
 170 0032 0446     		mov	r4, r0
 171              	.LVL16:
  32:.\Generated_Source\PSoC5/Camera.c ****     Camera_I2C_MasterSendStop();
 172              		.loc 1 32 0
 173 0034 FFF7FEFF 		bl	Camera_I2C_MasterSendStop
 174              	.LVL17:
  34:.\Generated_Source\PSoC5/Camera.c **** }
 175              		.loc 1 34 0
 176 0038 2046     		mov	r0, r4
 177 003a 70BD     		pop	{r4, r5, r6, pc}
 178              		.cfi_endproc
 179              	.LFE64:
 180              		.size	Camera_ReadReg, .-Camera_ReadReg
 181              		.section	.text.Camera_SyncFrame,"ax",%progbits
 182              		.align	2
 183              		.global	Camera_SyncFrame
 184              		.thumb
 185              		.thumb_func
 186              		.type	Camera_SyncFrame, %function
 187              	Camera_SyncFrame:
 188              	.LFB65:
  37:.\Generated_Source\PSoC5/Camera.c **** {
 189              		.loc 1 37 0
 190              		.cfi_startproc
 191              		@ args = 0, pretend = 0, frame = 0
 192              		@ frame_needed = 0, uses_anonymous_args = 0
 193 0000 08B5     		push	{r3, lr}
 194              		.cfi_def_cfa_offset 8
 195              		.cfi_offset 3, -8
ARM GAS  C:\Users\Nick\AppData\Local\Temp\ccT8jaHa.s 			page 6


 196              		.cfi_offset 14, -4
 197              	.L13:
  38:.\Generated_Source\PSoC5/Camera.c **** 	while(Camera_VSYNC_Read());
 198              		.loc 1 38 0 discriminator 1
 199 0002 FFF7FEFF 		bl	Camera_VSYNC_Read
 200              	.LVL18:
 201 0006 0028     		cmp	r0, #0
 202 0008 FBD1     		bne	.L13
 203              	.L15:
  39:.\Generated_Source\PSoC5/Camera.c **** 	while(!Camera_VSYNC_Read());
 204              		.loc 1 39 0 discriminator 1
 205 000a FFF7FEFF 		bl	Camera_VSYNC_Read
 206              	.LVL19:
 207 000e 0028     		cmp	r0, #0
 208 0010 FBD0     		beq	.L15
  40:.\Generated_Source\PSoC5/Camera.c **** }
 209              		.loc 1 40 0
 210 0012 08BD     		pop	{r3, pc}
 211              		.cfi_endproc
 212              	.LFE65:
 213              		.size	Camera_SyncFrame, .-Camera_SyncFrame
 214              		.section	.text.Camera_Start,"ax",%progbits
 215              		.align	2
 216              		.global	Camera_Start
 217              		.thumb
 218              		.thumb_func
 219              		.type	Camera_Start, %function
 220              	Camera_Start:
 221              	.LFB66:
  43:.\Generated_Source\PSoC5/Camera.c **** {
 222              		.loc 1 43 0
 223              		.cfi_startproc
 224              		@ args = 0, pretend = 0, frame = 0
 225              		@ frame_needed = 0, uses_anonymous_args = 0
 226 0000 F8B5     		push	{r3, r4, r5, r6, r7, lr}
 227              		.cfi_def_cfa_offset 24
 228              		.cfi_offset 3, -24
 229              		.cfi_offset 4, -20
 230              		.cfi_offset 5, -16
 231              		.cfi_offset 6, -12
 232              		.cfi_offset 7, -8
 233              		.cfi_offset 14, -4
  44:.\Generated_Source\PSoC5/Camera.c **** 	Camera_SIOD_SetDriveMode(Camera_SIOD_DM_RES_UP); //turn on pull-up resistors on I2C pins
 234              		.loc 1 44 0
 235 0002 0420     		movs	r0, #4
 236 0004 FFF7FEFF 		bl	Camera_SIOD_SetDriveMode
 237              	.LVL20:
  45:.\Generated_Source\PSoC5/Camera.c **** 	Camera_SIOC_SetDriveMode(Camera_SIOC_DM_RES_UP);
 238              		.loc 1 45 0
 239 0008 0420     		movs	r0, #4
 240 000a FFF7FEFF 		bl	Camera_SIOC_SetDriveMode
 241              	.LVL21:
  46:.\Generated_Source\PSoC5/Camera.c **** 	Camera_I2C_Start();
 242              		.loc 1 46 0
 243 000e FFF7FEFF 		bl	Camera_I2C_Start
 244              	.LVL22:
  48:.\Generated_Source\PSoC5/Camera.c **** 	Camera_WriteReg(0x12,0x80); //reset
ARM GAS  C:\Users\Nick\AppData\Local\Temp\ccT8jaHa.s 			page 7


 245              		.loc 1 48 0
 246 0012 1220     		movs	r0, #18
 247 0014 8021     		movs	r1, #128
 248 0016 FFF7FEFF 		bl	Camera_WriteReg
 249              	.LVL23:
  49:.\Generated_Source\PSoC5/Camera.c **** 	CyDelay(1);
 250              		.loc 1 49 0
 251 001a 0120     		movs	r0, #1
 252 001c FFF7FEFF 		bl	CyDelay
 253              	.LVL24:
  51:.\Generated_Source\PSoC5/Camera.c **** 	for(i=0;Camera_settings[i][0]!=0xff;i++) Camera_WriteReg(Camera_settings[i][0],Camera_settings[i][
 254              		.loc 1 51 0
 255 0020 0024     		movs	r4, #0
 256 0022 234D     		ldr	r5, .L26
 257 0024 06E0     		b	.L19
 258              	.LVL25:
 259              	.L20:
  51:.\Generated_Source\PSoC5/Camera.c **** 	for(i=0;Camera_settings[i][0]!=0xff;i++) Camera_WriteReg(Camera_settings[i][0],Camera_settings[i][
 260              		.loc 1 51 0 is_stmt 0 discriminator 2
 261 0026 05EB4403 		add	r3, r5, r4, lsl #1
 262 002a 5978     		ldrb	r1, [r3, #1]	@ zero_extendqisi2
 263 002c FFF7FEFF 		bl	Camera_WriteReg
 264              	.LVL26:
 265 0030 0134     		adds	r4, r4, #1
 266              	.LVL27:
 267 0032 A4B2     		uxth	r4, r4
 268              	.LVL28:
 269              	.L19:
  51:.\Generated_Source\PSoC5/Camera.c **** 	for(i=0;Camera_settings[i][0]!=0xff;i++) Camera_WriteReg(Camera_settings[i][0],Camera_settings[i][
 270              		.loc 1 51 0 discriminator 1
 271 0034 15F81400 		ldrb	r0, [r5, r4, lsl #1]	@ zero_extendqisi2
 272 0038 FF28     		cmp	r0, #255
 273 003a F4D1     		bne	.L20
 274 003c 0024     		movs	r4, #0
 275              	.LVL29:
  52:.\Generated_Source\PSoC5/Camera.c **** 	for(i=0;Camera_format[i]!=0xff;i++) Camera_WriteReg(Camera_format[i],Camera_qcif[i]); //qcif forma
 276              		.loc 1 52 0 is_stmt 1
 277 003e 1D4D     		ldr	r5, .L26+4
 278 0040 1D4E     		ldr	r6, .L26+8
 279 0042 04E0     		b	.L21
 280              	.LVL30:
 281              	.L22:
  52:.\Generated_Source\PSoC5/Camera.c **** 	for(i=0;Camera_format[i]!=0xff;i++) Camera_WriteReg(Camera_format[i],Camera_qcif[i]); //qcif forma
 282              		.loc 1 52 0 is_stmt 0 discriminator 2
 283 0044 315D     		ldrb	r1, [r6, r4]	@ zero_extendqisi2
 284 0046 FFF7FEFF 		bl	Camera_WriteReg
 285              	.LVL31:
 286 004a 0134     		adds	r4, r4, #1
 287              	.LVL32:
 288 004c A4B2     		uxth	r4, r4
 289              	.LVL33:
 290              	.L21:
  52:.\Generated_Source\PSoC5/Camera.c **** 	for(i=0;Camera_format[i]!=0xff;i++) Camera_WriteReg(Camera_format[i],Camera_qcif[i]); //qcif forma
 291              		.loc 1 52 0 discriminator 1
 292 004e 285D     		ldrb	r0, [r5, r4]	@ zero_extendqisi2
 293 0050 FF28     		cmp	r0, #255
 294 0052 F7D1     		bne	.L22
ARM GAS  C:\Users\Nick\AppData\Local\Temp\ccT8jaHa.s 			page 8


 295              	.LVL34:
  55:.\Generated_Source\PSoC5/Camera.c **** 	DMA_channel=Camera_DMA_DmaInitialize(1,1,HI16(CYDEV_PERIPH_BASE),HI16(CYDEV_SRAM_BASE)); //periphe
 296              		.loc 1 55 0 is_stmt 1
 297 0054 0120     		movs	r0, #1
 298 0056 0146     		mov	r1, r0
 299 0058 4FF48042 		mov	r2, #16384
 300 005c 41F6FF73 		movw	r3, #8191
 301 0060 FFF7FEFF 		bl	Camera_DMA_DmaInitialize
 302              	.LVL35:
 303 0064 154B     		ldr	r3, .L26+12
 304 0066 1870     		strb	r0, [r3]
 305              	.LVL36:
  56:.\Generated_Source\PSoC5/Camera.c **** 	for(i=0;i<sizeof DMA_TD;i++) //set up TDs
 306              		.loc 1 56 0
 307 0068 0024     		movs	r4, #0
  58:.\Generated_Source\PSoC5/Camera.c **** 		DMA_TD[i]=CyDmaTdAllocate();
 308              		.loc 1 58 0
 309 006a 1D46     		mov	r5, r3
  59:.\Generated_Source\PSoC5/Camera.c **** 		CyDmaTdSetAddress(DMA_TD[i],LO16(Camera_FIFO_dp__F0_REG),LO16((uint32)buffer[i]));
 310              		.loc 1 59 0
 311 006c 4FF44666 		mov	r6, #3168
 312 0070 134F     		ldr	r7, .L26+16
  56:.\Generated_Source\PSoC5/Camera.c **** 	for(i=0;i<sizeof DMA_TD;i++) //set up TDs
 313              		.loc 1 56 0
 314 0072 14E0     		b	.L23
 315              	.LVL37:
 316              	.L25:
  58:.\Generated_Source\PSoC5/Camera.c **** 		DMA_TD[i]=CyDmaTdAllocate();
 317              		.loc 1 58 0
 318 0074 FFF7FEFF 		bl	CyDmaTdAllocate
 319              	.LVL38:
 320 0078 2B19     		adds	r3, r5, r4
 321 007a 1871     		strb	r0, [r3, #4]
  59:.\Generated_Source\PSoC5/Camera.c **** 		CyDmaTdSetAddress(DMA_TD[i],LO16(Camera_FIFO_dp__F0_REG),LO16((uint32)buffer[i]));
 322              		.loc 1 59 0
 323 007c 06FB0472 		mla	r2, r6, r4, r7
 324 0080 46F24B41 		movw	r1, #25675
 325 0084 92B2     		uxth	r2, r2
 326 0086 FFF7FEFF 		bl	CyDmaTdSetAddress
 327              	.LVL39:
  60:.\Generated_Source\PSoC5/Camera.c **** 		if(i) CyDmaTdSetConfiguration(DMA_TD[i-1],BUFFER_SIZE,DMA_TD[i],TD_INC_DST_ADR);
 328              		.loc 1 60 0
 329 008a 34B1     		cbz	r4, .L24
  60:.\Generated_Source\PSoC5/Camera.c **** 		if(i) CyDmaTdSetConfiguration(DMA_TD[i-1],BUFFER_SIZE,DMA_TD[i],TD_INC_DST_ADR);
 330              		.loc 1 60 0 is_stmt 0 discriminator 1
 331 008c 2A19     		adds	r2, r5, r4
 332 008e D078     		ldrb	r0, [r2, #3]	@ zero_extendqisi2
 333 0090 3146     		mov	r1, r6
 334 0092 1279     		ldrb	r2, [r2, #4]	@ zero_extendqisi2
 335 0094 0223     		movs	r3, #2
 336 0096 FFF7FEFF 		bl	CyDmaTdSetConfiguration
 337              	.LVL40:
 338              	.L24:
  56:.\Generated_Source\PSoC5/Camera.c **** 	for(i=0;i<sizeof DMA_TD;i++) //set up TDs
 339              		.loc 1 56 0 is_stmt 1
 340 009a 0134     		adds	r4, r4, #1
 341              	.LVL41:
ARM GAS  C:\Users\Nick\AppData\Local\Temp\ccT8jaHa.s 			page 9


 342 009c A4B2     		uxth	r4, r4
 343              	.LVL42:
 344              	.L23:
  56:.\Generated_Source\PSoC5/Camera.c **** 	for(i=0;i<sizeof DMA_TD;i++) //set up TDs
 345              		.loc 1 56 0 is_stmt 0 discriminator 1
 346 009e 0F2C     		cmp	r4, #15
 347 00a0 E8D9     		bls	.L25
  62:.\Generated_Source\PSoC5/Camera.c **** 	CyDmaChPriority(DMA_channel,0); //ensure highest priority for DMA channel
 348              		.loc 1 62 0 is_stmt 1
 349 00a2 064B     		ldr	r3, .L26+12
 350 00a4 1878     		ldrb	r0, [r3]	@ zero_extendqisi2
 351 00a6 0021     		movs	r1, #0
 352 00a8 FFF7FEFF 		bl	CyDmaChPriority
 353              	.LVL43:
 354 00ac F8BD     		pop	{r3, r4, r5, r6, r7, pc}
 355              	.LVL44:
 356              	.L27:
 357 00ae 00BF     		.align	2
 358              	.L26:
 359 00b0 00000000 		.word	Camera_settings
 360 00b4 00000000 		.word	Camera_format
 361 00b8 00000000 		.word	Camera_qcif
 362 00bc 00000000 		.word	.LANCHOR0
 363 00c0 00000000 		.word	Camera_framebuffer
 364              		.cfi_endproc
 365              	.LFE66:
 366              		.size	Camera_Start, .-Camera_Start
 367              		.section	.text.Camera_GetFrame,"ax",%progbits
 368              		.align	2
 369              		.global	Camera_GetFrame
 370              		.thumb
 371              		.thumb_func
 372              		.type	Camera_GetFrame, %function
 373              	Camera_GetFrame:
 374              	.LFB68:
  74:.\Generated_Source\PSoC5/Camera.c **** }
  75:.\Generated_Source\PSoC5/Camera.c **** 
  76:.\Generated_Source\PSoC5/Camera.c **** void Camera_GetFrame()
  77:.\Generated_Source\PSoC5/Camera.c **** {
 375              		.loc 1 77 0
 376              		.cfi_startproc
 377              		@ args = 0, pretend = 0, frame = 0
 378              		@ frame_needed = 0, uses_anonymous_args = 0
 379 0000 08B5     		push	{r3, lr}
 380              		.cfi_def_cfa_offset 8
 381              		.cfi_offset 3, -8
 382              		.cfi_offset 14, -4
  78:.\Generated_Source\PSoC5/Camera.c **** 	CyDmaTdSetConfiguration(DMA_TD[sizeof(DMA_TD)-1],BUFFER_SIZE,CY_DMA_DISABLE_TD,TD_INC_DST_ADR); //
 383              		.loc 1 78 0
 384 0002 054B     		ldr	r3, .L29
 385 0004 D87C     		ldrb	r0, [r3, #19]	@ zero_extendqisi2
 386 0006 4FF44661 		mov	r1, #3168
 387 000a FE22     		movs	r2, #254
 388 000c 0223     		movs	r3, #2
 389 000e FFF7FEFF 		bl	CyDmaTdSetConfiguration
 390              	.LVL45:
  79:.\Generated_Source\PSoC5/Camera.c **** 	DMA_Start();
ARM GAS  C:\Users\Nick\AppData\Local\Temp\ccT8jaHa.s 			page 10


 391              		.loc 1 79 0
 392 0012 FFF7FEFF 		bl	DMA_Start
 393              	.LVL46:
 394 0016 08BD     		pop	{r3, pc}
 395              	.L30:
 396              		.align	2
 397              	.L29:
 398 0018 00000000 		.word	.LANCHOR0
 399              		.cfi_endproc
 400              	.LFE68:
 401              		.size	Camera_GetFrame, .-Camera_GetFrame
 402              		.section	.text.Camera_Stream,"ax",%progbits
 403              		.align	2
 404              		.global	Camera_Stream
 405              		.thumb
 406              		.thumb_func
 407              		.type	Camera_Stream, %function
 408              	Camera_Stream:
 409              	.LFB69:
  80:.\Generated_Source\PSoC5/Camera.c **** }
  81:.\Generated_Source\PSoC5/Camera.c **** 
  82:.\Generated_Source\PSoC5/Camera.c **** void Camera_Stream()
  83:.\Generated_Source\PSoC5/Camera.c **** {
 410              		.loc 1 83 0
 411              		.cfi_startproc
 412              		@ args = 0, pretend = 0, frame = 0
 413              		@ frame_needed = 0, uses_anonymous_args = 0
 414 0000 08B5     		push	{r3, lr}
 415              		.cfi_def_cfa_offset 8
 416              		.cfi_offset 3, -8
 417              		.cfi_offset 14, -4
  84:.\Generated_Source\PSoC5/Camera.c **** 	CyDmaTdSetConfiguration(DMA_TD[sizeof(DMA_TD)-1],BUFFER_SIZE,DMA_TD[0],TD_INC_DST_ADR); //loop TDs
 418              		.loc 1 84 0
 419 0002 054B     		ldr	r3, .L32
 420 0004 D87C     		ldrb	r0, [r3, #19]	@ zero_extendqisi2
 421 0006 4FF44661 		mov	r1, #3168
 422 000a 1A79     		ldrb	r2, [r3, #4]	@ zero_extendqisi2
 423 000c 0223     		movs	r3, #2
 424 000e FFF7FEFF 		bl	CyDmaTdSetConfiguration
 425              	.LVL47:
  85:.\Generated_Source\PSoC5/Camera.c **** 	DMA_Start();
 426              		.loc 1 85 0
 427 0012 FFF7FEFF 		bl	DMA_Start
 428              	.LVL48:
 429 0016 08BD     		pop	{r3, pc}
 430              	.L33:
 431              		.align	2
 432              	.L32:
 433 0018 00000000 		.word	.LANCHOR0
 434              		.cfi_endproc
 435              	.LFE69:
 436              		.size	Camera_Stream, .-Camera_Stream
 437              		.section	.text.Camera_StopStreaming,"ax",%progbits
 438              		.align	2
 439              		.global	Camera_StopStreaming
 440              		.thumb
 441              		.thumb_func
ARM GAS  C:\Users\Nick\AppData\Local\Temp\ccT8jaHa.s 			page 11


 442              		.type	Camera_StopStreaming, %function
 443              	Camera_StopStreaming:
 444              	.LFB70:
  86:.\Generated_Source\PSoC5/Camera.c **** }
  87:.\Generated_Source\PSoC5/Camera.c **** 
  88:.\Generated_Source\PSoC5/Camera.c **** void Camera_StopStreaming()
  89:.\Generated_Source\PSoC5/Camera.c **** {
 445              		.loc 1 89 0
 446              		.cfi_startproc
 447              		@ args = 0, pretend = 0, frame = 0
 448              		@ frame_needed = 0, uses_anonymous_args = 0
 449 0000 08B5     		push	{r3, lr}
 450              		.cfi_def_cfa_offset 8
 451              		.cfi_offset 3, -8
 452              		.cfi_offset 14, -4
  90:.\Generated_Source\PSoC5/Camera.c **** 	CyDmaChSetRequest(DMA_channel,CY_DMA_CPU_TERM_CHAIN);
 453              		.loc 1 90 0
 454 0002 034B     		ldr	r3, .L35
 455 0004 1878     		ldrb	r0, [r3]	@ zero_extendqisi2
 456 0006 0421     		movs	r1, #4
 457 0008 FFF7FEFF 		bl	CyDmaChSetRequest
 458              	.LVL49:
 459 000c 08BD     		pop	{r3, pc}
 460              	.L36:
 461 000e 00BF     		.align	2
 462              	.L35:
 463 0010 00000000 		.word	.LANCHOR0
 464              		.cfi_endproc
 465              	.LFE70:
 466              		.size	Camera_StopStreaming, .-Camera_StopStreaming
 467              		.comm	Camera_framebuffer,50688,4
 468              		.bss
 469              		.align	2
 470              		.set	.LANCHOR0,. + 0
 471              		.type	DMA_channel, %object
 472              		.size	DMA_channel, 1
 473              	DMA_channel:
 474 0000 00       		.space	1
 475 0001 000000   		.space	3
 476              		.type	DMA_TD, %object
 477              		.size	DMA_TD, 16
 478              	DMA_TD:
 479 0004 00000000 		.space	16
 479      00000000 
 479      00000000 
 479      00000000 
 480              		.text
 481              	.Letext0:
 482              		.file 2 "c:\\program files (x86)\\cypress\\psoc creator\\3.2\\psoc creator\\import\\gnu\\arm\\4.8.
 483              		.file 3 "c:\\program files (x86)\\cypress\\psoc creator\\3.2\\psoc creator\\import\\gnu\\arm\\4.8.
 484              		.file 4 "Generated_Source\\PSoC5/cytypes.h"
 485              		.file 5 "Generated_Source\\PSoC5/core_cm3.h"
 486              		.file 6 ".\\Generated_Source\\PSoC5\\Camera.h"
 487              		.file 7 "Generated_Source\\PSoC5/CYDMAC.H"
 488              		.file 8 "Generated_Source\\PSoC5/Camera_I2C.h"
 489              		.file 9 "Generated_Source\\PSoC5/Camera_VSYNC.h"
 490              		.file 10 "Generated_Source\\PSoC5/Camera_SIOD.h"
ARM GAS  C:\Users\Nick\AppData\Local\Temp\ccT8jaHa.s 			page 12


 491              		.file 11 "Generated_Source\\PSoC5/Camera_SIOC.h"
 492              		.file 12 "Generated_Source\\PSoC5/CyLib.h"
 493              		.file 13 "Generated_Source\\PSoC5/Camera_DMA_dma.h"