ARM GAS  C:\Users\Nick\AppData\Local\Temp\ccWNoN6f.s 			page 1


   1              		.syntax unified
   2              		.cpu cortex-m3
   3              		.fpu softvfp
   4              		.eabi_attribute 20, 1
   5              		.eabi_attribute 21, 1
   6              		.eabi_attribute 23, 3
   7              		.eabi_attribute 24, 1
   8              		.eabi_attribute 25, 1
   9              		.eabi_attribute 26, 1
  10              		.eabi_attribute 30, 1
  11              		.eabi_attribute 34, 1
  12              		.eabi_attribute 18, 4
  13              		.thumb
  14              		.file	"Camera_I2C_MASTER.c"
  15              		.text
  16              	.Ltext0:
  17              		.cfi_sections	.debug_frame
  18              		.section	.text.Camera_I2C_MasterWriteBuf,"ax",%progbits
  19              		.align	2
  20              		.global	Camera_I2C_MasterWriteBuf
  21              		.thumb
  22              		.thumb_func
  23              		.type	Camera_I2C_MasterWriteBuf, %function
  24              	Camera_I2C_MasterWriteBuf:
  25              	.LFB0:
  26              		.file 1 ".\\Generated_Source\\PSoC5\\Camera_I2C_MASTER.c"
   1:.\Generated_Source\PSoC5/Camera_I2C_MASTER.c **** /*******************************************************************************
   2:.\Generated_Source\PSoC5/Camera_I2C_MASTER.c **** * File Name: Camera_I2C_MASTER.c
   3:.\Generated_Source\PSoC5/Camera_I2C_MASTER.c **** * Version 3.50
   4:.\Generated_Source\PSoC5/Camera_I2C_MASTER.c **** *
   5:.\Generated_Source\PSoC5/Camera_I2C_MASTER.c **** * Description:
   6:.\Generated_Source\PSoC5/Camera_I2C_MASTER.c **** *  This file provides the source code of APIs for the I2C component master mode.
   7:.\Generated_Source\PSoC5/Camera_I2C_MASTER.c **** *
   8:.\Generated_Source\PSoC5/Camera_I2C_MASTER.c **** *******************************************************************************
   9:.\Generated_Source\PSoC5/Camera_I2C_MASTER.c **** * Copyright 2012-2015, Cypress Semiconductor Corporation. All rights reserved.
  10:.\Generated_Source\PSoC5/Camera_I2C_MASTER.c **** * You may use this file only in accordance with the license, terms, conditions,
  11:.\Generated_Source\PSoC5/Camera_I2C_MASTER.c **** * disclaimers, and limitations in the end user license agreement accompanying
  12:.\Generated_Source\PSoC5/Camera_I2C_MASTER.c **** * the software package with which this file was provided.
  13:.\Generated_Source\PSoC5/Camera_I2C_MASTER.c **** *******************************************************************************/
  14:.\Generated_Source\PSoC5/Camera_I2C_MASTER.c **** 
  15:.\Generated_Source\PSoC5/Camera_I2C_MASTER.c **** #include "Camera_I2C_PVT.h"
  16:.\Generated_Source\PSoC5/Camera_I2C_MASTER.c **** 
  17:.\Generated_Source\PSoC5/Camera_I2C_MASTER.c **** #if(Camera_I2C_MODE_MASTER_ENABLED)
  18:.\Generated_Source\PSoC5/Camera_I2C_MASTER.c **** 
  19:.\Generated_Source\PSoC5/Camera_I2C_MASTER.c **** /**********************************
  20:.\Generated_Source\PSoC5/Camera_I2C_MASTER.c **** *      System variables
  21:.\Generated_Source\PSoC5/Camera_I2C_MASTER.c **** **********************************/
  22:.\Generated_Source\PSoC5/Camera_I2C_MASTER.c **** 
  23:.\Generated_Source\PSoC5/Camera_I2C_MASTER.c **** volatile uint8 Camera_I2C_mstrStatus;     /* Master Status byte  */
  24:.\Generated_Source\PSoC5/Camera_I2C_MASTER.c **** volatile uint8 Camera_I2C_mstrControl;    /* Master Control byte */
  25:.\Generated_Source\PSoC5/Camera_I2C_MASTER.c **** 
  26:.\Generated_Source\PSoC5/Camera_I2C_MASTER.c **** /* Transmit buffer variables */
  27:.\Generated_Source\PSoC5/Camera_I2C_MASTER.c **** volatile uint8 * Camera_I2C_mstrRdBufPtr;     /* Pointer to Master Read buffer */
  28:.\Generated_Source\PSoC5/Camera_I2C_MASTER.c **** volatile uint8   Camera_I2C_mstrRdBufSize;    /* Master Read buffer size       */
  29:.\Generated_Source\PSoC5/Camera_I2C_MASTER.c **** volatile uint8   Camera_I2C_mstrRdBufIndex;   /* Master Read buffer Index      */
  30:.\Generated_Source\PSoC5/Camera_I2C_MASTER.c **** 
  31:.\Generated_Source\PSoC5/Camera_I2C_MASTER.c **** /* Receive buffer variables */
ARM GAS  C:\Users\Nick\AppData\Local\Temp\ccWNoN6f.s 			page 2


  32:.\Generated_Source\PSoC5/Camera_I2C_MASTER.c **** volatile uint8 * Camera_I2C_mstrWrBufPtr;     /* Pointer to Master Write buffer */
  33:.\Generated_Source\PSoC5/Camera_I2C_MASTER.c **** volatile uint8   Camera_I2C_mstrWrBufSize;    /* Master Write buffer size       */
  34:.\Generated_Source\PSoC5/Camera_I2C_MASTER.c **** volatile uint8   Camera_I2C_mstrWrBufIndex;   /* Master Write buffer Index      */
  35:.\Generated_Source\PSoC5/Camera_I2C_MASTER.c **** 
  36:.\Generated_Source\PSoC5/Camera_I2C_MASTER.c **** 
  37:.\Generated_Source\PSoC5/Camera_I2C_MASTER.c **** /*******************************************************************************
  38:.\Generated_Source\PSoC5/Camera_I2C_MASTER.c **** * Function Name: Camera_I2C_MasterWriteBuf
  39:.\Generated_Source\PSoC5/Camera_I2C_MASTER.c **** ********************************************************************************
  40:.\Generated_Source\PSoC5/Camera_I2C_MASTER.c **** *
  41:.\Generated_Source\PSoC5/Camera_I2C_MASTER.c **** * Summary:
  42:.\Generated_Source\PSoC5/Camera_I2C_MASTER.c **** *  Automatically writes an entire buffer of data to a slave device. Once the
  43:.\Generated_Source\PSoC5/Camera_I2C_MASTER.c **** *  data transfer is initiated by this function, further data transfer is handled
  44:.\Generated_Source\PSoC5/Camera_I2C_MASTER.c **** *  by the included ISR in byte by byte mode.
  45:.\Generated_Source\PSoC5/Camera_I2C_MASTER.c **** *
  46:.\Generated_Source\PSoC5/Camera_I2C_MASTER.c **** * Parameters:
  47:.\Generated_Source\PSoC5/Camera_I2C_MASTER.c **** *  slaveAddr: 7-bit slave address.
  48:.\Generated_Source\PSoC5/Camera_I2C_MASTER.c **** *  xferData:  Pointer to buffer of data to be sent.
  49:.\Generated_Source\PSoC5/Camera_I2C_MASTER.c **** *  cnt:       Size of buffer to send.
  50:.\Generated_Source\PSoC5/Camera_I2C_MASTER.c **** *  mode:      Transfer mode defines: start or restart condition generation at
  51:.\Generated_Source\PSoC5/Camera_I2C_MASTER.c **** *             begin of the transfer and complete the transfer or halt before
  52:.\Generated_Source\PSoC5/Camera_I2C_MASTER.c **** *             generating a stop.
  53:.\Generated_Source\PSoC5/Camera_I2C_MASTER.c **** *
  54:.\Generated_Source\PSoC5/Camera_I2C_MASTER.c **** * Return:
  55:.\Generated_Source\PSoC5/Camera_I2C_MASTER.c **** *  Status error - Zero means no errors.
  56:.\Generated_Source\PSoC5/Camera_I2C_MASTER.c **** *
  57:.\Generated_Source\PSoC5/Camera_I2C_MASTER.c **** * Side Effects:
  58:.\Generated_Source\PSoC5/Camera_I2C_MASTER.c **** *  The included ISR will start a transfer after a start or restart condition is
  59:.\Generated_Source\PSoC5/Camera_I2C_MASTER.c **** *  generated.
  60:.\Generated_Source\PSoC5/Camera_I2C_MASTER.c **** *
  61:.\Generated_Source\PSoC5/Camera_I2C_MASTER.c **** * Global variables:
  62:.\Generated_Source\PSoC5/Camera_I2C_MASTER.c **** *  Camera_I2C_mstrStatus  - The global variable used to store a current
  63:.\Generated_Source\PSoC5/Camera_I2C_MASTER.c **** *                                 status of the I2C Master.
  64:.\Generated_Source\PSoC5/Camera_I2C_MASTER.c **** *  Camera_I2C_state       - The global variable used to store a current
  65:.\Generated_Source\PSoC5/Camera_I2C_MASTER.c **** *                                 state of the software FSM.
  66:.\Generated_Source\PSoC5/Camera_I2C_MASTER.c **** *  Camera_I2C_mstrControl - The global variable used to control the master
  67:.\Generated_Source\PSoC5/Camera_I2C_MASTER.c **** *                                 end of a transaction with or without Stop
  68:.\Generated_Source\PSoC5/Camera_I2C_MASTER.c **** *                                 generation.
  69:.\Generated_Source\PSoC5/Camera_I2C_MASTER.c **** *  Camera_I2C_mstrWrBufPtr - The global variable used to store a pointer
  70:.\Generated_Source\PSoC5/Camera_I2C_MASTER.c **** *                                  to the master write buffer.
  71:.\Generated_Source\PSoC5/Camera_I2C_MASTER.c **** *  Camera_I2C_mstrWrBufIndex - The global variable used to store current
  72:.\Generated_Source\PSoC5/Camera_I2C_MASTER.c **** *                                    index within the master write buffer.
  73:.\Generated_Source\PSoC5/Camera_I2C_MASTER.c **** *  Camera_I2C_mstrWrBufSize - The global variable used to store a master
  74:.\Generated_Source\PSoC5/Camera_I2C_MASTER.c **** *                                   write buffer size.
  75:.\Generated_Source\PSoC5/Camera_I2C_MASTER.c **** *
  76:.\Generated_Source\PSoC5/Camera_I2C_MASTER.c **** * Reentrant:
  77:.\Generated_Source\PSoC5/Camera_I2C_MASTER.c **** *  No
  78:.\Generated_Source\PSoC5/Camera_I2C_MASTER.c **** *
  79:.\Generated_Source\PSoC5/Camera_I2C_MASTER.c **** *******************************************************************************/
  80:.\Generated_Source\PSoC5/Camera_I2C_MASTER.c **** uint8 Camera_I2C_MasterWriteBuf(uint8 slaveAddress, uint8 * wrData, uint8 cnt, uint8 mode)
  81:.\Generated_Source\PSoC5/Camera_I2C_MASTER.c ****       
  82:.\Generated_Source\PSoC5/Camera_I2C_MASTER.c **** {
  27              		.loc 1 82 0
  28              		.cfi_startproc
  29              		@ args = 0, pretend = 0, frame = 0
  30              		@ frame_needed = 0, uses_anonymous_args = 0
  31              		@ link register save eliminated.
  32              	.LVL0:
ARM GAS  C:\Users\Nick\AppData\Local\Temp\ccWNoN6f.s 			page 3


  33 0000 70B4     		push	{r4, r5, r6}
  34              		.cfi_def_cfa_offset 12
  35              		.cfi_offset 4, -12
  36              		.cfi_offset 5, -8
  37              		.cfi_offset 6, -4
  38              	.LVL1:
  83:.\Generated_Source\PSoC5/Camera_I2C_MASTER.c ****     uint8 errStatus;
  84:.\Generated_Source\PSoC5/Camera_I2C_MASTER.c **** 
  85:.\Generated_Source\PSoC5/Camera_I2C_MASTER.c ****     errStatus = Camera_I2C_MSTR_NOT_READY;
  86:.\Generated_Source\PSoC5/Camera_I2C_MASTER.c **** 
  87:.\Generated_Source\PSoC5/Camera_I2C_MASTER.c ****     if(NULL != wrData)
  39              		.loc 1 87 0
  40 0002 0D46     		mov	r5, r1
  41 0004 0029     		cmp	r1, #0
  42 0006 46D0     		beq	.L7
  88:.\Generated_Source\PSoC5/Camera_I2C_MASTER.c ****     {
  89:.\Generated_Source\PSoC5/Camera_I2C_MASTER.c ****         /* Check I2C state to allow transfer: valid states are IDLE or HALT */
  90:.\Generated_Source\PSoC5/Camera_I2C_MASTER.c ****         if(Camera_I2C_SM_IDLE == Camera_I2C_state)
  43              		.loc 1 90 0
  44 0008 254C     		ldr	r4, .L10
  45 000a 2478     		ldrb	r4, [r4]	@ zero_extendqisi2
  46 000c E4B2     		uxtb	r4, r4
  47 000e 102C     		cmp	r4, #16
  48 0010 06D1     		bne	.L3
  91:.\Generated_Source\PSoC5/Camera_I2C_MASTER.c ****         {
  92:.\Generated_Source\PSoC5/Camera_I2C_MASTER.c ****             /* Master is ready for transaction: check if bus is free */
  93:.\Generated_Source\PSoC5/Camera_I2C_MASTER.c ****             if(Camera_I2C_CHECK_BUS_FREE(Camera_I2C_MCSR_REG))
  49              		.loc 1 93 0
  50 0012 2449     		ldr	r1, .L10+4
  51              	.LVL2:
  52 0014 0978     		ldrb	r1, [r1]	@ zero_extendqisi2
  53 0016 11F0080F 		tst	r1, #8
  54 001a 11D1     		bne	.L8
  94:.\Generated_Source\PSoC5/Camera_I2C_MASTER.c ****             {
  95:.\Generated_Source\PSoC5/Camera_I2C_MASTER.c ****                 errStatus = Camera_I2C_MSTR_NO_ERROR;
  55              		.loc 1 95 0
  56 001c 0024     		movs	r4, #0
  57 001e 12E0     		b	.L4
  58              	.LVL3:
  59              	.L3:
  96:.\Generated_Source\PSoC5/Camera_I2C_MASTER.c ****             }
  97:.\Generated_Source\PSoC5/Camera_I2C_MASTER.c ****             else
  98:.\Generated_Source\PSoC5/Camera_I2C_MASTER.c ****             {
  99:.\Generated_Source\PSoC5/Camera_I2C_MASTER.c ****                 errStatus = Camera_I2C_MSTR_BUS_BUSY;
 100:.\Generated_Source\PSoC5/Camera_I2C_MASTER.c ****             }
 101:.\Generated_Source\PSoC5/Camera_I2C_MASTER.c ****         }
 102:.\Generated_Source\PSoC5/Camera_I2C_MASTER.c ****         else if(Camera_I2C_SM_MSTR_HALT == Camera_I2C_state)
  60              		.loc 1 102 0
  61 0020 1F49     		ldr	r1, .L10
  62              	.LVL4:
  63 0022 0978     		ldrb	r1, [r1]	@ zero_extendqisi2
  64 0024 C9B2     		uxtb	r1, r1
  65 0026 6029     		cmp	r1, #96
  66 0028 0CD1     		bne	.L9
  67              	.LVL5:
 103:.\Generated_Source\PSoC5/Camera_I2C_MASTER.c ****         {
 104:.\Generated_Source\PSoC5/Camera_I2C_MASTER.c ****             /* Master is ready and waiting for ReStart */
ARM GAS  C:\Users\Nick\AppData\Local\Temp\ccWNoN6f.s 			page 4


 105:.\Generated_Source\PSoC5/Camera_I2C_MASTER.c ****             errStatus = Camera_I2C_MSTR_NO_ERROR;
 106:.\Generated_Source\PSoC5/Camera_I2C_MASTER.c **** 
 107:.\Generated_Source\PSoC5/Camera_I2C_MASTER.c ****             Camera_I2C_ClearPendingInt();
  68              		.loc 1 107 0
  69 002a 4FF40044 		mov	r4, #32768
  70 002e 1E49     		ldr	r1, .L10+8
  71 0030 0C60     		str	r4, [r1]
 108:.\Generated_Source\PSoC5/Camera_I2C_MASTER.c ****             Camera_I2C_mstrStatus &= (uint8) ~Camera_I2C_MSTAT_XFER_HALT;
  72              		.loc 1 108 0
  73 0032 1E49     		ldr	r1, .L10+12
  74 0034 0C78     		ldrb	r4, [r1]	@ zero_extendqisi2
  75 0036 04F0F704 		and	r4, r4, #247
  76 003a 0C70     		strb	r4, [r1]
 105:.\Generated_Source\PSoC5/Camera_I2C_MASTER.c ****             errStatus = Camera_I2C_MSTR_NO_ERROR;
  77              		.loc 1 105 0
  78 003c 0024     		movs	r4, #0
  79 003e 02E0     		b	.L4
  80              	.LVL6:
  81              	.L8:
  99:.\Generated_Source\PSoC5/Camera_I2C_MASTER.c ****                 errStatus = Camera_I2C_MSTR_BUS_BUSY;
  82              		.loc 1 99 0
  83 0040 0124     		movs	r4, #1
  84 0042 00E0     		b	.L4
  85              	.L9:
  85:.\Generated_Source\PSoC5/Camera_I2C_MASTER.c ****     errStatus = Camera_I2C_MSTR_NOT_READY;
  86              		.loc 1 85 0
  87 0044 0224     		movs	r4, #2
  88              	.LVL7:
  89              	.L4:
 109:.\Generated_Source\PSoC5/Camera_I2C_MASTER.c ****         }
 110:.\Generated_Source\PSoC5/Camera_I2C_MASTER.c ****         else
 111:.\Generated_Source\PSoC5/Camera_I2C_MASTER.c ****         {
 112:.\Generated_Source\PSoC5/Camera_I2C_MASTER.c ****             /* errStatus = Camera_I2C_MSTR_NOT_READY was send before */
 113:.\Generated_Source\PSoC5/Camera_I2C_MASTER.c ****         }
 114:.\Generated_Source\PSoC5/Camera_I2C_MASTER.c **** 
 115:.\Generated_Source\PSoC5/Camera_I2C_MASTER.c ****         if(Camera_I2C_MSTR_NO_ERROR == errStatus)
  90              		.loc 1 115 0
  91 0046 3CBB     		cbnz	r4, .L2
 116:.\Generated_Source\PSoC5/Camera_I2C_MASTER.c ****         {
 117:.\Generated_Source\PSoC5/Camera_I2C_MASTER.c ****             /* Set state to start write transaction */
 118:.\Generated_Source\PSoC5/Camera_I2C_MASTER.c ****             Camera_I2C_state = Camera_I2C_SM_MSTR_WR_ADDR;
  92              		.loc 1 118 0
  93 0048 4526     		movs	r6, #69
  94 004a 1549     		ldr	r1, .L10
  95 004c 0E70     		strb	r6, [r1]
 119:.\Generated_Source\PSoC5/Camera_I2C_MASTER.c **** 
 120:.\Generated_Source\PSoC5/Camera_I2C_MASTER.c ****             /* Prepare write buffer */
 121:.\Generated_Source\PSoC5/Camera_I2C_MASTER.c ****             Camera_I2C_mstrWrBufIndex = 0u;
  96              		.loc 1 121 0
  97 004e 0026     		movs	r6, #0
  98 0050 1749     		ldr	r1, .L10+16
  99 0052 0E70     		strb	r6, [r1]
 122:.\Generated_Source\PSoC5/Camera_I2C_MASTER.c ****             Camera_I2C_mstrWrBufSize  = cnt;
 100              		.loc 1 122 0
 101 0054 1749     		ldr	r1, .L10+20
 102 0056 0A70     		strb	r2, [r1]
 123:.\Generated_Source\PSoC5/Camera_I2C_MASTER.c ****             Camera_I2C_mstrWrBufPtr   = (volatile uint8 *) wrData;
ARM GAS  C:\Users\Nick\AppData\Local\Temp\ccWNoN6f.s 			page 5


 103              		.loc 1 123 0
 104 0058 174A     		ldr	r2, .L10+24
 105              	.LVL8:
 106 005a 1560     		str	r5, [r2]
 124:.\Generated_Source\PSoC5/Camera_I2C_MASTER.c **** 
 125:.\Generated_Source\PSoC5/Camera_I2C_MASTER.c ****             /* Set end of transaction flag: Stop or Halt (following ReStart) */
 126:.\Generated_Source\PSoC5/Camera_I2C_MASTER.c ****             Camera_I2C_mstrControl = mode;
 107              		.loc 1 126 0
 108 005c 174A     		ldr	r2, .L10+28
 109 005e 1370     		strb	r3, [r2]
 110              	.LVL9:
 127:.\Generated_Source\PSoC5/Camera_I2C_MASTER.c **** 
 128:.\Generated_Source\PSoC5/Camera_I2C_MASTER.c ****             /* Clear write status history */
 129:.\Generated_Source\PSoC5/Camera_I2C_MASTER.c ****             Camera_I2C_mstrStatus &= (uint8) ~Camera_I2C_MSTAT_WR_CMPLT;
 111              		.loc 1 129 0
 112 0060 124A     		ldr	r2, .L10+12
 113 0062 1178     		ldrb	r1, [r2]	@ zero_extendqisi2
 114 0064 01F0FD01 		and	r1, r1, #253
 115 0068 1170     		strb	r1, [r2]
 130:.\Generated_Source\PSoC5/Camera_I2C_MASTER.c **** 
 131:.\Generated_Source\PSoC5/Camera_I2C_MASTER.c ****             /* Hardware actions: write address and generate Start or ReStart */
 132:.\Generated_Source\PSoC5/Camera_I2C_MASTER.c ****             Camera_I2C_DATA_REG = (uint8) (slaveAddress << Camera_I2C_SLAVE_ADDR_SHIFT);
 116              		.loc 1 132 0
 117 006a 4000     		lsls	r0, r0, #1
 118              	.LVL10:
 119 006c C0B2     		uxtb	r0, r0
 120 006e 144A     		ldr	r2, .L10+32
 121 0070 1070     		strb	r0, [r2]
 133:.\Generated_Source\PSoC5/Camera_I2C_MASTER.c **** 
 134:.\Generated_Source\PSoC5/Camera_I2C_MASTER.c ****             if(Camera_I2C_CHECK_RESTART(mode))
 122              		.loc 1 134 0
 123 0072 13F0010F 		tst	r3, #1
 124 0076 06D0     		beq	.L5
 135:.\Generated_Source\PSoC5/Camera_I2C_MASTER.c ****             {
 136:.\Generated_Source\PSoC5/Camera_I2C_MASTER.c ****                 Camera_I2C_GENERATE_RESTART;
 125              		.loc 1 136 0
 126 0078 1222     		movs	r2, #18
 127 007a 0A4B     		ldr	r3, .L10+4
 128              	.LVL11:
 129 007c 1A70     		strb	r2, [r3]
 130 007e 0422     		movs	r2, #4
 131 0080 023B     		subs	r3, r3, #2
 132 0082 1A70     		strb	r2, [r3]
 133 0084 02E0     		b	.L6
 134              	.LVL12:
 135              	.L5:
 137:.\Generated_Source\PSoC5/Camera_I2C_MASTER.c ****             }
 138:.\Generated_Source\PSoC5/Camera_I2C_MASTER.c ****             else
 139:.\Generated_Source\PSoC5/Camera_I2C_MASTER.c ****             {
 140:.\Generated_Source\PSoC5/Camera_I2C_MASTER.c ****                 Camera_I2C_GENERATE_START;
 136              		.loc 1 140 0
 137 0086 0122     		movs	r2, #1
 138 0088 064B     		ldr	r3, .L10+4
 139              	.LVL13:
 140 008a 1A70     		strb	r2, [r3]
 141              	.L6:
 141:.\Generated_Source\PSoC5/Camera_I2C_MASTER.c ****             }
ARM GAS  C:\Users\Nick\AppData\Local\Temp\ccWNoN6f.s 			page 6


 142:.\Generated_Source\PSoC5/Camera_I2C_MASTER.c **** 
 143:.\Generated_Source\PSoC5/Camera_I2C_MASTER.c ****             /* Enable interrupt to complete transfer */
 144:.\Generated_Source\PSoC5/Camera_I2C_MASTER.c ****             Camera_I2C_EnableInt();
 142              		.loc 1 144 0
 143 008c 4FF40042 		mov	r2, #32768
 144 0090 0C4B     		ldr	r3, .L10+36
 145 0092 1A60     		str	r2, [r3]
 146 0094 00E0     		b	.L2
 147              	.LVL14:
 148              	.L7:
  85:.\Generated_Source\PSoC5/Camera_I2C_MASTER.c ****     errStatus = Camera_I2C_MSTR_NOT_READY;
 149              		.loc 1 85 0
 150 0096 0224     		movs	r4, #2
 151              	.LVL15:
 152              	.L2:
 145:.\Generated_Source\PSoC5/Camera_I2C_MASTER.c ****         }
 146:.\Generated_Source\PSoC5/Camera_I2C_MASTER.c ****     }
 147:.\Generated_Source\PSoC5/Camera_I2C_MASTER.c **** 
 148:.\Generated_Source\PSoC5/Camera_I2C_MASTER.c ****     return(errStatus);
 149:.\Generated_Source\PSoC5/Camera_I2C_MASTER.c **** }
 153              		.loc 1 149 0
 154 0098 2046     		mov	r0, r4
 155 009a 70BC     		pop	{r4, r5, r6}
 156              	.LVL16:
 157 009c 7047     		bx	lr
 158              	.L11:
 159 009e 00BF     		.align	2
 160              	.L10:
 161 00a0 00000000 		.word	Camera_I2C_state
 162 00a4 D9490040 		.word	1073760729
 163 00a8 80E200E0 		.word	-536812928
 164 00ac 00000000 		.word	Camera_I2C_mstrStatus
 165 00b0 00000000 		.word	Camera_I2C_mstrWrBufIndex
 166 00b4 00000000 		.word	Camera_I2C_mstrWrBufSize
 167 00b8 00000000 		.word	Camera_I2C_mstrWrBufPtr
 168 00bc 00000000 		.word	Camera_I2C_mstrControl
 169 00c0 D8490040 		.word	1073760728
 170 00c4 00E100E0 		.word	-536813312
 171              		.cfi_endproc
 172              	.LFE0:
 173              		.size	Camera_I2C_MasterWriteBuf, .-Camera_I2C_MasterWriteBuf
 174              		.section	.text.Camera_I2C_MasterReadBuf,"ax",%progbits
 175              		.align	2
 176              		.global	Camera_I2C_MasterReadBuf
 177              		.thumb
 178              		.thumb_func
 179              		.type	Camera_I2C_MasterReadBuf, %function
 180              	Camera_I2C_MasterReadBuf:
 181              	.LFB1:
 150:.\Generated_Source\PSoC5/Camera_I2C_MASTER.c **** 
 151:.\Generated_Source\PSoC5/Camera_I2C_MASTER.c **** 
 152:.\Generated_Source\PSoC5/Camera_I2C_MASTER.c **** /*******************************************************************************
 153:.\Generated_Source\PSoC5/Camera_I2C_MASTER.c **** * Function Name: Camera_I2C_MasterReadBuf
 154:.\Generated_Source\PSoC5/Camera_I2C_MASTER.c **** ********************************************************************************
 155:.\Generated_Source\PSoC5/Camera_I2C_MASTER.c **** *
 156:.\Generated_Source\PSoC5/Camera_I2C_MASTER.c **** * Summary:
 157:.\Generated_Source\PSoC5/Camera_I2C_MASTER.c **** *  Automatically writes an entire buffer of data to a slave device. Once the
ARM GAS  C:\Users\Nick\AppData\Local\Temp\ccWNoN6f.s 			page 7


 158:.\Generated_Source\PSoC5/Camera_I2C_MASTER.c **** *  data transfer is initiated by this function, further data transfer is handled
 159:.\Generated_Source\PSoC5/Camera_I2C_MASTER.c **** *  by the included ISR in byte by byte mode.
 160:.\Generated_Source\PSoC5/Camera_I2C_MASTER.c **** *
 161:.\Generated_Source\PSoC5/Camera_I2C_MASTER.c **** * Parameters:
 162:.\Generated_Source\PSoC5/Camera_I2C_MASTER.c **** *  slaveAddr: 7-bit slave address.
 163:.\Generated_Source\PSoC5/Camera_I2C_MASTER.c **** *  xferData:  Pointer to buffer where to put data from slave.
 164:.\Generated_Source\PSoC5/Camera_I2C_MASTER.c **** *  cnt:       Size of buffer to read.
 165:.\Generated_Source\PSoC5/Camera_I2C_MASTER.c **** *  mode:      Transfer mode defines: start or restart condition generation at
 166:.\Generated_Source\PSoC5/Camera_I2C_MASTER.c **** *             begin of the transfer and complete the transfer or halt before
 167:.\Generated_Source\PSoC5/Camera_I2C_MASTER.c **** *             generating a stop.
 168:.\Generated_Source\PSoC5/Camera_I2C_MASTER.c **** *
 169:.\Generated_Source\PSoC5/Camera_I2C_MASTER.c **** * Return:
 170:.\Generated_Source\PSoC5/Camera_I2C_MASTER.c **** *  Status error - Zero means no errors.
 171:.\Generated_Source\PSoC5/Camera_I2C_MASTER.c **** *
 172:.\Generated_Source\PSoC5/Camera_I2C_MASTER.c **** * Side Effects:
 173:.\Generated_Source\PSoC5/Camera_I2C_MASTER.c **** *  The included ISR will start a transfer after start or restart condition is
 174:.\Generated_Source\PSoC5/Camera_I2C_MASTER.c **** *  generated.
 175:.\Generated_Source\PSoC5/Camera_I2C_MASTER.c **** *
 176:.\Generated_Source\PSoC5/Camera_I2C_MASTER.c **** * Global variables:
 177:.\Generated_Source\PSoC5/Camera_I2C_MASTER.c **** *  Camera_I2C_mstrStatus  - The global variable used to store a current
 178:.\Generated_Source\PSoC5/Camera_I2C_MASTER.c **** *                                 status of the I2C Master.
 179:.\Generated_Source\PSoC5/Camera_I2C_MASTER.c **** *  Camera_I2C_state       - The global variable used to store a current
 180:.\Generated_Source\PSoC5/Camera_I2C_MASTER.c **** *                                 state of the software FSM.
 181:.\Generated_Source\PSoC5/Camera_I2C_MASTER.c **** *  Camera_I2C_mstrControl - The global variable used to control the master
 182:.\Generated_Source\PSoC5/Camera_I2C_MASTER.c **** *                                 end of a transaction with or without
 183:.\Generated_Source\PSoC5/Camera_I2C_MASTER.c **** *                                 Stop generation.
 184:.\Generated_Source\PSoC5/Camera_I2C_MASTER.c **** *  Camera_I2C_mstrRdBufPtr - The global variable used to store a pointer
 185:.\Generated_Source\PSoC5/Camera_I2C_MASTER.c **** *                                  to the master write buffer.
 186:.\Generated_Source\PSoC5/Camera_I2C_MASTER.c **** *  Camera_I2C_mstrRdBufIndex - The global variable  used to store a
 187:.\Generated_Source\PSoC5/Camera_I2C_MASTER.c **** *                                    current index within the master
 188:.\Generated_Source\PSoC5/Camera_I2C_MASTER.c **** *                                    write buffer.
 189:.\Generated_Source\PSoC5/Camera_I2C_MASTER.c **** *  Camera_I2C_mstrRdBufSize - The global variable used to store a master
 190:.\Generated_Source\PSoC5/Camera_I2C_MASTER.c **** *                                   write buffer size.
 191:.\Generated_Source\PSoC5/Camera_I2C_MASTER.c **** *
 192:.\Generated_Source\PSoC5/Camera_I2C_MASTER.c **** * Reentrant:
 193:.\Generated_Source\PSoC5/Camera_I2C_MASTER.c **** *  No.
 194:.\Generated_Source\PSoC5/Camera_I2C_MASTER.c **** *
 195:.\Generated_Source\PSoC5/Camera_I2C_MASTER.c **** *******************************************************************************/
 196:.\Generated_Source\PSoC5/Camera_I2C_MASTER.c **** uint8 Camera_I2C_MasterReadBuf(uint8 slaveAddress, uint8 * rdData, uint8 cnt, uint8 mode)
 197:.\Generated_Source\PSoC5/Camera_I2C_MASTER.c ****       
 198:.\Generated_Source\PSoC5/Camera_I2C_MASTER.c **** {
 182              		.loc 1 198 0
 183              		.cfi_startproc
 184              		@ args = 0, pretend = 0, frame = 0
 185              		@ frame_needed = 0, uses_anonymous_args = 0
 186              		@ link register save eliminated.
 187              	.LVL17:
 188 0000 70B4     		push	{r4, r5, r6}
 189              		.cfi_def_cfa_offset 12
 190              		.cfi_offset 4, -12
 191              		.cfi_offset 5, -8
 192              		.cfi_offset 6, -4
 193              	.LVL18:
 199:.\Generated_Source\PSoC5/Camera_I2C_MASTER.c ****     uint8 errStatus;
 200:.\Generated_Source\PSoC5/Camera_I2C_MASTER.c **** 
 201:.\Generated_Source\PSoC5/Camera_I2C_MASTER.c ****     errStatus = Camera_I2C_MSTR_NOT_READY;
 202:.\Generated_Source\PSoC5/Camera_I2C_MASTER.c **** 
ARM GAS  C:\Users\Nick\AppData\Local\Temp\ccWNoN6f.s 			page 8


 203:.\Generated_Source\PSoC5/Camera_I2C_MASTER.c ****     if(NULL != rdData)
 194              		.loc 1 203 0
 195 0002 0D46     		mov	r5, r1
 196 0004 0029     		cmp	r1, #0
 197 0006 48D0     		beq	.L18
 204:.\Generated_Source\PSoC5/Camera_I2C_MASTER.c ****     {
 205:.\Generated_Source\PSoC5/Camera_I2C_MASTER.c ****         /* Check I2C state to allow transfer: valid states are IDLE or HALT */
 206:.\Generated_Source\PSoC5/Camera_I2C_MASTER.c ****         if(Camera_I2C_SM_IDLE == Camera_I2C_state)
 198              		.loc 1 206 0
 199 0008 264C     		ldr	r4, .L21
 200 000a 2478     		ldrb	r4, [r4]	@ zero_extendqisi2
 201 000c E4B2     		uxtb	r4, r4
 202 000e 102C     		cmp	r4, #16
 203 0010 06D1     		bne	.L14
 207:.\Generated_Source\PSoC5/Camera_I2C_MASTER.c ****         {
 208:.\Generated_Source\PSoC5/Camera_I2C_MASTER.c ****             /* Master is ready to transaction: check if bus is free */
 209:.\Generated_Source\PSoC5/Camera_I2C_MASTER.c ****             if(Camera_I2C_CHECK_BUS_FREE(Camera_I2C_MCSR_REG))
 204              		.loc 1 209 0
 205 0012 2549     		ldr	r1, .L21+4
 206              	.LVL19:
 207 0014 0978     		ldrb	r1, [r1]	@ zero_extendqisi2
 208 0016 11F0080F 		tst	r1, #8
 209 001a 11D1     		bne	.L19
 210:.\Generated_Source\PSoC5/Camera_I2C_MASTER.c ****             {
 211:.\Generated_Source\PSoC5/Camera_I2C_MASTER.c ****                 errStatus = Camera_I2C_MSTR_NO_ERROR;
 210              		.loc 1 211 0
 211 001c 0024     		movs	r4, #0
 212 001e 12E0     		b	.L15
 213              	.LVL20:
 214              	.L14:
 212:.\Generated_Source\PSoC5/Camera_I2C_MASTER.c ****             }
 213:.\Generated_Source\PSoC5/Camera_I2C_MASTER.c ****             else
 214:.\Generated_Source\PSoC5/Camera_I2C_MASTER.c ****             {
 215:.\Generated_Source\PSoC5/Camera_I2C_MASTER.c ****                 errStatus = Camera_I2C_MSTR_BUS_BUSY;
 216:.\Generated_Source\PSoC5/Camera_I2C_MASTER.c ****             }
 217:.\Generated_Source\PSoC5/Camera_I2C_MASTER.c ****         }
 218:.\Generated_Source\PSoC5/Camera_I2C_MASTER.c ****         else if(Camera_I2C_SM_MSTR_HALT == Camera_I2C_state)
 215              		.loc 1 218 0
 216 0020 2049     		ldr	r1, .L21
 217              	.LVL21:
 218 0022 0978     		ldrb	r1, [r1]	@ zero_extendqisi2
 219 0024 C9B2     		uxtb	r1, r1
 220 0026 6029     		cmp	r1, #96
 221 0028 0CD1     		bne	.L20
 222              	.LVL22:
 219:.\Generated_Source\PSoC5/Camera_I2C_MASTER.c ****         {
 220:.\Generated_Source\PSoC5/Camera_I2C_MASTER.c ****             /* Master is ready and waiting for ReStart */
 221:.\Generated_Source\PSoC5/Camera_I2C_MASTER.c ****             errStatus = Camera_I2C_MSTR_NO_ERROR;
 222:.\Generated_Source\PSoC5/Camera_I2C_MASTER.c **** 
 223:.\Generated_Source\PSoC5/Camera_I2C_MASTER.c ****             Camera_I2C_ClearPendingInt();
 223              		.loc 1 223 0
 224 002a 4FF40044 		mov	r4, #32768
 225 002e 1F49     		ldr	r1, .L21+8
 226 0030 0C60     		str	r4, [r1]
 224:.\Generated_Source\PSoC5/Camera_I2C_MASTER.c ****             Camera_I2C_mstrStatus &= (uint8) ~Camera_I2C_MSTAT_XFER_HALT;
 227              		.loc 1 224 0
 228 0032 1F49     		ldr	r1, .L21+12
ARM GAS  C:\Users\Nick\AppData\Local\Temp\ccWNoN6f.s 			page 9


 229 0034 0C78     		ldrb	r4, [r1]	@ zero_extendqisi2
 230 0036 04F0F704 		and	r4, r4, #247
 231 003a 0C70     		strb	r4, [r1]
 221:.\Generated_Source\PSoC5/Camera_I2C_MASTER.c ****             errStatus = Camera_I2C_MSTR_NO_ERROR;
 232              		.loc 1 221 0
 233 003c 0024     		movs	r4, #0
 234 003e 02E0     		b	.L15
 235              	.LVL23:
 236              	.L19:
 215:.\Generated_Source\PSoC5/Camera_I2C_MASTER.c ****                 errStatus = Camera_I2C_MSTR_BUS_BUSY;
 237              		.loc 1 215 0
 238 0040 0124     		movs	r4, #1
 239 0042 00E0     		b	.L15
 240              	.L20:
 201:.\Generated_Source\PSoC5/Camera_I2C_MASTER.c ****     errStatus = Camera_I2C_MSTR_NOT_READY;
 241              		.loc 1 201 0
 242 0044 0224     		movs	r4, #2
 243              	.LVL24:
 244              	.L15:
 225:.\Generated_Source\PSoC5/Camera_I2C_MASTER.c ****         }
 226:.\Generated_Source\PSoC5/Camera_I2C_MASTER.c ****         else
 227:.\Generated_Source\PSoC5/Camera_I2C_MASTER.c ****         {
 228:.\Generated_Source\PSoC5/Camera_I2C_MASTER.c ****             /* errStatus = Camera_I2C_MSTR_NOT_READY was set before */
 229:.\Generated_Source\PSoC5/Camera_I2C_MASTER.c ****         }
 230:.\Generated_Source\PSoC5/Camera_I2C_MASTER.c **** 
 231:.\Generated_Source\PSoC5/Camera_I2C_MASTER.c ****         if(Camera_I2C_MSTR_NO_ERROR == errStatus)
 245              		.loc 1 231 0
 246 0046 4CBB     		cbnz	r4, .L13
 232:.\Generated_Source\PSoC5/Camera_I2C_MASTER.c ****         {
 233:.\Generated_Source\PSoC5/Camera_I2C_MASTER.c ****             /* Set state to start write transaction */
 234:.\Generated_Source\PSoC5/Camera_I2C_MASTER.c ****             Camera_I2C_state = Camera_I2C_SM_MSTR_RD_ADDR;
 247              		.loc 1 234 0
 248 0048 4926     		movs	r6, #73
 249 004a 1649     		ldr	r1, .L21
 250 004c 0E70     		strb	r6, [r1]
 235:.\Generated_Source\PSoC5/Camera_I2C_MASTER.c **** 
 236:.\Generated_Source\PSoC5/Camera_I2C_MASTER.c ****             /* Prepare read buffer */
 237:.\Generated_Source\PSoC5/Camera_I2C_MASTER.c ****             Camera_I2C_mstrRdBufIndex  = 0u;
 251              		.loc 1 237 0
 252 004e 0026     		movs	r6, #0
 253 0050 1849     		ldr	r1, .L21+16
 254 0052 0E70     		strb	r6, [r1]
 238:.\Generated_Source\PSoC5/Camera_I2C_MASTER.c ****             Camera_I2C_mstrRdBufSize   = cnt;
 255              		.loc 1 238 0
 256 0054 1849     		ldr	r1, .L21+20
 257 0056 0A70     		strb	r2, [r1]
 239:.\Generated_Source\PSoC5/Camera_I2C_MASTER.c ****             Camera_I2C_mstrRdBufPtr    = (volatile uint8 *) rdData;
 258              		.loc 1 239 0
 259 0058 184A     		ldr	r2, .L21+24
 260              	.LVL25:
 261 005a 1560     		str	r5, [r2]
 240:.\Generated_Source\PSoC5/Camera_I2C_MASTER.c **** 
 241:.\Generated_Source\PSoC5/Camera_I2C_MASTER.c ****             /* Set end of transaction flag: Stop or Halt (following ReStart) */
 242:.\Generated_Source\PSoC5/Camera_I2C_MASTER.c ****             Camera_I2C_mstrControl = mode;
 262              		.loc 1 242 0
 263 005c 184A     		ldr	r2, .L21+28
 264 005e 1370     		strb	r3, [r2]
ARM GAS  C:\Users\Nick\AppData\Local\Temp\ccWNoN6f.s 			page 10


 265              	.LVL26:
 243:.\Generated_Source\PSoC5/Camera_I2C_MASTER.c **** 
 244:.\Generated_Source\PSoC5/Camera_I2C_MASTER.c ****             /* Clear read status history */
 245:.\Generated_Source\PSoC5/Camera_I2C_MASTER.c ****             Camera_I2C_mstrStatus &= (uint8) ~Camera_I2C_MSTAT_RD_CMPLT;
 266              		.loc 1 245 0
 267 0060 134A     		ldr	r2, .L21+12
 268 0062 1178     		ldrb	r1, [r2]	@ zero_extendqisi2
 269 0064 01F0FE01 		and	r1, r1, #254
 270 0068 1170     		strb	r1, [r2]
 246:.\Generated_Source\PSoC5/Camera_I2C_MASTER.c **** 
 247:.\Generated_Source\PSoC5/Camera_I2C_MASTER.c ****             /* Hardware actions: write address and generate Start or ReStart */
 248:.\Generated_Source\PSoC5/Camera_I2C_MASTER.c ****             Camera_I2C_DATA_REG = ((uint8) (slaveAddress << Camera_I2C_SLAVE_ADDR_SHIFT) |
 271              		.loc 1 248 0
 272 006a 4000     		lsls	r0, r0, #1
 273              	.LVL27:
 274 006c C0B2     		uxtb	r0, r0
 275 006e 40F00100 		orr	r0, r0, #1
 276 0072 144A     		ldr	r2, .L21+32
 277 0074 1070     		strb	r0, [r2]
 249:.\Generated_Source\PSoC5/Camera_I2C_MASTER.c ****                                                   Camera_I2C_READ_FLAG);
 250:.\Generated_Source\PSoC5/Camera_I2C_MASTER.c **** 
 251:.\Generated_Source\PSoC5/Camera_I2C_MASTER.c ****             if(Camera_I2C_CHECK_RESTART(mode))
 278              		.loc 1 251 0
 279 0076 13F0010F 		tst	r3, #1
 280 007a 06D0     		beq	.L16
 252:.\Generated_Source\PSoC5/Camera_I2C_MASTER.c ****             {
 253:.\Generated_Source\PSoC5/Camera_I2C_MASTER.c ****                 Camera_I2C_GENERATE_RESTART;
 281              		.loc 1 253 0
 282 007c 1222     		movs	r2, #18
 283 007e 0A4B     		ldr	r3, .L21+4
 284              	.LVL28:
 285 0080 1A70     		strb	r2, [r3]
 286 0082 0422     		movs	r2, #4
 287 0084 023B     		subs	r3, r3, #2
 288 0086 1A70     		strb	r2, [r3]
 289 0088 02E0     		b	.L17
 290              	.LVL29:
 291              	.L16:
 254:.\Generated_Source\PSoC5/Camera_I2C_MASTER.c ****             }
 255:.\Generated_Source\PSoC5/Camera_I2C_MASTER.c ****             else
 256:.\Generated_Source\PSoC5/Camera_I2C_MASTER.c ****             {
 257:.\Generated_Source\PSoC5/Camera_I2C_MASTER.c ****                 Camera_I2C_GENERATE_START;
 292              		.loc 1 257 0
 293 008a 0122     		movs	r2, #1
 294 008c 064B     		ldr	r3, .L21+4
 295              	.LVL30:
 296 008e 1A70     		strb	r2, [r3]
 297              	.L17:
 258:.\Generated_Source\PSoC5/Camera_I2C_MASTER.c ****             }
 259:.\Generated_Source\PSoC5/Camera_I2C_MASTER.c **** 
 260:.\Generated_Source\PSoC5/Camera_I2C_MASTER.c ****             /* Enable interrupt to complete transfer */
 261:.\Generated_Source\PSoC5/Camera_I2C_MASTER.c ****             Camera_I2C_EnableInt();
 298              		.loc 1 261 0
 299 0090 4FF40042 		mov	r2, #32768
 300 0094 0C4B     		ldr	r3, .L21+36
 301 0096 1A60     		str	r2, [r3]
 302 0098 00E0     		b	.L13
ARM GAS  C:\Users\Nick\AppData\Local\Temp\ccWNoN6f.s 			page 11


 303              	.LVL31:
 304              	.L18:
 201:.\Generated_Source\PSoC5/Camera_I2C_MASTER.c ****     errStatus = Camera_I2C_MSTR_NOT_READY;
 305              		.loc 1 201 0
 306 009a 0224     		movs	r4, #2
 307              	.LVL32:
 308              	.L13:
 262:.\Generated_Source\PSoC5/Camera_I2C_MASTER.c ****         }
 263:.\Generated_Source\PSoC5/Camera_I2C_MASTER.c ****     }
 264:.\Generated_Source\PSoC5/Camera_I2C_MASTER.c **** 
 265:.\Generated_Source\PSoC5/Camera_I2C_MASTER.c ****     return(errStatus);
 266:.\Generated_Source\PSoC5/Camera_I2C_MASTER.c **** }
 309              		.loc 1 266 0
 310 009c 2046     		mov	r0, r4
 311 009e 70BC     		pop	{r4, r5, r6}
 312              	.LVL33:
 313 00a0 7047     		bx	lr
 314              	.L22:
 315 00a2 00BF     		.align	2
 316              	.L21:
 317 00a4 00000000 		.word	Camera_I2C_state
 318 00a8 D9490040 		.word	1073760729
 319 00ac 80E200E0 		.word	-536812928
 320 00b0 00000000 		.word	Camera_I2C_mstrStatus
 321 00b4 00000000 		.word	Camera_I2C_mstrRdBufIndex
 322 00b8 00000000 		.word	Camera_I2C_mstrRdBufSize
 323 00bc 00000000 		.word	Camera_I2C_mstrRdBufPtr
 324 00c0 00000000 		.word	Camera_I2C_mstrControl
 325 00c4 D8490040 		.word	1073760728
 326 00c8 00E100E0 		.word	-536813312
 327              		.cfi_endproc
 328              	.LFE1:
 329              		.size	Camera_I2C_MasterReadBuf, .-Camera_I2C_MasterReadBuf
 330              		.section	.text.Camera_I2C_MasterSendStart,"ax",%progbits
 331              		.align	2
 332              		.global	Camera_I2C_MasterSendStart
 333              		.thumb
 334              		.thumb_func
 335              		.type	Camera_I2C_MasterSendStart, %function
 336              	Camera_I2C_MasterSendStart:
 337              	.LFB2:
 267:.\Generated_Source\PSoC5/Camera_I2C_MASTER.c **** 
 268:.\Generated_Source\PSoC5/Camera_I2C_MASTER.c **** 
 269:.\Generated_Source\PSoC5/Camera_I2C_MASTER.c **** /*******************************************************************************
 270:.\Generated_Source\PSoC5/Camera_I2C_MASTER.c **** * Function Name: Camera_I2C_MasterSendStart
 271:.\Generated_Source\PSoC5/Camera_I2C_MASTER.c **** ********************************************************************************
 272:.\Generated_Source\PSoC5/Camera_I2C_MASTER.c **** *
 273:.\Generated_Source\PSoC5/Camera_I2C_MASTER.c **** * Summary:
 274:.\Generated_Source\PSoC5/Camera_I2C_MASTER.c **** *  Generates Start condition and sends slave address with read/write bit.
 275:.\Generated_Source\PSoC5/Camera_I2C_MASTER.c **** *
 276:.\Generated_Source\PSoC5/Camera_I2C_MASTER.c **** * Parameters:
 277:.\Generated_Source\PSoC5/Camera_I2C_MASTER.c **** *  slaveAddress:  7-bit slave address.
 278:.\Generated_Source\PSoC5/Camera_I2C_MASTER.c **** *  R_nW:          Zero, send write command, non-zero send read command.
 279:.\Generated_Source\PSoC5/Camera_I2C_MASTER.c **** *
 280:.\Generated_Source\PSoC5/Camera_I2C_MASTER.c **** * Return:
 281:.\Generated_Source\PSoC5/Camera_I2C_MASTER.c **** *  Status error - Zero means no errors.
 282:.\Generated_Source\PSoC5/Camera_I2C_MASTER.c **** *
ARM GAS  C:\Users\Nick\AppData\Local\Temp\ccWNoN6f.s 			page 12


 283:.\Generated_Source\PSoC5/Camera_I2C_MASTER.c **** * Side Effects:
 284:.\Generated_Source\PSoC5/Camera_I2C_MASTER.c **** *  This function is entered without a "byte complete" bit set in the I2C_CSR
 285:.\Generated_Source\PSoC5/Camera_I2C_MASTER.c **** *  register. It does not exit until it is set.
 286:.\Generated_Source\PSoC5/Camera_I2C_MASTER.c **** *
 287:.\Generated_Source\PSoC5/Camera_I2C_MASTER.c **** * Global variables:
 288:.\Generated_Source\PSoC5/Camera_I2C_MASTER.c **** *  Camera_I2C_state - The global variable used to store a current state of
 289:.\Generated_Source\PSoC5/Camera_I2C_MASTER.c **** *                           the software FSM.
 290:.\Generated_Source\PSoC5/Camera_I2C_MASTER.c **** *
 291:.\Generated_Source\PSoC5/Camera_I2C_MASTER.c **** * Reentrant:
 292:.\Generated_Source\PSoC5/Camera_I2C_MASTER.c **** *  No.
 293:.\Generated_Source\PSoC5/Camera_I2C_MASTER.c **** *
 294:.\Generated_Source\PSoC5/Camera_I2C_MASTER.c **** *******************************************************************************/
 295:.\Generated_Source\PSoC5/Camera_I2C_MASTER.c **** uint8 Camera_I2C_MasterSendStart(uint8 slaveAddress, uint8 R_nW)
 296:.\Generated_Source\PSoC5/Camera_I2C_MASTER.c ****       
 297:.\Generated_Source\PSoC5/Camera_I2C_MASTER.c **** {
 338              		.loc 1 297 0
 339              		.cfi_startproc
 340              		@ args = 0, pretend = 0, frame = 0
 341              		@ frame_needed = 0, uses_anonymous_args = 0
 342              		@ link register save eliminated.
 343              	.LVL34:
 298:.\Generated_Source\PSoC5/Camera_I2C_MASTER.c ****     uint8 errStatus;
 299:.\Generated_Source\PSoC5/Camera_I2C_MASTER.c **** 
 300:.\Generated_Source\PSoC5/Camera_I2C_MASTER.c ****     errStatus = Camera_I2C_MSTR_NOT_READY;
 301:.\Generated_Source\PSoC5/Camera_I2C_MASTER.c **** 
 302:.\Generated_Source\PSoC5/Camera_I2C_MASTER.c ****     /* If IDLE, check if bus is free */
 303:.\Generated_Source\PSoC5/Camera_I2C_MASTER.c ****     if(Camera_I2C_SM_IDLE == Camera_I2C_state)
 344              		.loc 1 303 0
 345 0000 1A4B     		ldr	r3, .L32
 346 0002 1B78     		ldrb	r3, [r3]	@ zero_extendqisi2
 347 0004 DBB2     		uxtb	r3, r3
 348 0006 102B     		cmp	r3, #16
 349 0008 29D1     		bne	.L28
 304:.\Generated_Source\PSoC5/Camera_I2C_MASTER.c ****     {
 305:.\Generated_Source\PSoC5/Camera_I2C_MASTER.c ****         /* If bus is free, generate Start condition */
 306:.\Generated_Source\PSoC5/Camera_I2C_MASTER.c ****         if(Camera_I2C_CHECK_BUS_FREE(Camera_I2C_MCSR_REG))
 350              		.loc 1 306 0
 351 000a 194B     		ldr	r3, .L32+4
 352 000c 1B78     		ldrb	r3, [r3]	@ zero_extendqisi2
 353 000e 13F0080F 		tst	r3, #8
 354 0012 26D1     		bne	.L29
 307:.\Generated_Source\PSoC5/Camera_I2C_MASTER.c ****         {
 308:.\Generated_Source\PSoC5/Camera_I2C_MASTER.c ****             /* Disable interrupt for manual master operation */
 309:.\Generated_Source\PSoC5/Camera_I2C_MASTER.c ****             Camera_I2C_DisableInt();
 355              		.loc 1 309 0
 356 0014 4FF40042 		mov	r2, #32768
 357 0018 164B     		ldr	r3, .L32+8
 358 001a 1A60     		str	r2, [r3]
 310:.\Generated_Source\PSoC5/Camera_I2C_MASTER.c **** 
 311:.\Generated_Source\PSoC5/Camera_I2C_MASTER.c ****             /* Set address and read/write flag */
 312:.\Generated_Source\PSoC5/Camera_I2C_MASTER.c ****             slaveAddress = (uint8) (slaveAddress << Camera_I2C_SLAVE_ADDR_SHIFT);
 359              		.loc 1 312 0
 360 001c 4000     		lsls	r0, r0, #1
 361              	.LVL35:
 362 001e C0B2     		uxtb	r0, r0
 363              	.LVL36:
 313:.\Generated_Source\PSoC5/Camera_I2C_MASTER.c ****             if(0u != R_nW)
ARM GAS  C:\Users\Nick\AppData\Local\Temp\ccWNoN6f.s 			page 13


 364              		.loc 1 313 0
 365 0020 29B1     		cbz	r1, .L25
 314:.\Generated_Source\PSoC5/Camera_I2C_MASTER.c ****             {
 315:.\Generated_Source\PSoC5/Camera_I2C_MASTER.c ****                 slaveAddress |= Camera_I2C_READ_FLAG;
 366              		.loc 1 315 0
 367 0022 40F00100 		orr	r0, r0, #1
 368              	.LVL37:
 316:.\Generated_Source\PSoC5/Camera_I2C_MASTER.c ****                 Camera_I2C_state = Camera_I2C_SM_MSTR_RD_ADDR;
 369              		.loc 1 316 0
 370 0026 4922     		movs	r2, #73
 371 0028 104B     		ldr	r3, .L32
 372 002a 1A70     		strb	r2, [r3]
 373 002c 02E0     		b	.L26
 374              	.L25:
 317:.\Generated_Source\PSoC5/Camera_I2C_MASTER.c ****             }
 318:.\Generated_Source\PSoC5/Camera_I2C_MASTER.c ****             else
 319:.\Generated_Source\PSoC5/Camera_I2C_MASTER.c ****             {
 320:.\Generated_Source\PSoC5/Camera_I2C_MASTER.c ****                 Camera_I2C_state = Camera_I2C_SM_MSTR_WR_ADDR;
 375              		.loc 1 320 0
 376 002e 4522     		movs	r2, #69
 377 0030 0E4B     		ldr	r3, .L32
 378 0032 1A70     		strb	r2, [r3]
 379              	.LVL38:
 380              	.L26:
 321:.\Generated_Source\PSoC5/Camera_I2C_MASTER.c ****             }
 322:.\Generated_Source\PSoC5/Camera_I2C_MASTER.c **** 
 323:.\Generated_Source\PSoC5/Camera_I2C_MASTER.c ****             /* Hardware actions: write address and generate Start */
 324:.\Generated_Source\PSoC5/Camera_I2C_MASTER.c ****             Camera_I2C_DATA_REG = slaveAddress;
 381              		.loc 1 324 0
 382 0034 104B     		ldr	r3, .L32+12
 383 0036 1870     		strb	r0, [r3]
 325:.\Generated_Source\PSoC5/Camera_I2C_MASTER.c ****             Camera_I2C_GENERATE_START_MANUAL;
 384              		.loc 1 325 0
 385 0038 0122     		movs	r2, #1
 386 003a 0133     		adds	r3, r3, #1
 387 003c 1A70     		strb	r2, [r3]
 326:.\Generated_Source\PSoC5/Camera_I2C_MASTER.c **** 
 327:.\Generated_Source\PSoC5/Camera_I2C_MASTER.c ****             /* Wait until address is transferred */
 328:.\Generated_Source\PSoC5/Camera_I2C_MASTER.c ****             while(Camera_I2C_WAIT_BYTE_COMPLETE(Camera_I2C_CSR_REG))
 388              		.loc 1 328 0
 389 003e 0F4A     		ldr	r2, .L32+16
 390              	.L27:
 391              		.loc 1 328 0 is_stmt 0 discriminator 1
 392 0040 1378     		ldrb	r3, [r2]	@ zero_extendqisi2
 393 0042 13F0010F 		tst	r3, #1
 394 0046 FBD0     		beq	.L27
 329:.\Generated_Source\PSoC5/Camera_I2C_MASTER.c ****             {
 330:.\Generated_Source\PSoC5/Camera_I2C_MASTER.c ****             }
 331:.\Generated_Source\PSoC5/Camera_I2C_MASTER.c **** 
 332:.\Generated_Source\PSoC5/Camera_I2C_MASTER.c ****         #if(Camera_I2C_MODE_MULTI_MASTER_SLAVE_ENABLED)
 333:.\Generated_Source\PSoC5/Camera_I2C_MASTER.c ****             if(Camera_I2C_CHECK_START_GEN(Camera_I2C_MCSR_REG))
 334:.\Generated_Source\PSoC5/Camera_I2C_MASTER.c ****             {
 335:.\Generated_Source\PSoC5/Camera_I2C_MASTER.c ****                 Camera_I2C_CLEAR_START_GEN;
 336:.\Generated_Source\PSoC5/Camera_I2C_MASTER.c **** 
 337:.\Generated_Source\PSoC5/Camera_I2C_MASTER.c ****                 /* Start condition was not generated: reset FSM to IDLE */
 338:.\Generated_Source\PSoC5/Camera_I2C_MASTER.c ****                 Camera_I2C_state = Camera_I2C_SM_IDLE;
 339:.\Generated_Source\PSoC5/Camera_I2C_MASTER.c ****                 errStatus = Camera_I2C_MSTR_ERR_ABORT_START_GEN;
ARM GAS  C:\Users\Nick\AppData\Local\Temp\ccWNoN6f.s 			page 14


 340:.\Generated_Source\PSoC5/Camera_I2C_MASTER.c ****             }
 341:.\Generated_Source\PSoC5/Camera_I2C_MASTER.c ****             else
 342:.\Generated_Source\PSoC5/Camera_I2C_MASTER.c ****         #endif /* (Camera_I2C_MODE_MULTI_MASTER_SLAVE_ENABLED) */
 343:.\Generated_Source\PSoC5/Camera_I2C_MASTER.c **** 
 344:.\Generated_Source\PSoC5/Camera_I2C_MASTER.c ****         #if(Camera_I2C_MODE_MULTI_MASTER_ENABLED)
 345:.\Generated_Source\PSoC5/Camera_I2C_MASTER.c ****             if(Camera_I2C_CHECK_LOST_ARB(Camera_I2C_CSR_REG))
 346:.\Generated_Source\PSoC5/Camera_I2C_MASTER.c ****             {
 347:.\Generated_Source\PSoC5/Camera_I2C_MASTER.c ****                 Camera_I2C_BUS_RELEASE_MANUAL;
 348:.\Generated_Source\PSoC5/Camera_I2C_MASTER.c **** 
 349:.\Generated_Source\PSoC5/Camera_I2C_MASTER.c ****                 /* Master lost arbitrage: reset FSM to IDLE */
 350:.\Generated_Source\PSoC5/Camera_I2C_MASTER.c ****                 Camera_I2C_state = Camera_I2C_SM_IDLE;
 351:.\Generated_Source\PSoC5/Camera_I2C_MASTER.c ****                 errStatus = Camera_I2C_MSTR_ERR_ARB_LOST;
 352:.\Generated_Source\PSoC5/Camera_I2C_MASTER.c ****             }
 353:.\Generated_Source\PSoC5/Camera_I2C_MASTER.c ****             else
 354:.\Generated_Source\PSoC5/Camera_I2C_MASTER.c ****         #endif /* (Camera_I2C_MODE_MULTI_MASTER_ENABLED) */
 355:.\Generated_Source\PSoC5/Camera_I2C_MASTER.c **** 
 356:.\Generated_Source\PSoC5/Camera_I2C_MASTER.c ****             if(Camera_I2C_CHECK_ADDR_NAK(Camera_I2C_CSR_REG))
 395              		.loc 1 356 0 is_stmt 1
 396 0048 0C4B     		ldr	r3, .L32+16
 397 004a 1B78     		ldrb	r3, [r3]	@ zero_extendqisi2
 398 004c 03F00A03 		and	r3, r3, #10
 399 0050 0A2B     		cmp	r3, #10
 400 0052 08D1     		bne	.L30
 357:.\Generated_Source\PSoC5/Camera_I2C_MASTER.c ****             {
 358:.\Generated_Source\PSoC5/Camera_I2C_MASTER.c ****                 /* Address has been NACKed: reset FSM to IDLE */
 359:.\Generated_Source\PSoC5/Camera_I2C_MASTER.c ****                 Camera_I2C_state = Camera_I2C_SM_IDLE;
 401              		.loc 1 359 0
 402 0054 1022     		movs	r2, #16
 403 0056 054B     		ldr	r3, .L32
 404 0058 1A70     		strb	r2, [r3]
 405              	.LVL39:
 360:.\Generated_Source\PSoC5/Camera_I2C_MASTER.c ****                 errStatus = Camera_I2C_MSTR_ERR_LB_NAK;
 406              		.loc 1 360 0
 407 005a 0320     		movs	r0, #3
 408              	.LVL40:
 409 005c 7047     		bx	lr
 410              	.LVL41:
 411              	.L28:
 300:.\Generated_Source\PSoC5/Camera_I2C_MASTER.c ****     errStatus = Camera_I2C_MSTR_NOT_READY;
 412              		.loc 1 300 0
 413 005e 0220     		movs	r0, #2
 414              	.LVL42:
 415 0060 7047     		bx	lr
 416              	.LVL43:
 417              	.L29:
 361:.\Generated_Source\PSoC5/Camera_I2C_MASTER.c ****             }
 362:.\Generated_Source\PSoC5/Camera_I2C_MASTER.c ****             else
 363:.\Generated_Source\PSoC5/Camera_I2C_MASTER.c ****             {
 364:.\Generated_Source\PSoC5/Camera_I2C_MASTER.c ****                 /* Start was sent without errors */
 365:.\Generated_Source\PSoC5/Camera_I2C_MASTER.c ****                 errStatus = Camera_I2C_MSTR_NO_ERROR;
 366:.\Generated_Source\PSoC5/Camera_I2C_MASTER.c ****             }
 367:.\Generated_Source\PSoC5/Camera_I2C_MASTER.c ****         }
 368:.\Generated_Source\PSoC5/Camera_I2C_MASTER.c ****         else
 369:.\Generated_Source\PSoC5/Camera_I2C_MASTER.c ****         {
 370:.\Generated_Source\PSoC5/Camera_I2C_MASTER.c ****             errStatus = Camera_I2C_MSTR_BUS_BUSY;
 418              		.loc 1 370 0
 419 0062 0120     		movs	r0, #1
ARM GAS  C:\Users\Nick\AppData\Local\Temp\ccWNoN6f.s 			page 15


 420              	.LVL44:
 421 0064 7047     		bx	lr
 422              	.LVL45:
 423              	.L30:
 365:.\Generated_Source\PSoC5/Camera_I2C_MASTER.c ****                 errStatus = Camera_I2C_MSTR_NO_ERROR;
 424              		.loc 1 365 0
 425 0066 0020     		movs	r0, #0
 426              	.LVL46:
 371:.\Generated_Source\PSoC5/Camera_I2C_MASTER.c ****         }
 372:.\Generated_Source\PSoC5/Camera_I2C_MASTER.c ****     }
 373:.\Generated_Source\PSoC5/Camera_I2C_MASTER.c **** 
 374:.\Generated_Source\PSoC5/Camera_I2C_MASTER.c ****     return(errStatus);
 375:.\Generated_Source\PSoC5/Camera_I2C_MASTER.c **** }
 427              		.loc 1 375 0
 428 0068 7047     		bx	lr
 429              	.L33:
 430 006a 00BF     		.align	2
 431              	.L32:
 432 006c 00000000 		.word	Camera_I2C_state
 433 0070 D9490040 		.word	1073760729
 434 0074 80E100E0 		.word	-536813184
 435 0078 D8490040 		.word	1073760728
 436 007c D7490040 		.word	1073760727
 437              		.cfi_endproc
 438              	.LFE2:
 439              		.size	Camera_I2C_MasterSendStart, .-Camera_I2C_MasterSendStart
 440              		.section	.text.Camera_I2C_MasterSendRestart,"ax",%progbits
 441              		.align	2
 442              		.global	Camera_I2C_MasterSendRestart
 443              		.thumb
 444              		.thumb_func
 445              		.type	Camera_I2C_MasterSendRestart, %function
 446              	Camera_I2C_MasterSendRestart:
 447              	.LFB3:
 376:.\Generated_Source\PSoC5/Camera_I2C_MASTER.c **** 
 377:.\Generated_Source\PSoC5/Camera_I2C_MASTER.c **** 
 378:.\Generated_Source\PSoC5/Camera_I2C_MASTER.c **** /*******************************************************************************
 379:.\Generated_Source\PSoC5/Camera_I2C_MASTER.c **** * Function Name: Camera_I2C_MasterSendRestart
 380:.\Generated_Source\PSoC5/Camera_I2C_MASTER.c **** ********************************************************************************
 381:.\Generated_Source\PSoC5/Camera_I2C_MASTER.c **** *
 382:.\Generated_Source\PSoC5/Camera_I2C_MASTER.c **** * Summary:
 383:.\Generated_Source\PSoC5/Camera_I2C_MASTER.c **** *  Generates ReStart condition and sends slave address with read/write bit.
 384:.\Generated_Source\PSoC5/Camera_I2C_MASTER.c **** *
 385:.\Generated_Source\PSoC5/Camera_I2C_MASTER.c **** * Parameters:
 386:.\Generated_Source\PSoC5/Camera_I2C_MASTER.c **** *  slaveAddress:  7-bit slave address.
 387:.\Generated_Source\PSoC5/Camera_I2C_MASTER.c **** *  R_nW:          Zero, send write command, non-zero send read command.
 388:.\Generated_Source\PSoC5/Camera_I2C_MASTER.c **** *
 389:.\Generated_Source\PSoC5/Camera_I2C_MASTER.c **** * Return:
 390:.\Generated_Source\PSoC5/Camera_I2C_MASTER.c **** *  Status error - Zero means no errors.
 391:.\Generated_Source\PSoC5/Camera_I2C_MASTER.c **** *
 392:.\Generated_Source\PSoC5/Camera_I2C_MASTER.c **** * Side Effects:
 393:.\Generated_Source\PSoC5/Camera_I2C_MASTER.c **** *  This function is entered without a "byte complete" bit set in the I2C_CSR
 394:.\Generated_Source\PSoC5/Camera_I2C_MASTER.c **** *  register. It does not exit until it is set.
 395:.\Generated_Source\PSoC5/Camera_I2C_MASTER.c **** *
 396:.\Generated_Source\PSoC5/Camera_I2C_MASTER.c **** * Global variables:
 397:.\Generated_Source\PSoC5/Camera_I2C_MASTER.c **** *  Camera_I2C_state - The global variable used to store a current state of
 398:.\Generated_Source\PSoC5/Camera_I2C_MASTER.c **** *                           the software FSM.
ARM GAS  C:\Users\Nick\AppData\Local\Temp\ccWNoN6f.s 			page 16


 399:.\Generated_Source\PSoC5/Camera_I2C_MASTER.c **** *
 400:.\Generated_Source\PSoC5/Camera_I2C_MASTER.c **** * Reentrant:
 401:.\Generated_Source\PSoC5/Camera_I2C_MASTER.c **** *  No.
 402:.\Generated_Source\PSoC5/Camera_I2C_MASTER.c **** *
 403:.\Generated_Source\PSoC5/Camera_I2C_MASTER.c **** *******************************************************************************/
 404:.\Generated_Source\PSoC5/Camera_I2C_MASTER.c **** uint8 Camera_I2C_MasterSendRestart(uint8 slaveAddress, uint8 R_nW)
 405:.\Generated_Source\PSoC5/Camera_I2C_MASTER.c ****       
 406:.\Generated_Source\PSoC5/Camera_I2C_MASTER.c **** {
 448              		.loc 1 406 0
 449              		.cfi_startproc
 450              		@ args = 0, pretend = 0, frame = 0
 451              		@ frame_needed = 0, uses_anonymous_args = 0
 452              		@ link register save eliminated.
 453              	.LVL47:
 407:.\Generated_Source\PSoC5/Camera_I2C_MASTER.c ****     uint8 errStatus;
 408:.\Generated_Source\PSoC5/Camera_I2C_MASTER.c **** 
 409:.\Generated_Source\PSoC5/Camera_I2C_MASTER.c ****     errStatus = Camera_I2C_MSTR_NOT_READY;
 410:.\Generated_Source\PSoC5/Camera_I2C_MASTER.c **** 
 411:.\Generated_Source\PSoC5/Camera_I2C_MASTER.c ****     /* Check if START condition was generated */
 412:.\Generated_Source\PSoC5/Camera_I2C_MASTER.c ****     if(Camera_I2C_CHECK_MASTER_MODE(Camera_I2C_MCSR_REG))
 454              		.loc 1 412 0
 455 0000 164B     		ldr	r3, .L42
 456 0002 1B78     		ldrb	r3, [r3]	@ zero_extendqisi2
 457 0004 13F0040F 		tst	r3, #4
 458 0008 23D0     		beq	.L39
 413:.\Generated_Source\PSoC5/Camera_I2C_MASTER.c ****     {
 414:.\Generated_Source\PSoC5/Camera_I2C_MASTER.c ****         /* Set address and read/write flag */
 415:.\Generated_Source\PSoC5/Camera_I2C_MASTER.c ****         slaveAddress = (uint8) (slaveAddress << Camera_I2C_SLAVE_ADDR_SHIFT);
 459              		.loc 1 415 0
 460 000a 4000     		lsls	r0, r0, #1
 461              	.LVL48:
 462 000c C0B2     		uxtb	r0, r0
 463              	.LVL49:
 416:.\Generated_Source\PSoC5/Camera_I2C_MASTER.c ****         if(0u != R_nW)
 464              		.loc 1 416 0
 465 000e 29B1     		cbz	r1, .L36
 417:.\Generated_Source\PSoC5/Camera_I2C_MASTER.c ****         {
 418:.\Generated_Source\PSoC5/Camera_I2C_MASTER.c ****             slaveAddress |= Camera_I2C_READ_FLAG;
 466              		.loc 1 418 0
 467 0010 40F00100 		orr	r0, r0, #1
 468              	.LVL50:
 419:.\Generated_Source\PSoC5/Camera_I2C_MASTER.c ****             Camera_I2C_state = Camera_I2C_SM_MSTR_RD_ADDR;
 469              		.loc 1 419 0
 470 0014 4922     		movs	r2, #73
 471 0016 124B     		ldr	r3, .L42+4
 472 0018 1A70     		strb	r2, [r3]
 473 001a 02E0     		b	.L37
 474              	.L36:
 420:.\Generated_Source\PSoC5/Camera_I2C_MASTER.c ****         }
 421:.\Generated_Source\PSoC5/Camera_I2C_MASTER.c ****         else
 422:.\Generated_Source\PSoC5/Camera_I2C_MASTER.c ****         {
 423:.\Generated_Source\PSoC5/Camera_I2C_MASTER.c ****             Camera_I2C_state = Camera_I2C_SM_MSTR_WR_ADDR;
 475              		.loc 1 423 0
 476 001c 4522     		movs	r2, #69
 477 001e 104B     		ldr	r3, .L42+4
 478 0020 1A70     		strb	r2, [r3]
 479              	.LVL51:
ARM GAS  C:\Users\Nick\AppData\Local\Temp\ccWNoN6f.s 			page 17


 480              	.L37:
 424:.\Generated_Source\PSoC5/Camera_I2C_MASTER.c ****         }
 425:.\Generated_Source\PSoC5/Camera_I2C_MASTER.c **** 
 426:.\Generated_Source\PSoC5/Camera_I2C_MASTER.c ****         /* Hardware actions: write address and generate ReStart */
 427:.\Generated_Source\PSoC5/Camera_I2C_MASTER.c ****         Camera_I2C_DATA_REG = slaveAddress;
 481              		.loc 1 427 0
 482 0022 104B     		ldr	r3, .L42+8
 483 0024 1870     		strb	r0, [r3]
 428:.\Generated_Source\PSoC5/Camera_I2C_MASTER.c ****         Camera_I2C_GENERATE_RESTART_MANUAL;
 484              		.loc 1 428 0
 485 0026 1222     		movs	r2, #18
 486 0028 0133     		adds	r3, r3, #1
 487 002a 1A70     		strb	r2, [r3]
 488 002c 0422     		movs	r2, #4
 489 002e 023B     		subs	r3, r3, #2
 490 0030 1A70     		strb	r2, [r3]
 429:.\Generated_Source\PSoC5/Camera_I2C_MASTER.c **** 
 430:.\Generated_Source\PSoC5/Camera_I2C_MASTER.c ****         /* Wait until address has been transferred */
 431:.\Generated_Source\PSoC5/Camera_I2C_MASTER.c ****         while(Camera_I2C_WAIT_BYTE_COMPLETE(Camera_I2C_CSR_REG))
 491              		.loc 1 431 0
 492 0032 1A46     		mov	r2, r3
 493              	.L38:
 494              		.loc 1 431 0 is_stmt 0 discriminator 1
 495 0034 1378     		ldrb	r3, [r2]	@ zero_extendqisi2
 496 0036 13F0010F 		tst	r3, #1
 497 003a FBD0     		beq	.L38
 432:.\Generated_Source\PSoC5/Camera_I2C_MASTER.c ****         {
 433:.\Generated_Source\PSoC5/Camera_I2C_MASTER.c ****         }
 434:.\Generated_Source\PSoC5/Camera_I2C_MASTER.c **** 
 435:.\Generated_Source\PSoC5/Camera_I2C_MASTER.c ****     #if(Camera_I2C_MODE_MULTI_MASTER_ENABLED)
 436:.\Generated_Source\PSoC5/Camera_I2C_MASTER.c ****         if(Camera_I2C_CHECK_LOST_ARB(Camera_I2C_CSR_REG))
 437:.\Generated_Source\PSoC5/Camera_I2C_MASTER.c ****         {
 438:.\Generated_Source\PSoC5/Camera_I2C_MASTER.c ****             Camera_I2C_BUS_RELEASE_MANUAL;
 439:.\Generated_Source\PSoC5/Camera_I2C_MASTER.c **** 
 440:.\Generated_Source\PSoC5/Camera_I2C_MASTER.c ****             /* Master lost arbitrage: reset FSM to IDLE */
 441:.\Generated_Source\PSoC5/Camera_I2C_MASTER.c ****             Camera_I2C_state = Camera_I2C_SM_IDLE;
 442:.\Generated_Source\PSoC5/Camera_I2C_MASTER.c ****             errStatus = Camera_I2C_MSTR_ERR_ARB_LOST;
 443:.\Generated_Source\PSoC5/Camera_I2C_MASTER.c ****         }
 444:.\Generated_Source\PSoC5/Camera_I2C_MASTER.c ****         else
 445:.\Generated_Source\PSoC5/Camera_I2C_MASTER.c ****     #endif /* (Camera_I2C_MODE_MULTI_MASTER_ENABLED) */
 446:.\Generated_Source\PSoC5/Camera_I2C_MASTER.c **** 
 447:.\Generated_Source\PSoC5/Camera_I2C_MASTER.c ****         if(Camera_I2C_CHECK_ADDR_NAK(Camera_I2C_CSR_REG))
 498              		.loc 1 447 0 is_stmt 1
 499 003c 0A4B     		ldr	r3, .L42+12
 500 003e 1B78     		ldrb	r3, [r3]	@ zero_extendqisi2
 501 0040 03F00A03 		and	r3, r3, #10
 502 0044 0A2B     		cmp	r3, #10
 503 0046 06D1     		bne	.L40
 448:.\Generated_Source\PSoC5/Camera_I2C_MASTER.c ****         {
 449:.\Generated_Source\PSoC5/Camera_I2C_MASTER.c ****             /* Address has been NACKed: reset FSM to IDLE */
 450:.\Generated_Source\PSoC5/Camera_I2C_MASTER.c ****             Camera_I2C_state = Camera_I2C_SM_IDLE;
 504              		.loc 1 450 0
 505 0048 1022     		movs	r2, #16
 506 004a 054B     		ldr	r3, .L42+4
 507 004c 1A70     		strb	r2, [r3]
 508              	.LVL52:
 451:.\Generated_Source\PSoC5/Camera_I2C_MASTER.c ****             errStatus = Camera_I2C_MSTR_ERR_LB_NAK;
ARM GAS  C:\Users\Nick\AppData\Local\Temp\ccWNoN6f.s 			page 18


 509              		.loc 1 451 0
 510 004e 0320     		movs	r0, #3
 511              	.LVL53:
 512 0050 7047     		bx	lr
 513              	.LVL54:
 514              	.L39:
 409:.\Generated_Source\PSoC5/Camera_I2C_MASTER.c ****     errStatus = Camera_I2C_MSTR_NOT_READY;
 515              		.loc 1 409 0
 516 0052 0220     		movs	r0, #2
 517              	.LVL55:
 518 0054 7047     		bx	lr
 519              	.LVL56:
 520              	.L40:
 452:.\Generated_Source\PSoC5/Camera_I2C_MASTER.c ****         }
 453:.\Generated_Source\PSoC5/Camera_I2C_MASTER.c ****         else
 454:.\Generated_Source\PSoC5/Camera_I2C_MASTER.c ****         {
 455:.\Generated_Source\PSoC5/Camera_I2C_MASTER.c ****             /* ReStart was sent without errors */
 456:.\Generated_Source\PSoC5/Camera_I2C_MASTER.c ****             errStatus = Camera_I2C_MSTR_NO_ERROR;
 521              		.loc 1 456 0
 522 0056 0020     		movs	r0, #0
 523              	.LVL57:
 457:.\Generated_Source\PSoC5/Camera_I2C_MASTER.c ****         }
 458:.\Generated_Source\PSoC5/Camera_I2C_MASTER.c ****     }
 459:.\Generated_Source\PSoC5/Camera_I2C_MASTER.c **** 
 460:.\Generated_Source\PSoC5/Camera_I2C_MASTER.c ****     return(errStatus);
 461:.\Generated_Source\PSoC5/Camera_I2C_MASTER.c **** }
 524              		.loc 1 461 0
 525 0058 7047     		bx	lr
 526              	.L43:
 527 005a 00BF     		.align	2
 528              	.L42:
 529 005c D9490040 		.word	1073760729
 530 0060 00000000 		.word	Camera_I2C_state
 531 0064 D8490040 		.word	1073760728
 532 0068 D7490040 		.word	1073760727
 533              		.cfi_endproc
 534              	.LFE3:
 535              		.size	Camera_I2C_MasterSendRestart, .-Camera_I2C_MasterSendRestart
 536              		.section	.text.Camera_I2C_MasterSendStop,"ax",%progbits
 537              		.align	2
 538              		.global	Camera_I2C_MasterSendStop
 539              		.thumb
 540              		.thumb_func
 541              		.type	Camera_I2C_MasterSendStop, %function
 542              	Camera_I2C_MasterSendStop:
 543              	.LFB4:
 462:.\Generated_Source\PSoC5/Camera_I2C_MASTER.c **** 
 463:.\Generated_Source\PSoC5/Camera_I2C_MASTER.c **** 
 464:.\Generated_Source\PSoC5/Camera_I2C_MASTER.c **** /*******************************************************************************
 465:.\Generated_Source\PSoC5/Camera_I2C_MASTER.c **** * Function Name: Camera_I2C_MasterSendStop
 466:.\Generated_Source\PSoC5/Camera_I2C_MASTER.c **** ********************************************************************************
 467:.\Generated_Source\PSoC5/Camera_I2C_MASTER.c **** *
 468:.\Generated_Source\PSoC5/Camera_I2C_MASTER.c **** * Summary:
 469:.\Generated_Source\PSoC5/Camera_I2C_MASTER.c **** *  Generates I2C Stop condition on bus. Function do nothing if Start or Restart
 470:.\Generated_Source\PSoC5/Camera_I2C_MASTER.c **** *  condition was failed before call this function.
 471:.\Generated_Source\PSoC5/Camera_I2C_MASTER.c **** *
 472:.\Generated_Source\PSoC5/Camera_I2C_MASTER.c **** * Parameters:
ARM GAS  C:\Users\Nick\AppData\Local\Temp\ccWNoN6f.s 			page 19


 473:.\Generated_Source\PSoC5/Camera_I2C_MASTER.c **** *  None.
 474:.\Generated_Source\PSoC5/Camera_I2C_MASTER.c **** *
 475:.\Generated_Source\PSoC5/Camera_I2C_MASTER.c **** * Return:
 476:.\Generated_Source\PSoC5/Camera_I2C_MASTER.c **** *  Status error - Zero means no errors.
 477:.\Generated_Source\PSoC5/Camera_I2C_MASTER.c **** *
 478:.\Generated_Source\PSoC5/Camera_I2C_MASTER.c **** * Side Effects:
 479:.\Generated_Source\PSoC5/Camera_I2C_MASTER.c **** *  Stop generation is required to complete the transaction.
 480:.\Generated_Source\PSoC5/Camera_I2C_MASTER.c **** *  This function does not wait until a Stop condition is generated.
 481:.\Generated_Source\PSoC5/Camera_I2C_MASTER.c **** *
 482:.\Generated_Source\PSoC5/Camera_I2C_MASTER.c **** * Global variables:
 483:.\Generated_Source\PSoC5/Camera_I2C_MASTER.c **** *  Camera_I2C_state - The global variable used to store a current state of
 484:.\Generated_Source\PSoC5/Camera_I2C_MASTER.c **** *                           the software FSM.
 485:.\Generated_Source\PSoC5/Camera_I2C_MASTER.c **** *
 486:.\Generated_Source\PSoC5/Camera_I2C_MASTER.c **** * Reentrant:
 487:.\Generated_Source\PSoC5/Camera_I2C_MASTER.c **** *  No.
 488:.\Generated_Source\PSoC5/Camera_I2C_MASTER.c **** *
 489:.\Generated_Source\PSoC5/Camera_I2C_MASTER.c **** *******************************************************************************/
 490:.\Generated_Source\PSoC5/Camera_I2C_MASTER.c **** uint8 Camera_I2C_MasterSendStop(void) 
 491:.\Generated_Source\PSoC5/Camera_I2C_MASTER.c **** {
 544              		.loc 1 491 0
 545              		.cfi_startproc
 546              		@ args = 0, pretend = 0, frame = 0
 547              		@ frame_needed = 0, uses_anonymous_args = 0
 548              		@ link register save eliminated.
 549              	.LVL58:
 492:.\Generated_Source\PSoC5/Camera_I2C_MASTER.c ****     uint8 errStatus;
 493:.\Generated_Source\PSoC5/Camera_I2C_MASTER.c **** 
 494:.\Generated_Source\PSoC5/Camera_I2C_MASTER.c ****     errStatus = Camera_I2C_MSTR_NOT_READY;
 495:.\Generated_Source\PSoC5/Camera_I2C_MASTER.c **** 
 496:.\Generated_Source\PSoC5/Camera_I2C_MASTER.c ****     /* Check if master is active on bus */
 497:.\Generated_Source\PSoC5/Camera_I2C_MASTER.c ****     if(Camera_I2C_CHECK_MASTER_MODE(Camera_I2C_MCSR_REG))
 550              		.loc 1 497 0
 551 0000 0A4B     		ldr	r3, .L49
 552 0002 1B78     		ldrb	r3, [r3]	@ zero_extendqisi2
 553 0004 13F0040F 		tst	r3, #4
 554 0008 0ED0     		beq	.L47
 498:.\Generated_Source\PSoC5/Camera_I2C_MASTER.c ****     {
 499:.\Generated_Source\PSoC5/Camera_I2C_MASTER.c ****         Camera_I2C_GENERATE_STOP_MANUAL;
 555              		.loc 1 499 0
 556 000a 1023     		movs	r3, #16
 557 000c 074A     		ldr	r2, .L49
 558 000e 1370     		strb	r3, [r2]
 559 0010 0421     		movs	r1, #4
 560 0012 023A     		subs	r2, r2, #2
 561 0014 1170     		strb	r1, [r2]
 500:.\Generated_Source\PSoC5/Camera_I2C_MASTER.c ****         Camera_I2C_state = Camera_I2C_SM_IDLE;
 562              		.loc 1 500 0
 563 0016 064A     		ldr	r2, .L49+4
 564 0018 1370     		strb	r3, [r2]
 501:.\Generated_Source\PSoC5/Camera_I2C_MASTER.c **** 
 502:.\Generated_Source\PSoC5/Camera_I2C_MASTER.c ****         /* Wait until stop has been generated */
 503:.\Generated_Source\PSoC5/Camera_I2C_MASTER.c ****         while(Camera_I2C_WAIT_STOP_COMPLETE(Camera_I2C_CSR_REG))
 565              		.loc 1 503 0
 566 001a 064A     		ldr	r2, .L49+8
 567              	.L46:
 568              		.loc 1 503 0 is_stmt 0 discriminator 1
 569 001c 1378     		ldrb	r3, [r2]	@ zero_extendqisi2
ARM GAS  C:\Users\Nick\AppData\Local\Temp\ccWNoN6f.s 			page 20


 570 001e 13F0210F 		tst	r3, #33
 571 0022 FBD0     		beq	.L46
 504:.\Generated_Source\PSoC5/Camera_I2C_MASTER.c ****         {
 505:.\Generated_Source\PSoC5/Camera_I2C_MASTER.c ****         }
 506:.\Generated_Source\PSoC5/Camera_I2C_MASTER.c **** 
 507:.\Generated_Source\PSoC5/Camera_I2C_MASTER.c ****         errStatus = Camera_I2C_MSTR_NO_ERROR;
 572              		.loc 1 507 0 is_stmt 1
 573 0024 0020     		movs	r0, #0
 574 0026 7047     		bx	lr
 575              	.L47:
 494:.\Generated_Source\PSoC5/Camera_I2C_MASTER.c ****     errStatus = Camera_I2C_MSTR_NOT_READY;
 576              		.loc 1 494 0
 577 0028 0220     		movs	r0, #2
 578              	.LVL59:
 508:.\Generated_Source\PSoC5/Camera_I2C_MASTER.c **** 
 509:.\Generated_Source\PSoC5/Camera_I2C_MASTER.c ****     #if(Camera_I2C_MODE_MULTI_MASTER_ENABLED)
 510:.\Generated_Source\PSoC5/Camera_I2C_MASTER.c ****         if(Camera_I2C_CHECK_LOST_ARB(Camera_I2C_CSR_REG))
 511:.\Generated_Source\PSoC5/Camera_I2C_MASTER.c ****         {
 512:.\Generated_Source\PSoC5/Camera_I2C_MASTER.c ****             Camera_I2C_BUS_RELEASE_MANUAL;
 513:.\Generated_Source\PSoC5/Camera_I2C_MASTER.c **** 
 514:.\Generated_Source\PSoC5/Camera_I2C_MASTER.c ****             /* NACK was generated by instead Stop */
 515:.\Generated_Source\PSoC5/Camera_I2C_MASTER.c ****             errStatus = Camera_I2C_MSTR_ERR_ARB_LOST;
 516:.\Generated_Source\PSoC5/Camera_I2C_MASTER.c ****         }
 517:.\Generated_Source\PSoC5/Camera_I2C_MASTER.c ****     #endif /* (Camera_I2C_MODE_MULTI_MASTER_ENABLED) */
 518:.\Generated_Source\PSoC5/Camera_I2C_MASTER.c ****     }
 519:.\Generated_Source\PSoC5/Camera_I2C_MASTER.c **** 
 520:.\Generated_Source\PSoC5/Camera_I2C_MASTER.c ****     return(errStatus);
 521:.\Generated_Source\PSoC5/Camera_I2C_MASTER.c **** }
 579              		.loc 1 521 0
 580 002a 7047     		bx	lr
 581              	.L50:
 582              		.align	2
 583              	.L49:
 584 002c D9490040 		.word	1073760729
 585 0030 00000000 		.word	Camera_I2C_state
 586 0034 D7490040 		.word	1073760727
 587              		.cfi_endproc
 588              	.LFE4:
 589              		.size	Camera_I2C_MasterSendStop, .-Camera_I2C_MasterSendStop
 590              		.section	.text.Camera_I2C_MasterWriteByte,"ax",%progbits
 591              		.align	2
 592              		.global	Camera_I2C_MasterWriteByte
 593              		.thumb
 594              		.thumb_func
 595              		.type	Camera_I2C_MasterWriteByte, %function
 596              	Camera_I2C_MasterWriteByte:
 597              	.LFB5:
 522:.\Generated_Source\PSoC5/Camera_I2C_MASTER.c **** 
 523:.\Generated_Source\PSoC5/Camera_I2C_MASTER.c **** 
 524:.\Generated_Source\PSoC5/Camera_I2C_MASTER.c **** /*******************************************************************************
 525:.\Generated_Source\PSoC5/Camera_I2C_MASTER.c **** * Function Name: Camera_I2C_MasterWriteByte
 526:.\Generated_Source\PSoC5/Camera_I2C_MASTER.c **** ********************************************************************************
 527:.\Generated_Source\PSoC5/Camera_I2C_MASTER.c **** *
 528:.\Generated_Source\PSoC5/Camera_I2C_MASTER.c **** * Summary:
 529:.\Generated_Source\PSoC5/Camera_I2C_MASTER.c **** *  Sends one byte to a slave. A valid Start or ReStart condition must be
 530:.\Generated_Source\PSoC5/Camera_I2C_MASTER.c **** *  generated before this call this function. Function do nothing if Start or
 531:.\Generated_Source\PSoC5/Camera_I2C_MASTER.c **** *  Restart condition was failed before call this function.
ARM GAS  C:\Users\Nick\AppData\Local\Temp\ccWNoN6f.s 			page 21


 532:.\Generated_Source\PSoC5/Camera_I2C_MASTER.c **** *
 533:.\Generated_Source\PSoC5/Camera_I2C_MASTER.c **** * Parameters:
 534:.\Generated_Source\PSoC5/Camera_I2C_MASTER.c **** *  data:  The data byte to send to the slave.
 535:.\Generated_Source\PSoC5/Camera_I2C_MASTER.c **** *
 536:.\Generated_Source\PSoC5/Camera_I2C_MASTER.c **** * Return:
 537:.\Generated_Source\PSoC5/Camera_I2C_MASTER.c **** *  Status error - Zero means no errors.
 538:.\Generated_Source\PSoC5/Camera_I2C_MASTER.c **** *
 539:.\Generated_Source\PSoC5/Camera_I2C_MASTER.c **** * Side Effects:
 540:.\Generated_Source\PSoC5/Camera_I2C_MASTER.c **** *  This function is entered without a "byte complete" bit set in the I2C_CSR
 541:.\Generated_Source\PSoC5/Camera_I2C_MASTER.c **** *  register. It does not exit until it is set.
 542:.\Generated_Source\PSoC5/Camera_I2C_MASTER.c **** *
 543:.\Generated_Source\PSoC5/Camera_I2C_MASTER.c **** * Global variables:
 544:.\Generated_Source\PSoC5/Camera_I2C_MASTER.c **** *  Camera_I2C_state - The global variable used to store a current state of
 545:.\Generated_Source\PSoC5/Camera_I2C_MASTER.c **** *                           the software FSM.
 546:.\Generated_Source\PSoC5/Camera_I2C_MASTER.c **** *
 547:.\Generated_Source\PSoC5/Camera_I2C_MASTER.c **** *******************************************************************************/
 548:.\Generated_Source\PSoC5/Camera_I2C_MASTER.c **** uint8 Camera_I2C_MasterWriteByte(uint8 theByte) 
 549:.\Generated_Source\PSoC5/Camera_I2C_MASTER.c **** {
 598              		.loc 1 549 0
 599              		.cfi_startproc
 600              		@ args = 0, pretend = 0, frame = 0
 601              		@ frame_needed = 0, uses_anonymous_args = 0
 602              		@ link register save eliminated.
 603              	.LVL60:
 550:.\Generated_Source\PSoC5/Camera_I2C_MASTER.c ****     uint8 errStatus;
 551:.\Generated_Source\PSoC5/Camera_I2C_MASTER.c **** 
 552:.\Generated_Source\PSoC5/Camera_I2C_MASTER.c ****     errStatus = Camera_I2C_MSTR_NOT_READY;
 553:.\Generated_Source\PSoC5/Camera_I2C_MASTER.c **** 
 554:.\Generated_Source\PSoC5/Camera_I2C_MASTER.c ****     /* Check if START condition was generated */
 555:.\Generated_Source\PSoC5/Camera_I2C_MASTER.c ****     if(Camera_I2C_CHECK_MASTER_MODE(Camera_I2C_MCSR_REG))
 604              		.loc 1 555 0
 605 0000 114B     		ldr	r3, .L57
 606 0002 1B78     		ldrb	r3, [r3]	@ zero_extendqisi2
 607 0004 13F0040F 		tst	r3, #4
 608 0008 1BD0     		beq	.L55
 556:.\Generated_Source\PSoC5/Camera_I2C_MASTER.c ****     {
 557:.\Generated_Source\PSoC5/Camera_I2C_MASTER.c ****         Camera_I2C_DATA_REG = theByte;   /* Write DATA register */
 609              		.loc 1 557 0
 610 000a 104B     		ldr	r3, .L57+4
 611 000c 1870     		strb	r0, [r3]
 558:.\Generated_Source\PSoC5/Camera_I2C_MASTER.c ****         Camera_I2C_TRANSMIT_DATA_MANUAL; /* Set transmit mode   */
 612              		.loc 1 558 0
 613 000e 0422     		movs	r2, #4
 614 0010 013B     		subs	r3, r3, #1
 615 0012 1A70     		strb	r2, [r3]
 559:.\Generated_Source\PSoC5/Camera_I2C_MASTER.c ****         Camera_I2C_state = Camera_I2C_SM_MSTR_WR_DATA;
 616              		.loc 1 559 0
 617 0014 4622     		movs	r2, #70
 618 0016 0E4B     		ldr	r3, .L57+8
 619 0018 1A70     		strb	r2, [r3]
 560:.\Generated_Source\PSoC5/Camera_I2C_MASTER.c **** 
 561:.\Generated_Source\PSoC5/Camera_I2C_MASTER.c ****         /* Wait until data byte has been transmitted */
 562:.\Generated_Source\PSoC5/Camera_I2C_MASTER.c ****         while(Camera_I2C_WAIT_BYTE_COMPLETE(Camera_I2C_CSR_REG))
 620              		.loc 1 562 0
 621 001a 0E4A     		ldr	r2, .L57+12
 622              	.L53:
 623              		.loc 1 562 0 is_stmt 0 discriminator 1
ARM GAS  C:\Users\Nick\AppData\Local\Temp\ccWNoN6f.s 			page 22


 624 001c 1378     		ldrb	r3, [r2]	@ zero_extendqisi2
 625 001e 13F0010F 		tst	r3, #1
 626 0022 FBD0     		beq	.L53
 563:.\Generated_Source\PSoC5/Camera_I2C_MASTER.c ****         {
 564:.\Generated_Source\PSoC5/Camera_I2C_MASTER.c ****         }
 565:.\Generated_Source\PSoC5/Camera_I2C_MASTER.c **** 
 566:.\Generated_Source\PSoC5/Camera_I2C_MASTER.c ****     #if(Camera_I2C_MODE_MULTI_MASTER_ENABLED)
 567:.\Generated_Source\PSoC5/Camera_I2C_MASTER.c ****         if(Camera_I2C_CHECK_LOST_ARB(Camera_I2C_CSR_REG))
 568:.\Generated_Source\PSoC5/Camera_I2C_MASTER.c ****         {
 569:.\Generated_Source\PSoC5/Camera_I2C_MASTER.c ****             Camera_I2C_BUS_RELEASE_MANUAL;
 570:.\Generated_Source\PSoC5/Camera_I2C_MASTER.c **** 
 571:.\Generated_Source\PSoC5/Camera_I2C_MASTER.c ****             /* Master lost arbitrage: reset FSM to IDLE */
 572:.\Generated_Source\PSoC5/Camera_I2C_MASTER.c ****             Camera_I2C_state = Camera_I2C_SM_IDLE;
 573:.\Generated_Source\PSoC5/Camera_I2C_MASTER.c ****             errStatus = Camera_I2C_MSTR_ERR_ARB_LOST;
 574:.\Generated_Source\PSoC5/Camera_I2C_MASTER.c ****         }
 575:.\Generated_Source\PSoC5/Camera_I2C_MASTER.c ****         /* Check LRB bit */
 576:.\Generated_Source\PSoC5/Camera_I2C_MASTER.c ****         else
 577:.\Generated_Source\PSoC5/Camera_I2C_MASTER.c ****     #endif /* (Camera_I2C_MODE_MULTI_MASTER_ENABLED) */
 578:.\Generated_Source\PSoC5/Camera_I2C_MASTER.c **** 
 579:.\Generated_Source\PSoC5/Camera_I2C_MASTER.c ****         if(Camera_I2C_CHECK_DATA_ACK(Camera_I2C_CSR_REG))
 627              		.loc 1 579 0 is_stmt 1
 628 0024 0B4B     		ldr	r3, .L57+12
 629 0026 1B78     		ldrb	r3, [r3]	@ zero_extendqisi2
 630 0028 13F0020F 		tst	r3, #2
 631 002c 04D1     		bne	.L54
 580:.\Generated_Source\PSoC5/Camera_I2C_MASTER.c ****         {
 581:.\Generated_Source\PSoC5/Camera_I2C_MASTER.c ****             Camera_I2C_state = Camera_I2C_SM_MSTR_HALT;
 632              		.loc 1 581 0
 633 002e 6022     		movs	r2, #96
 634 0030 074B     		ldr	r3, .L57+8
 635 0032 1A70     		strb	r2, [r3]
 636              	.LVL61:
 582:.\Generated_Source\PSoC5/Camera_I2C_MASTER.c ****             errStatus = Camera_I2C_MSTR_NO_ERROR;
 637              		.loc 1 582 0
 638 0034 0020     		movs	r0, #0
 639              	.LVL62:
 640 0036 7047     		bx	lr
 641              	.LVL63:
 642              	.L54:
 583:.\Generated_Source\PSoC5/Camera_I2C_MASTER.c ****         }
 584:.\Generated_Source\PSoC5/Camera_I2C_MASTER.c ****         else
 585:.\Generated_Source\PSoC5/Camera_I2C_MASTER.c ****         {
 586:.\Generated_Source\PSoC5/Camera_I2C_MASTER.c ****             Camera_I2C_state = Camera_I2C_SM_MSTR_HALT;
 643              		.loc 1 586 0
 644 0038 6022     		movs	r2, #96
 645 003a 054B     		ldr	r3, .L57+8
 646 003c 1A70     		strb	r2, [r3]
 647              	.LVL64:
 587:.\Generated_Source\PSoC5/Camera_I2C_MASTER.c ****             errStatus = Camera_I2C_MSTR_ERR_LB_NAK;
 648              		.loc 1 587 0
 649 003e 0320     		movs	r0, #3
 650              	.LVL65:
 651 0040 7047     		bx	lr
 652              	.LVL66:
 653              	.L55:
 552:.\Generated_Source\PSoC5/Camera_I2C_MASTER.c ****     errStatus = Camera_I2C_MSTR_NOT_READY;
 654              		.loc 1 552 0
ARM GAS  C:\Users\Nick\AppData\Local\Temp\ccWNoN6f.s 			page 23


 655 0042 0220     		movs	r0, #2
 656              	.LVL67:
 588:.\Generated_Source\PSoC5/Camera_I2C_MASTER.c ****         }
 589:.\Generated_Source\PSoC5/Camera_I2C_MASTER.c ****     }
 590:.\Generated_Source\PSoC5/Camera_I2C_MASTER.c **** 
 591:.\Generated_Source\PSoC5/Camera_I2C_MASTER.c ****     return(errStatus);
 592:.\Generated_Source\PSoC5/Camera_I2C_MASTER.c **** }
 657              		.loc 1 592 0
 658 0044 7047     		bx	lr
 659              	.L58:
 660 0046 00BF     		.align	2
 661              	.L57:
 662 0048 D9490040 		.word	1073760729
 663 004c D8490040 		.word	1073760728
 664 0050 00000000 		.word	Camera_I2C_state
 665 0054 D7490040 		.word	1073760727
 666              		.cfi_endproc
 667              	.LFE5:
 668              		.size	Camera_I2C_MasterWriteByte, .-Camera_I2C_MasterWriteByte
 669              		.section	.text.Camera_I2C_MasterReadByte,"ax",%progbits
 670              		.align	2
 671              		.global	Camera_I2C_MasterReadByte
 672              		.thumb
 673              		.thumb_func
 674              		.type	Camera_I2C_MasterReadByte, %function
 675              	Camera_I2C_MasterReadByte:
 676              	.LFB6:
 593:.\Generated_Source\PSoC5/Camera_I2C_MASTER.c **** 
 594:.\Generated_Source\PSoC5/Camera_I2C_MASTER.c **** 
 595:.\Generated_Source\PSoC5/Camera_I2C_MASTER.c **** /*******************************************************************************
 596:.\Generated_Source\PSoC5/Camera_I2C_MASTER.c **** * Function Name: Camera_I2C_MasterReadByte
 597:.\Generated_Source\PSoC5/Camera_I2C_MASTER.c **** ********************************************************************************
 598:.\Generated_Source\PSoC5/Camera_I2C_MASTER.c **** *
 599:.\Generated_Source\PSoC5/Camera_I2C_MASTER.c **** * Summary:
 600:.\Generated_Source\PSoC5/Camera_I2C_MASTER.c **** *  Reads one byte from a slave and ACK or NACK the transfer. A valid Start or
 601:.\Generated_Source\PSoC5/Camera_I2C_MASTER.c **** *  ReStart condition must be generated before this call this function. Function
 602:.\Generated_Source\PSoC5/Camera_I2C_MASTER.c **** *  do nothing if Start or Restart condition was failed before call this
 603:.\Generated_Source\PSoC5/Camera_I2C_MASTER.c **** *  function.
 604:.\Generated_Source\PSoC5/Camera_I2C_MASTER.c **** *
 605:.\Generated_Source\PSoC5/Camera_I2C_MASTER.c **** * Parameters:
 606:.\Generated_Source\PSoC5/Camera_I2C_MASTER.c **** *  acknNack:  Zero, response with NACK, if non-zero response with ACK.
 607:.\Generated_Source\PSoC5/Camera_I2C_MASTER.c **** *
 608:.\Generated_Source\PSoC5/Camera_I2C_MASTER.c **** * Return:
 609:.\Generated_Source\PSoC5/Camera_I2C_MASTER.c **** *  Byte read from slave.
 610:.\Generated_Source\PSoC5/Camera_I2C_MASTER.c **** *
 611:.\Generated_Source\PSoC5/Camera_I2C_MASTER.c **** * Side Effects:
 612:.\Generated_Source\PSoC5/Camera_I2C_MASTER.c **** *  This function is entered without a "byte complete" bit set in the I2C_CSR
 613:.\Generated_Source\PSoC5/Camera_I2C_MASTER.c **** *  register. It does not exit until it is set.
 614:.\Generated_Source\PSoC5/Camera_I2C_MASTER.c **** *
 615:.\Generated_Source\PSoC5/Camera_I2C_MASTER.c **** * Global variables:
 616:.\Generated_Source\PSoC5/Camera_I2C_MASTER.c **** *  Camera_I2C_state - The global variable used to store a current
 617:.\Generated_Source\PSoC5/Camera_I2C_MASTER.c **** *                           state of the software FSM.
 618:.\Generated_Source\PSoC5/Camera_I2C_MASTER.c **** *
 619:.\Generated_Source\PSoC5/Camera_I2C_MASTER.c **** * Reentrant:
 620:.\Generated_Source\PSoC5/Camera_I2C_MASTER.c **** *  No.
 621:.\Generated_Source\PSoC5/Camera_I2C_MASTER.c **** *
 622:.\Generated_Source\PSoC5/Camera_I2C_MASTER.c **** *******************************************************************************/
ARM GAS  C:\Users\Nick\AppData\Local\Temp\ccWNoN6f.s 			page 24


 623:.\Generated_Source\PSoC5/Camera_I2C_MASTER.c **** uint8 Camera_I2C_MasterReadByte(uint8 acknNak) 
 624:.\Generated_Source\PSoC5/Camera_I2C_MASTER.c **** {
 677              		.loc 1 624 0
 678              		.cfi_startproc
 679              		@ args = 0, pretend = 0, frame = 0
 680              		@ frame_needed = 0, uses_anonymous_args = 0
 681              		@ link register save eliminated.
 682              	.LVL68:
 683 0000 0146     		mov	r1, r0
 684              	.LVL69:
 625:.\Generated_Source\PSoC5/Camera_I2C_MASTER.c ****     uint8 theByte;
 626:.\Generated_Source\PSoC5/Camera_I2C_MASTER.c **** 
 627:.\Generated_Source\PSoC5/Camera_I2C_MASTER.c ****     theByte = 0u;
 628:.\Generated_Source\PSoC5/Camera_I2C_MASTER.c **** 
 629:.\Generated_Source\PSoC5/Camera_I2C_MASTER.c ****     /* Check if START condition was generated */
 630:.\Generated_Source\PSoC5/Camera_I2C_MASTER.c ****     if(Camera_I2C_CHECK_MASTER_MODE(Camera_I2C_MCSR_REG))
 685              		.loc 1 630 0
 686 0002 114B     		ldr	r3, .L67
 687 0004 1B78     		ldrb	r3, [r3]	@ zero_extendqisi2
 688 0006 13F0040F 		tst	r3, #4
 689 000a 1BD0     		beq	.L64
 631:.\Generated_Source\PSoC5/Camera_I2C_MASTER.c ****     {
 632:.\Generated_Source\PSoC5/Camera_I2C_MASTER.c ****         /* When address phase needs to release bus and receive byte,
 633:.\Generated_Source\PSoC5/Camera_I2C_MASTER.c ****         * then decide ACK or NACK
 634:.\Generated_Source\PSoC5/Camera_I2C_MASTER.c ****         */
 635:.\Generated_Source\PSoC5/Camera_I2C_MASTER.c ****         if(Camera_I2C_SM_MSTR_RD_ADDR == Camera_I2C_state)
 690              		.loc 1 635 0
 691 000c 0F4B     		ldr	r3, .L67+4
 692 000e 1B78     		ldrb	r3, [r3]	@ zero_extendqisi2
 693 0010 DBB2     		uxtb	r3, r3
 694 0012 492B     		cmp	r3, #73
 695 0014 05D1     		bne	.L62
 636:.\Generated_Source\PSoC5/Camera_I2C_MASTER.c ****         {
 637:.\Generated_Source\PSoC5/Camera_I2C_MASTER.c ****             Camera_I2C_READY_TO_READ_MANUAL;
 696              		.loc 1 637 0
 697 0016 0022     		movs	r2, #0
 698 0018 0D4B     		ldr	r3, .L67+8
 699 001a 1A70     		strb	r2, [r3]
 638:.\Generated_Source\PSoC5/Camera_I2C_MASTER.c ****             Camera_I2C_state = Camera_I2C_SM_MSTR_RD_DATA;
 700              		.loc 1 638 0
 701 001c 4A22     		movs	r2, #74
 702 001e 0B4B     		ldr	r3, .L67+4
 703 0020 1A70     		strb	r2, [r3]
 704              	.L62:
 639:.\Generated_Source\PSoC5/Camera_I2C_MASTER.c ****         }
 640:.\Generated_Source\PSoC5/Camera_I2C_MASTER.c **** 
 641:.\Generated_Source\PSoC5/Camera_I2C_MASTER.c ****         /* Wait until data byte has been received */
 642:.\Generated_Source\PSoC5/Camera_I2C_MASTER.c ****         while(Camera_I2C_WAIT_BYTE_COMPLETE(Camera_I2C_CSR_REG))
 705              		.loc 1 642 0 discriminator 1
 706 0022 0B4A     		ldr	r2, .L67+8
 707              	.L65:
 708 0024 1378     		ldrb	r3, [r2]	@ zero_extendqisi2
 709 0026 13F0010F 		tst	r3, #1
 710 002a FBD0     		beq	.L65
 643:.\Generated_Source\PSoC5/Camera_I2C_MASTER.c ****         {
 644:.\Generated_Source\PSoC5/Camera_I2C_MASTER.c ****         }
 645:.\Generated_Source\PSoC5/Camera_I2C_MASTER.c **** 
ARM GAS  C:\Users\Nick\AppData\Local\Temp\ccWNoN6f.s 			page 25


 646:.\Generated_Source\PSoC5/Camera_I2C_MASTER.c ****         theByte = Camera_I2C_DATA_REG;
 711              		.loc 1 646 0
 712 002c 094B     		ldr	r3, .L67+12
 713 002e 1878     		ldrb	r0, [r3]	@ zero_extendqisi2
 714              	.LVL70:
 715 0030 C0B2     		uxtb	r0, r0
 716              	.LVL71:
 647:.\Generated_Source\PSoC5/Camera_I2C_MASTER.c **** 
 648:.\Generated_Source\PSoC5/Camera_I2C_MASTER.c ****         /* Command ACK to receive next byte and continue transfer.
 649:.\Generated_Source\PSoC5/Camera_I2C_MASTER.c ****         *  Do nothing for NACK. The NACK will be generated by
 650:.\Generated_Source\PSoC5/Camera_I2C_MASTER.c ****         *  Stop or ReStart routine.
 651:.\Generated_Source\PSoC5/Camera_I2C_MASTER.c ****         */
 652:.\Generated_Source\PSoC5/Camera_I2C_MASTER.c ****         if(acknNak != 0u) /* Generate ACK */
 717              		.loc 1 652 0
 718 0032 19B1     		cbz	r1, .L63
 653:.\Generated_Source\PSoC5/Camera_I2C_MASTER.c ****         {
 654:.\Generated_Source\PSoC5/Camera_I2C_MASTER.c ****             Camera_I2C_ACK_AND_RECEIVE_MANUAL;
 719              		.loc 1 654 0
 720 0034 1022     		movs	r2, #16
 721 0036 013B     		subs	r3, r3, #1
 722 0038 1A70     		strb	r2, [r3]
 723 003a 7047     		bx	lr
 724              	.L63:
 655:.\Generated_Source\PSoC5/Camera_I2C_MASTER.c ****         }
 656:.\Generated_Source\PSoC5/Camera_I2C_MASTER.c ****         else              /* Do nothing for the follwong NACK */
 657:.\Generated_Source\PSoC5/Camera_I2C_MASTER.c ****         {
 658:.\Generated_Source\PSoC5/Camera_I2C_MASTER.c ****             Camera_I2C_state = Camera_I2C_SM_MSTR_HALT;
 725              		.loc 1 658 0
 726 003c 6022     		movs	r2, #96
 727 003e 034B     		ldr	r3, .L67+4
 728 0040 1A70     		strb	r2, [r3]
 729 0042 7047     		bx	lr
 730              	.LVL72:
 731              	.L64:
 627:.\Generated_Source\PSoC5/Camera_I2C_MASTER.c ****     theByte = 0u;
 732              		.loc 1 627 0
 733 0044 0020     		movs	r0, #0
 734              	.LVL73:
 659:.\Generated_Source\PSoC5/Camera_I2C_MASTER.c ****         }
 660:.\Generated_Source\PSoC5/Camera_I2C_MASTER.c ****     }
 661:.\Generated_Source\PSoC5/Camera_I2C_MASTER.c **** 
 662:.\Generated_Source\PSoC5/Camera_I2C_MASTER.c ****     return(theByte);
 663:.\Generated_Source\PSoC5/Camera_I2C_MASTER.c **** }
 735              		.loc 1 663 0
 736 0046 7047     		bx	lr
 737              	.L68:
 738              		.align	2
 739              	.L67:
 740 0048 D9490040 		.word	1073760729
 741 004c 00000000 		.word	Camera_I2C_state
 742 0050 D7490040 		.word	1073760727
 743 0054 D8490040 		.word	1073760728
 744              		.cfi_endproc
 745              	.LFE6:
 746              		.size	Camera_I2C_MasterReadByte, .-Camera_I2C_MasterReadByte
 747              		.section	.text.Camera_I2C_MasterStatus,"ax",%progbits
 748              		.align	2
ARM GAS  C:\Users\Nick\AppData\Local\Temp\ccWNoN6f.s 			page 26


 749              		.global	Camera_I2C_MasterStatus
 750              		.thumb
 751              		.thumb_func
 752              		.type	Camera_I2C_MasterStatus, %function
 753              	Camera_I2C_MasterStatus:
 754              	.LFB7:
 664:.\Generated_Source\PSoC5/Camera_I2C_MASTER.c **** 
 665:.\Generated_Source\PSoC5/Camera_I2C_MASTER.c **** 
 666:.\Generated_Source\PSoC5/Camera_I2C_MASTER.c **** /*******************************************************************************
 667:.\Generated_Source\PSoC5/Camera_I2C_MASTER.c **** * Function Name: Camera_I2C_MasterStatus
 668:.\Generated_Source\PSoC5/Camera_I2C_MASTER.c **** ********************************************************************************
 669:.\Generated_Source\PSoC5/Camera_I2C_MASTER.c **** *
 670:.\Generated_Source\PSoC5/Camera_I2C_MASTER.c **** * Summary:
 671:.\Generated_Source\PSoC5/Camera_I2C_MASTER.c **** *  Returns the master's communication status.
 672:.\Generated_Source\PSoC5/Camera_I2C_MASTER.c **** *
 673:.\Generated_Source\PSoC5/Camera_I2C_MASTER.c **** * Parameters:
 674:.\Generated_Source\PSoC5/Camera_I2C_MASTER.c **** *  None.
 675:.\Generated_Source\PSoC5/Camera_I2C_MASTER.c **** *
 676:.\Generated_Source\PSoC5/Camera_I2C_MASTER.c **** * Return:
 677:.\Generated_Source\PSoC5/Camera_I2C_MASTER.c **** *  Current status of I2C master.
 678:.\Generated_Source\PSoC5/Camera_I2C_MASTER.c **** *
 679:.\Generated_Source\PSoC5/Camera_I2C_MASTER.c **** * Global variables:
 680:.\Generated_Source\PSoC5/Camera_I2C_MASTER.c **** *  Camera_I2C_mstrStatus - The global variable used to store a current
 681:.\Generated_Source\PSoC5/Camera_I2C_MASTER.c **** *                                status of the I2C Master.
 682:.\Generated_Source\PSoC5/Camera_I2C_MASTER.c **** *
 683:.\Generated_Source\PSoC5/Camera_I2C_MASTER.c **** *******************************************************************************/
 684:.\Generated_Source\PSoC5/Camera_I2C_MASTER.c **** uint8 Camera_I2C_MasterStatus(void) 
 685:.\Generated_Source\PSoC5/Camera_I2C_MASTER.c **** {
 755              		.loc 1 685 0
 756              		.cfi_startproc
 757              		@ args = 0, pretend = 0, frame = 0
 758              		@ frame_needed = 0, uses_anonymous_args = 0
 759              		@ link register save eliminated.
 686:.\Generated_Source\PSoC5/Camera_I2C_MASTER.c ****     uint8 status;
 687:.\Generated_Source\PSoC5/Camera_I2C_MASTER.c **** 
 688:.\Generated_Source\PSoC5/Camera_I2C_MASTER.c ****     Camera_I2C_DisableInt(); /* Lock from interrupt */
 760              		.loc 1 688 0
 761 0000 4FF40042 		mov	r2, #32768
 762 0004 084B     		ldr	r3, .L71
 763 0006 1A60     		str	r2, [r3]
 689:.\Generated_Source\PSoC5/Camera_I2C_MASTER.c **** 
 690:.\Generated_Source\PSoC5/Camera_I2C_MASTER.c ****     /* Read master status */
 691:.\Generated_Source\PSoC5/Camera_I2C_MASTER.c ****     status = Camera_I2C_mstrStatus;
 764              		.loc 1 691 0
 765 0008 084B     		ldr	r3, .L71+4
 766 000a 1878     		ldrb	r0, [r3]	@ zero_extendqisi2
 767 000c C0B2     		uxtb	r0, r0
 768              	.LVL74:
 692:.\Generated_Source\PSoC5/Camera_I2C_MASTER.c **** 
 693:.\Generated_Source\PSoC5/Camera_I2C_MASTER.c ****     if (Camera_I2C_CHECK_SM_MASTER)
 769              		.loc 1 693 0
 770 000e 084B     		ldr	r3, .L71+8
 771 0010 1B78     		ldrb	r3, [r3]	@ zero_extendqisi2
 772 0012 13F0400F 		tst	r3, #64
 773 0016 01D0     		beq	.L70
 694:.\Generated_Source\PSoC5/Camera_I2C_MASTER.c ****     {
 695:.\Generated_Source\PSoC5/Camera_I2C_MASTER.c ****         /* Set transfer in progress flag in status */
ARM GAS  C:\Users\Nick\AppData\Local\Temp\ccWNoN6f.s 			page 27


 696:.\Generated_Source\PSoC5/Camera_I2C_MASTER.c ****         status |= Camera_I2C_MSTAT_XFER_INP;
 774              		.loc 1 696 0
 775 0018 40F00400 		orr	r0, r0, #4
 776              	.LVL75:
 777              	.L70:
 697:.\Generated_Source\PSoC5/Camera_I2C_MASTER.c ****     }
 698:.\Generated_Source\PSoC5/Camera_I2C_MASTER.c **** 
 699:.\Generated_Source\PSoC5/Camera_I2C_MASTER.c ****     Camera_I2C_EnableInt(); /* Release lock */
 778              		.loc 1 699 0
 779 001c 4FF40042 		mov	r2, #32768
 780 0020 044B     		ldr	r3, .L71+12
 781 0022 1A60     		str	r2, [r3]
 700:.\Generated_Source\PSoC5/Camera_I2C_MASTER.c **** 
 701:.\Generated_Source\PSoC5/Camera_I2C_MASTER.c ****     return (status);
 702:.\Generated_Source\PSoC5/Camera_I2C_MASTER.c **** }
 782              		.loc 1 702 0
 783 0024 7047     		bx	lr
 784              	.L72:
 785 0026 00BF     		.align	2
 786              	.L71:
 787 0028 80E100E0 		.word	-536813184
 788 002c 00000000 		.word	Camera_I2C_mstrStatus
 789 0030 00000000 		.word	Camera_I2C_state
 790 0034 00E100E0 		.word	-536813312
 791              		.cfi_endproc
 792              	.LFE7:
 793              		.size	Camera_I2C_MasterStatus, .-Camera_I2C_MasterStatus
 794              		.section	.text.Camera_I2C_MasterClearStatus,"ax",%progbits
 795              		.align	2
 796              		.global	Camera_I2C_MasterClearStatus
 797              		.thumb
 798              		.thumb_func
 799              		.type	Camera_I2C_MasterClearStatus, %function
 800              	Camera_I2C_MasterClearStatus:
 801              	.LFB8:
 703:.\Generated_Source\PSoC5/Camera_I2C_MASTER.c **** 
 704:.\Generated_Source\PSoC5/Camera_I2C_MASTER.c **** 
 705:.\Generated_Source\PSoC5/Camera_I2C_MASTER.c **** /*******************************************************************************
 706:.\Generated_Source\PSoC5/Camera_I2C_MASTER.c **** * Function Name: Camera_I2C_MasterClearStatus
 707:.\Generated_Source\PSoC5/Camera_I2C_MASTER.c **** ********************************************************************************
 708:.\Generated_Source\PSoC5/Camera_I2C_MASTER.c **** *
 709:.\Generated_Source\PSoC5/Camera_I2C_MASTER.c **** * Summary:
 710:.\Generated_Source\PSoC5/Camera_I2C_MASTER.c **** *  Clears all status flags and returns the master status.
 711:.\Generated_Source\PSoC5/Camera_I2C_MASTER.c **** *
 712:.\Generated_Source\PSoC5/Camera_I2C_MASTER.c **** * Parameters:
 713:.\Generated_Source\PSoC5/Camera_I2C_MASTER.c **** *  None.
 714:.\Generated_Source\PSoC5/Camera_I2C_MASTER.c **** *
 715:.\Generated_Source\PSoC5/Camera_I2C_MASTER.c **** * Return:
 716:.\Generated_Source\PSoC5/Camera_I2C_MASTER.c **** *  Current status of I2C master.
 717:.\Generated_Source\PSoC5/Camera_I2C_MASTER.c **** *
 718:.\Generated_Source\PSoC5/Camera_I2C_MASTER.c **** * Global variables:
 719:.\Generated_Source\PSoC5/Camera_I2C_MASTER.c **** *  Camera_I2C_mstrStatus - The global variable used to store a current
 720:.\Generated_Source\PSoC5/Camera_I2C_MASTER.c **** *                                status of the I2C Master.
 721:.\Generated_Source\PSoC5/Camera_I2C_MASTER.c **** *
 722:.\Generated_Source\PSoC5/Camera_I2C_MASTER.c **** * Reentrant:
 723:.\Generated_Source\PSoC5/Camera_I2C_MASTER.c **** *  No.
 724:.\Generated_Source\PSoC5/Camera_I2C_MASTER.c **** *
ARM GAS  C:\Users\Nick\AppData\Local\Temp\ccWNoN6f.s 			page 28


 725:.\Generated_Source\PSoC5/Camera_I2C_MASTER.c **** *******************************************************************************/
 726:.\Generated_Source\PSoC5/Camera_I2C_MASTER.c **** uint8 Camera_I2C_MasterClearStatus(void) 
 727:.\Generated_Source\PSoC5/Camera_I2C_MASTER.c **** {
 802              		.loc 1 727 0
 803              		.cfi_startproc
 804              		@ args = 0, pretend = 0, frame = 0
 805              		@ frame_needed = 0, uses_anonymous_args = 0
 806              		@ link register save eliminated.
 728:.\Generated_Source\PSoC5/Camera_I2C_MASTER.c ****     uint8 status;
 729:.\Generated_Source\PSoC5/Camera_I2C_MASTER.c **** 
 730:.\Generated_Source\PSoC5/Camera_I2C_MASTER.c ****     Camera_I2C_DisableInt(); /* Lock from interrupt */
 807              		.loc 1 730 0
 808 0000 4FF40043 		mov	r3, #32768
 809 0004 044A     		ldr	r2, .L74
 810 0006 1360     		str	r3, [r2]
 731:.\Generated_Source\PSoC5/Camera_I2C_MASTER.c **** 
 732:.\Generated_Source\PSoC5/Camera_I2C_MASTER.c ****     /* Read and clear master status */
 733:.\Generated_Source\PSoC5/Camera_I2C_MASTER.c ****     status = Camera_I2C_mstrStatus;
 811              		.loc 1 733 0
 812 0008 044A     		ldr	r2, .L74+4
 813 000a 1078     		ldrb	r0, [r2]	@ zero_extendqisi2
 814              	.LVL76:
 734:.\Generated_Source\PSoC5/Camera_I2C_MASTER.c ****     Camera_I2C_mstrStatus = Camera_I2C_MSTAT_CLEAR;
 815              		.loc 1 734 0
 816 000c 0021     		movs	r1, #0
 817 000e 1170     		strb	r1, [r2]
 735:.\Generated_Source\PSoC5/Camera_I2C_MASTER.c **** 
 736:.\Generated_Source\PSoC5/Camera_I2C_MASTER.c ****     Camera_I2C_EnableInt(); /* Release lock */
 818              		.loc 1 736 0
 819 0010 034A     		ldr	r2, .L74+8
 820 0012 1360     		str	r3, [r2]
 737:.\Generated_Source\PSoC5/Camera_I2C_MASTER.c **** 
 738:.\Generated_Source\PSoC5/Camera_I2C_MASTER.c ****     return (status);
 739:.\Generated_Source\PSoC5/Camera_I2C_MASTER.c **** }
 821              		.loc 1 739 0
 822 0014 7047     		bx	lr
 823              	.L75:
 824 0016 00BF     		.align	2
 825              	.L74:
 826 0018 80E100E0 		.word	-536813184
 827 001c 00000000 		.word	Camera_I2C_mstrStatus
 828 0020 00E100E0 		.word	-536813312
 829              		.cfi_endproc
 830              	.LFE8:
 831              		.size	Camera_I2C_MasterClearStatus, .-Camera_I2C_MasterClearStatus
 832              		.section	.text.Camera_I2C_MasterGetReadBufSize,"ax",%progbits
 833              		.align	2
 834              		.global	Camera_I2C_MasterGetReadBufSize
 835              		.thumb
 836              		.thumb_func
 837              		.type	Camera_I2C_MasterGetReadBufSize, %function
 838              	Camera_I2C_MasterGetReadBufSize:
 839              	.LFB9:
 740:.\Generated_Source\PSoC5/Camera_I2C_MASTER.c **** 
 741:.\Generated_Source\PSoC5/Camera_I2C_MASTER.c **** 
 742:.\Generated_Source\PSoC5/Camera_I2C_MASTER.c **** /*******************************************************************************
 743:.\Generated_Source\PSoC5/Camera_I2C_MASTER.c **** * Function Name: Camera_I2C_MasterGetReadBufSize
ARM GAS  C:\Users\Nick\AppData\Local\Temp\ccWNoN6f.s 			page 29


 744:.\Generated_Source\PSoC5/Camera_I2C_MASTER.c **** ********************************************************************************
 745:.\Generated_Source\PSoC5/Camera_I2C_MASTER.c **** *
 746:.\Generated_Source\PSoC5/Camera_I2C_MASTER.c **** * Summary:
 747:.\Generated_Source\PSoC5/Camera_I2C_MASTER.c **** *  Returns the amount of bytes that has been transferred with an
 748:.\Generated_Source\PSoC5/Camera_I2C_MASTER.c **** *  I2C_MasterReadBuf command.
 749:.\Generated_Source\PSoC5/Camera_I2C_MASTER.c **** *
 750:.\Generated_Source\PSoC5/Camera_I2C_MASTER.c **** * Parameters:
 751:.\Generated_Source\PSoC5/Camera_I2C_MASTER.c **** *  None.
 752:.\Generated_Source\PSoC5/Camera_I2C_MASTER.c **** *
 753:.\Generated_Source\PSoC5/Camera_I2C_MASTER.c **** * Return:
 754:.\Generated_Source\PSoC5/Camera_I2C_MASTER.c **** *  Byte count of transfer. If the transfer is not yet complete, it will return
 755:.\Generated_Source\PSoC5/Camera_I2C_MASTER.c **** *  the byte count transferred so far.
 756:.\Generated_Source\PSoC5/Camera_I2C_MASTER.c **** *
 757:.\Generated_Source\PSoC5/Camera_I2C_MASTER.c **** * Global variables:
 758:.\Generated_Source\PSoC5/Camera_I2C_MASTER.c **** *  Camera_I2C_mstrRdBufIndex - The global variable stores current index
 759:.\Generated_Source\PSoC5/Camera_I2C_MASTER.c **** *                                    within the master read buffer.
 760:.\Generated_Source\PSoC5/Camera_I2C_MASTER.c **** *
 761:.\Generated_Source\PSoC5/Camera_I2C_MASTER.c **** *******************************************************************************/
 762:.\Generated_Source\PSoC5/Camera_I2C_MASTER.c **** uint8 Camera_I2C_MasterGetReadBufSize(void) 
 763:.\Generated_Source\PSoC5/Camera_I2C_MASTER.c **** {
 840              		.loc 1 763 0
 841              		.cfi_startproc
 842              		@ args = 0, pretend = 0, frame = 0
 843              		@ frame_needed = 0, uses_anonymous_args = 0
 844              		@ link register save eliminated.
 764:.\Generated_Source\PSoC5/Camera_I2C_MASTER.c ****     return (Camera_I2C_mstrRdBufIndex);
 845              		.loc 1 764 0
 846 0000 014B     		ldr	r3, .L77
 847 0002 1878     		ldrb	r0, [r3]	@ zero_extendqisi2
 765:.\Generated_Source\PSoC5/Camera_I2C_MASTER.c **** }
 848              		.loc 1 765 0
 849 0004 7047     		bx	lr
 850              	.L78:
 851 0006 00BF     		.align	2
 852              	.L77:
 853 0008 00000000 		.word	Camera_I2C_mstrRdBufIndex
 854              		.cfi_endproc
 855              	.LFE9:
 856              		.size	Camera_I2C_MasterGetReadBufSize, .-Camera_I2C_MasterGetReadBufSize
 857              		.section	.text.Camera_I2C_MasterGetWriteBufSize,"ax",%progbits
 858              		.align	2
 859              		.global	Camera_I2C_MasterGetWriteBufSize
 860              		.thumb
 861              		.thumb_func
 862              		.type	Camera_I2C_MasterGetWriteBufSize, %function
 863              	Camera_I2C_MasterGetWriteBufSize:
 864              	.LFB10:
 766:.\Generated_Source\PSoC5/Camera_I2C_MASTER.c **** 
 767:.\Generated_Source\PSoC5/Camera_I2C_MASTER.c **** 
 768:.\Generated_Source\PSoC5/Camera_I2C_MASTER.c **** /*******************************************************************************
 769:.\Generated_Source\PSoC5/Camera_I2C_MASTER.c **** * Function Name: Camera_I2C_MasterGetWriteBufSize
 770:.\Generated_Source\PSoC5/Camera_I2C_MASTER.c **** ********************************************************************************
 771:.\Generated_Source\PSoC5/Camera_I2C_MASTER.c **** *
 772:.\Generated_Source\PSoC5/Camera_I2C_MASTER.c **** * Summary:
 773:.\Generated_Source\PSoC5/Camera_I2C_MASTER.c **** *  Returns the amount of bytes that has been transferred with an
 774:.\Generated_Source\PSoC5/Camera_I2C_MASTER.c **** *  I2C_MasterWriteBuf command.
 775:.\Generated_Source\PSoC5/Camera_I2C_MASTER.c **** *
ARM GAS  C:\Users\Nick\AppData\Local\Temp\ccWNoN6f.s 			page 30


 776:.\Generated_Source\PSoC5/Camera_I2C_MASTER.c **** * Parameters:
 777:.\Generated_Source\PSoC5/Camera_I2C_MASTER.c **** *  None.
 778:.\Generated_Source\PSoC5/Camera_I2C_MASTER.c **** *
 779:.\Generated_Source\PSoC5/Camera_I2C_MASTER.c **** * Return:
 780:.\Generated_Source\PSoC5/Camera_I2C_MASTER.c **** *  Byte count of transfer. If the transfer is not yet complete, it will return
 781:.\Generated_Source\PSoC5/Camera_I2C_MASTER.c **** *  the byte count transferred so far.
 782:.\Generated_Source\PSoC5/Camera_I2C_MASTER.c **** *
 783:.\Generated_Source\PSoC5/Camera_I2C_MASTER.c **** * Global variables:
 784:.\Generated_Source\PSoC5/Camera_I2C_MASTER.c **** *  Camera_I2C_mstrWrBufIndex -  The global variable used to stores current
 785:.\Generated_Source\PSoC5/Camera_I2C_MASTER.c **** *                                     index within master write buffer.
 786:.\Generated_Source\PSoC5/Camera_I2C_MASTER.c **** *
 787:.\Generated_Source\PSoC5/Camera_I2C_MASTER.c **** *******************************************************************************/
 788:.\Generated_Source\PSoC5/Camera_I2C_MASTER.c **** uint8 Camera_I2C_MasterGetWriteBufSize(void) 
 789:.\Generated_Source\PSoC5/Camera_I2C_MASTER.c **** {
 865              		.loc 1 789 0
 866              		.cfi_startproc
 867              		@ args = 0, pretend = 0, frame = 0
 868              		@ frame_needed = 0, uses_anonymous_args = 0
 869              		@ link register save eliminated.
 790:.\Generated_Source\PSoC5/Camera_I2C_MASTER.c ****     return (Camera_I2C_mstrWrBufIndex);
 870              		.loc 1 790 0
 871 0000 014B     		ldr	r3, .L80
 872 0002 1878     		ldrb	r0, [r3]	@ zero_extendqisi2
 791:.\Generated_Source\PSoC5/Camera_I2C_MASTER.c **** }
 873              		.loc 1 791 0
 874 0004 7047     		bx	lr
 875              	.L81:
 876 0006 00BF     		.align	2
 877              	.L80:
 878 0008 00000000 		.word	Camera_I2C_mstrWrBufIndex
 879              		.cfi_endproc
 880              	.LFE10:
 881              		.size	Camera_I2C_MasterGetWriteBufSize, .-Camera_I2C_MasterGetWriteBufSize
 882              		.section	.text.Camera_I2C_MasterClearReadBuf,"ax",%progbits
 883              		.align	2
 884              		.global	Camera_I2C_MasterClearReadBuf
 885              		.thumb
 886              		.thumb_func
 887              		.type	Camera_I2C_MasterClearReadBuf, %function
 888              	Camera_I2C_MasterClearReadBuf:
 889              	.LFB11:
 792:.\Generated_Source\PSoC5/Camera_I2C_MASTER.c **** 
 793:.\Generated_Source\PSoC5/Camera_I2C_MASTER.c **** 
 794:.\Generated_Source\PSoC5/Camera_I2C_MASTER.c **** /*******************************************************************************
 795:.\Generated_Source\PSoC5/Camera_I2C_MASTER.c **** * Function Name: Camera_I2C_MasterClearReadBuf
 796:.\Generated_Source\PSoC5/Camera_I2C_MASTER.c **** ********************************************************************************
 797:.\Generated_Source\PSoC5/Camera_I2C_MASTER.c **** *
 798:.\Generated_Source\PSoC5/Camera_I2C_MASTER.c **** * Summary:
 799:.\Generated_Source\PSoC5/Camera_I2C_MASTER.c **** *  Resets the read buffer pointer back to the first byte in the buffer.
 800:.\Generated_Source\PSoC5/Camera_I2C_MASTER.c **** *
 801:.\Generated_Source\PSoC5/Camera_I2C_MASTER.c **** * Parameters:
 802:.\Generated_Source\PSoC5/Camera_I2C_MASTER.c **** *  None.
 803:.\Generated_Source\PSoC5/Camera_I2C_MASTER.c **** *
 804:.\Generated_Source\PSoC5/Camera_I2C_MASTER.c **** * Return:
 805:.\Generated_Source\PSoC5/Camera_I2C_MASTER.c **** *  None.
 806:.\Generated_Source\PSoC5/Camera_I2C_MASTER.c **** *
 807:.\Generated_Source\PSoC5/Camera_I2C_MASTER.c **** * Global variables:
ARM GAS  C:\Users\Nick\AppData\Local\Temp\ccWNoN6f.s 			page 31


 808:.\Generated_Source\PSoC5/Camera_I2C_MASTER.c **** *  Camera_I2C_mstrRdBufIndex - The global variable used to stores current
 809:.\Generated_Source\PSoC5/Camera_I2C_MASTER.c **** *                                    index within master read buffer.
 810:.\Generated_Source\PSoC5/Camera_I2C_MASTER.c **** *  Camera_I2C_mstrStatus - The global variable used to store a current
 811:.\Generated_Source\PSoC5/Camera_I2C_MASTER.c **** *                                status of the I2C Master.
 812:.\Generated_Source\PSoC5/Camera_I2C_MASTER.c **** *
 813:.\Generated_Source\PSoC5/Camera_I2C_MASTER.c **** * Reentrant:
 814:.\Generated_Source\PSoC5/Camera_I2C_MASTER.c **** *  No.
 815:.\Generated_Source\PSoC5/Camera_I2C_MASTER.c **** *
 816:.\Generated_Source\PSoC5/Camera_I2C_MASTER.c **** *******************************************************************************/
 817:.\Generated_Source\PSoC5/Camera_I2C_MASTER.c **** void Camera_I2C_MasterClearReadBuf(void) 
 818:.\Generated_Source\PSoC5/Camera_I2C_MASTER.c **** {
 890              		.loc 1 818 0
 891              		.cfi_startproc
 892              		@ args = 0, pretend = 0, frame = 0
 893              		@ frame_needed = 0, uses_anonymous_args = 0
 894              		@ link register save eliminated.
 819:.\Generated_Source\PSoC5/Camera_I2C_MASTER.c ****     Camera_I2C_DisableInt(); /* Lock from interrupt */
 895              		.loc 1 819 0
 896 0000 4FF40043 		mov	r3, #32768
 897 0004 064A     		ldr	r2, .L83
 898 0006 1360     		str	r3, [r2]
 820:.\Generated_Source\PSoC5/Camera_I2C_MASTER.c **** 
 821:.\Generated_Source\PSoC5/Camera_I2C_MASTER.c ****     Camera_I2C_mstrRdBufIndex = 0u;
 899              		.loc 1 821 0
 900 0008 0021     		movs	r1, #0
 901 000a 064A     		ldr	r2, .L83+4
 902 000c 1170     		strb	r1, [r2]
 822:.\Generated_Source\PSoC5/Camera_I2C_MASTER.c ****     Camera_I2C_mstrStatus    &= (uint8) ~Camera_I2C_MSTAT_RD_CMPLT;
 903              		.loc 1 822 0
 904 000e 064A     		ldr	r2, .L83+8
 905 0010 1178     		ldrb	r1, [r2]	@ zero_extendqisi2
 906 0012 01F0FE01 		and	r1, r1, #254
 907 0016 1170     		strb	r1, [r2]
 823:.\Generated_Source\PSoC5/Camera_I2C_MASTER.c **** 
 824:.\Generated_Source\PSoC5/Camera_I2C_MASTER.c ****     Camera_I2C_EnableInt(); /* Release lock */
 908              		.loc 1 824 0
 909 0018 044A     		ldr	r2, .L83+12
 910 001a 1360     		str	r3, [r2]
 911 001c 7047     		bx	lr
 912              	.L84:
 913 001e 00BF     		.align	2
 914              	.L83:
 915 0020 80E100E0 		.word	-536813184
 916 0024 00000000 		.word	Camera_I2C_mstrRdBufIndex
 917 0028 00000000 		.word	Camera_I2C_mstrStatus
 918 002c 00E100E0 		.word	-536813312
 919              		.cfi_endproc
 920              	.LFE11:
 921              		.size	Camera_I2C_MasterClearReadBuf, .-Camera_I2C_MasterClearReadBuf
 922              		.section	.text.Camera_I2C_MasterClearWriteBuf,"ax",%progbits
 923              		.align	2
 924              		.global	Camera_I2C_MasterClearWriteBuf
 925              		.thumb
 926              		.thumb_func
 927              		.type	Camera_I2C_MasterClearWriteBuf, %function
 928              	Camera_I2C_MasterClearWriteBuf:
 929              	.LFB12:
ARM GAS  C:\Users\Nick\AppData\Local\Temp\ccWNoN6f.s 			page 32


 825:.\Generated_Source\PSoC5/Camera_I2C_MASTER.c **** }
 826:.\Generated_Source\PSoC5/Camera_I2C_MASTER.c **** 
 827:.\Generated_Source\PSoC5/Camera_I2C_MASTER.c **** 
 828:.\Generated_Source\PSoC5/Camera_I2C_MASTER.c **** /*******************************************************************************
 829:.\Generated_Source\PSoC5/Camera_I2C_MASTER.c **** * Function Name: Camera_I2C_MasterClearWriteBuf
 830:.\Generated_Source\PSoC5/Camera_I2C_MASTER.c **** ********************************************************************************
 831:.\Generated_Source\PSoC5/Camera_I2C_MASTER.c **** *
 832:.\Generated_Source\PSoC5/Camera_I2C_MASTER.c **** * Summary:
 833:.\Generated_Source\PSoC5/Camera_I2C_MASTER.c **** *  Resets the write buffer pointer back to the first byte in the buffer.
 834:.\Generated_Source\PSoC5/Camera_I2C_MASTER.c **** *
 835:.\Generated_Source\PSoC5/Camera_I2C_MASTER.c **** * Parameters:
 836:.\Generated_Source\PSoC5/Camera_I2C_MASTER.c **** *  None.
 837:.\Generated_Source\PSoC5/Camera_I2C_MASTER.c **** *
 838:.\Generated_Source\PSoC5/Camera_I2C_MASTER.c **** * Return:
 839:.\Generated_Source\PSoC5/Camera_I2C_MASTER.c **** *  None.
 840:.\Generated_Source\PSoC5/Camera_I2C_MASTER.c **** *
 841:.\Generated_Source\PSoC5/Camera_I2C_MASTER.c **** * Global variables:
 842:.\Generated_Source\PSoC5/Camera_I2C_MASTER.c **** *  Camera_I2C_mstrRdBufIndex - The global variable used to stote current
 843:.\Generated_Source\PSoC5/Camera_I2C_MASTER.c **** *                                    index within master read buffer.
 844:.\Generated_Source\PSoC5/Camera_I2C_MASTER.c **** *  Camera_I2C_mstrStatus - The global variable used to store a current
 845:.\Generated_Source\PSoC5/Camera_I2C_MASTER.c **** *                                status of the I2C Master.
 846:.\Generated_Source\PSoC5/Camera_I2C_MASTER.c **** *
 847:.\Generated_Source\PSoC5/Camera_I2C_MASTER.c **** * Reentrant:
 848:.\Generated_Source\PSoC5/Camera_I2C_MASTER.c **** *  No.
 849:.\Generated_Source\PSoC5/Camera_I2C_MASTER.c **** *
 850:.\Generated_Source\PSoC5/Camera_I2C_MASTER.c **** *******************************************************************************/
 851:.\Generated_Source\PSoC5/Camera_I2C_MASTER.c **** void Camera_I2C_MasterClearWriteBuf(void) 
 852:.\Generated_Source\PSoC5/Camera_I2C_MASTER.c **** {
 930              		.loc 1 852 0
 931              		.cfi_startproc
 932              		@ args = 0, pretend = 0, frame = 0
 933              		@ frame_needed = 0, uses_anonymous_args = 0
 934              		@ link register save eliminated.
 853:.\Generated_Source\PSoC5/Camera_I2C_MASTER.c ****     Camera_I2C_DisableInt(); /* Lock from interrupt */
 935              		.loc 1 853 0
 936 0000 4FF40043 		mov	r3, #32768
 937 0004 064A     		ldr	r2, .L86
 938 0006 1360     		str	r3, [r2]
 854:.\Generated_Source\PSoC5/Camera_I2C_MASTER.c **** 
 855:.\Generated_Source\PSoC5/Camera_I2C_MASTER.c ****     Camera_I2C_mstrWrBufIndex = 0u;
 939              		.loc 1 855 0
 940 0008 0021     		movs	r1, #0
 941 000a 064A     		ldr	r2, .L86+4
 942 000c 1170     		strb	r1, [r2]
 856:.\Generated_Source\PSoC5/Camera_I2C_MASTER.c ****     Camera_I2C_mstrStatus    &= (uint8) ~Camera_I2C_MSTAT_WR_CMPLT;
 943              		.loc 1 856 0
 944 000e 064A     		ldr	r2, .L86+8
 945 0010 1178     		ldrb	r1, [r2]	@ zero_extendqisi2
 946 0012 01F0FD01 		and	r1, r1, #253
 947 0016 1170     		strb	r1, [r2]
 857:.\Generated_Source\PSoC5/Camera_I2C_MASTER.c **** 
 858:.\Generated_Source\PSoC5/Camera_I2C_MASTER.c ****     Camera_I2C_EnableInt(); /* Release lock */
 948              		.loc 1 858 0
 949 0018 044A     		ldr	r2, .L86+12
 950 001a 1360     		str	r3, [r2]
 951 001c 7047     		bx	lr
 952              	.L87:
ARM GAS  C:\Users\Nick\AppData\Local\Temp\ccWNoN6f.s 			page 33


 953 001e 00BF     		.align	2
 954              	.L86:
 955 0020 80E100E0 		.word	-536813184
 956 0024 00000000 		.word	Camera_I2C_mstrWrBufIndex
 957 0028 00000000 		.word	Camera_I2C_mstrStatus
 958 002c 00E100E0 		.word	-536813312
 959              		.cfi_endproc
 960              	.LFE12:
 961              		.size	Camera_I2C_MasterClearWriteBuf, .-Camera_I2C_MasterClearWriteBuf
 962              		.comm	Camera_I2C_mstrWrBufIndex,1,1
 963              		.comm	Camera_I2C_mstrWrBufSize,1,1
 964              		.comm	Camera_I2C_mstrWrBufPtr,4,4
 965              		.comm	Camera_I2C_mstrRdBufIndex,1,1
 966              		.comm	Camera_I2C_mstrRdBufSize,1,1
 967              		.comm	Camera_I2C_mstrRdBufPtr,4,4
 968              		.comm	Camera_I2C_mstrControl,1,1
 969              		.comm	Camera_I2C_mstrStatus,1,1
 970              		.text
 971              	.Letext0:
 972              		.file 2 ".\\Generated_Source\\PSoC5\\cytypes.h"
 973              		.file 3 ".\\Generated_Source\\PSoC5\\Camera_I2C_PVT.h"