ARM GAS  C:\Users\Nick\AppData\Local\Temp\ccjuUlaQ.s 			page 1


   1              		.syntax unified
   2              		.cpu cortex-m3
   3              		.fpu softvfp
   4              		.eabi_attribute 20, 1
   5              		.eabi_attribute 21, 1
   6              		.eabi_attribute 23, 3
   7              		.eabi_attribute 24, 1
   8              		.eabi_attribute 25, 1
   9              		.eabi_attribute 26, 1
  10              		.eabi_attribute 30, 1
  11              		.eabi_attribute 34, 1
  12              		.eabi_attribute 18, 4
  13              		.thumb
  14              		.file	"cyfitter_cfg.c"
  15              		.text
  16              	.Ltext0:
  17              		.cfi_sections	.debug_frame
  18              		.section	.text.CyClockStartupError,"ax",%progbits
  19              		.align	2
  20              		.thumb
  21              		.thumb_func
  22              		.type	CyClockStartupError, %function
  23              	CyClockStartupError:
  24              	.LFB3:
  25              		.file 1 ".\\Generated_Source\\PSoC5\\cyfitter_cfg.c"
   1:.\Generated_Source\PSoC5/cyfitter_cfg.c **** /*******************************************************************************
   2:.\Generated_Source\PSoC5/cyfitter_cfg.c **** * FILENAME: cyfitter_cfg.c
   3:.\Generated_Source\PSoC5/cyfitter_cfg.c **** * 
   4:.\Generated_Source\PSoC5/cyfitter_cfg.c **** * PSoC Creator  3.2 SP1
   5:.\Generated_Source\PSoC5/cyfitter_cfg.c **** *
   6:.\Generated_Source\PSoC5/cyfitter_cfg.c **** * DESCRIPTION:
   7:.\Generated_Source\PSoC5/cyfitter_cfg.c **** * This file contains device initialization code.
   8:.\Generated_Source\PSoC5/cyfitter_cfg.c **** * Except for the user defined sections in CyClockStartupError(), this file should not be modified.
   9:.\Generated_Source\PSoC5/cyfitter_cfg.c **** * This file is automatically generated by PSoC Creator.
  10:.\Generated_Source\PSoC5/cyfitter_cfg.c **** *
  11:.\Generated_Source\PSoC5/cyfitter_cfg.c **** ********************************************************************************
  12:.\Generated_Source\PSoC5/cyfitter_cfg.c **** * Copyright (c) 2007-2015 Cypress Semiconductor.  All rights reserved.
  13:.\Generated_Source\PSoC5/cyfitter_cfg.c **** * You may use this file only in accordance with the license, terms, conditions, 
  14:.\Generated_Source\PSoC5/cyfitter_cfg.c **** * disclaimers, and limitations in the end user license agreement accompanying 
  15:.\Generated_Source\PSoC5/cyfitter_cfg.c **** * the software package with which this file was provided.
  16:.\Generated_Source\PSoC5/cyfitter_cfg.c **** ********************************************************************************/
  17:.\Generated_Source\PSoC5/cyfitter_cfg.c **** 
  18:.\Generated_Source\PSoC5/cyfitter_cfg.c **** #include <string.h>
  19:.\Generated_Source\PSoC5/cyfitter_cfg.c **** #include "cytypes.h"
  20:.\Generated_Source\PSoC5/cyfitter_cfg.c **** #include "cydevice_trm.h"
  21:.\Generated_Source\PSoC5/cyfitter_cfg.c **** #include "cyfitter.h"
  22:.\Generated_Source\PSoC5/cyfitter_cfg.c **** #include "CyLib.h"
  23:.\Generated_Source\PSoC5/cyfitter_cfg.c **** #include "cyfitter_cfg.h"
  24:.\Generated_Source\PSoC5/cyfitter_cfg.c **** 
  25:.\Generated_Source\PSoC5/cyfitter_cfg.c **** #define CY_NEED_CYCLOCKSTARTUPERROR 1
  26:.\Generated_Source\PSoC5/cyfitter_cfg.c **** 
  27:.\Generated_Source\PSoC5/cyfitter_cfg.c **** 
  28:.\Generated_Source\PSoC5/cyfitter_cfg.c **** #if defined(__GNUC__) || defined(__ARMCC_VERSION)
  29:.\Generated_Source\PSoC5/cyfitter_cfg.c ****     #define CYPACKED 
  30:.\Generated_Source\PSoC5/cyfitter_cfg.c ****     #define CYPACKED_ATTR __attribute__ ((packed))
  31:.\Generated_Source\PSoC5/cyfitter_cfg.c ****     #define CYALIGNED __attribute__ ((aligned))
  32:.\Generated_Source\PSoC5/cyfitter_cfg.c ****     #define CY_CFG_UNUSED __attribute__ ((unused))
ARM GAS  C:\Users\Nick\AppData\Local\Temp\ccjuUlaQ.s 			page 2


  33:.\Generated_Source\PSoC5/cyfitter_cfg.c ****     #define CY_CFG_SECTION __attribute__ ((section(".psocinit")))
  34:.\Generated_Source\PSoC5/cyfitter_cfg.c ****     
  35:.\Generated_Source\PSoC5/cyfitter_cfg.c ****     #if defined(__ARMCC_VERSION)
  36:.\Generated_Source\PSoC5/cyfitter_cfg.c ****         #define CY_CFG_MEMORY_BARRIER() __memory_changed()
  37:.\Generated_Source\PSoC5/cyfitter_cfg.c ****     #else
  38:.\Generated_Source\PSoC5/cyfitter_cfg.c ****         #define CY_CFG_MEMORY_BARRIER() __sync_synchronize()
  39:.\Generated_Source\PSoC5/cyfitter_cfg.c ****     #endif
  40:.\Generated_Source\PSoC5/cyfitter_cfg.c ****     
  41:.\Generated_Source\PSoC5/cyfitter_cfg.c **** #elif defined(__ICCARM__)
  42:.\Generated_Source\PSoC5/cyfitter_cfg.c ****     #include <intrinsics.h>
  43:.\Generated_Source\PSoC5/cyfitter_cfg.c **** 
  44:.\Generated_Source\PSoC5/cyfitter_cfg.c ****     #define CYPACKED __packed
  45:.\Generated_Source\PSoC5/cyfitter_cfg.c ****     #define CYPACKED_ATTR 
  46:.\Generated_Source\PSoC5/cyfitter_cfg.c ****     #define CYALIGNED _Pragma("data_alignment=4")
  47:.\Generated_Source\PSoC5/cyfitter_cfg.c ****     #define CY_CFG_UNUSED _Pragma("diag_suppress=Pe177")
  48:.\Generated_Source\PSoC5/cyfitter_cfg.c ****     #define CY_CFG_SECTION _Pragma("location=\".psocinit\"")
  49:.\Generated_Source\PSoC5/cyfitter_cfg.c ****     
  50:.\Generated_Source\PSoC5/cyfitter_cfg.c ****     #define CY_CFG_MEMORY_BARRIER() __DMB()
  51:.\Generated_Source\PSoC5/cyfitter_cfg.c ****     
  52:.\Generated_Source\PSoC5/cyfitter_cfg.c **** #else
  53:.\Generated_Source\PSoC5/cyfitter_cfg.c ****     #error Unsupported toolchain
  54:.\Generated_Source\PSoC5/cyfitter_cfg.c **** #endif
  55:.\Generated_Source\PSoC5/cyfitter_cfg.c **** 
  56:.\Generated_Source\PSoC5/cyfitter_cfg.c **** 
  57:.\Generated_Source\PSoC5/cyfitter_cfg.c **** CY_CFG_UNUSED
  58:.\Generated_Source\PSoC5/cyfitter_cfg.c **** static void CYMEMZERO(void *s, size_t n);
  59:.\Generated_Source\PSoC5/cyfitter_cfg.c **** CY_CFG_UNUSED
  60:.\Generated_Source\PSoC5/cyfitter_cfg.c **** static void CYMEMZERO(void *s, size_t n)
  61:.\Generated_Source\PSoC5/cyfitter_cfg.c **** {
  62:.\Generated_Source\PSoC5/cyfitter_cfg.c **** 	(void)memset(s, 0, n);
  63:.\Generated_Source\PSoC5/cyfitter_cfg.c **** }
  64:.\Generated_Source\PSoC5/cyfitter_cfg.c **** CY_CFG_UNUSED
  65:.\Generated_Source\PSoC5/cyfitter_cfg.c **** static void CYCONFIGCPY(void *dest, const void *src, size_t n);
  66:.\Generated_Source\PSoC5/cyfitter_cfg.c **** CY_CFG_UNUSED
  67:.\Generated_Source\PSoC5/cyfitter_cfg.c **** static void CYCONFIGCPY(void *dest, const void *src, size_t n)
  68:.\Generated_Source\PSoC5/cyfitter_cfg.c **** {
  69:.\Generated_Source\PSoC5/cyfitter_cfg.c **** 	(void)memcpy(dest, src, n);
  70:.\Generated_Source\PSoC5/cyfitter_cfg.c **** }
  71:.\Generated_Source\PSoC5/cyfitter_cfg.c **** CY_CFG_UNUSED
  72:.\Generated_Source\PSoC5/cyfitter_cfg.c **** static void CYCONFIGCPYCODE(void *dest, const void *src, size_t n);
  73:.\Generated_Source\PSoC5/cyfitter_cfg.c **** CY_CFG_UNUSED
  74:.\Generated_Source\PSoC5/cyfitter_cfg.c **** static void CYCONFIGCPYCODE(void *dest, const void *src, size_t n)
  75:.\Generated_Source\PSoC5/cyfitter_cfg.c **** {
  76:.\Generated_Source\PSoC5/cyfitter_cfg.c **** 	(void)memcpy(dest, src, n);
  77:.\Generated_Source\PSoC5/cyfitter_cfg.c **** }
  78:.\Generated_Source\PSoC5/cyfitter_cfg.c **** 
  79:.\Generated_Source\PSoC5/cyfitter_cfg.c **** 
  80:.\Generated_Source\PSoC5/cyfitter_cfg.c **** 
  81:.\Generated_Source\PSoC5/cyfitter_cfg.c **** /* Clock startup error codes                                                   */
  82:.\Generated_Source\PSoC5/cyfitter_cfg.c **** #define CYCLOCKSTART_NO_ERROR    0u
  83:.\Generated_Source\PSoC5/cyfitter_cfg.c **** #define CYCLOCKSTART_XTAL_ERROR  1u
  84:.\Generated_Source\PSoC5/cyfitter_cfg.c **** #define CYCLOCKSTART_32KHZ_ERROR 2u
  85:.\Generated_Source\PSoC5/cyfitter_cfg.c **** #define CYCLOCKSTART_PLL_ERROR   3u
  86:.\Generated_Source\PSoC5/cyfitter_cfg.c **** 
  87:.\Generated_Source\PSoC5/cyfitter_cfg.c **** #ifdef CY_NEED_CYCLOCKSTARTUPERROR
  88:.\Generated_Source\PSoC5/cyfitter_cfg.c **** /*******************************************************************************
  89:.\Generated_Source\PSoC5/cyfitter_cfg.c **** * Function Name: CyClockStartupError
ARM GAS  C:\Users\Nick\AppData\Local\Temp\ccjuUlaQ.s 			page 3


  90:.\Generated_Source\PSoC5/cyfitter_cfg.c **** ********************************************************************************
  91:.\Generated_Source\PSoC5/cyfitter_cfg.c **** * Summary:
  92:.\Generated_Source\PSoC5/cyfitter_cfg.c **** *  If an error is encountered during clock configuration (crystal startup error,
  93:.\Generated_Source\PSoC5/cyfitter_cfg.c **** *  PLL lock error, etc.), the system will end up here.  Unless reimplemented by
  94:.\Generated_Source\PSoC5/cyfitter_cfg.c **** *  the customer, this function will stop in an infinite loop.
  95:.\Generated_Source\PSoC5/cyfitter_cfg.c **** *
  96:.\Generated_Source\PSoC5/cyfitter_cfg.c **** * Parameters:
  97:.\Generated_Source\PSoC5/cyfitter_cfg.c **** *   void
  98:.\Generated_Source\PSoC5/cyfitter_cfg.c **** *
  99:.\Generated_Source\PSoC5/cyfitter_cfg.c **** * Return:
 100:.\Generated_Source\PSoC5/cyfitter_cfg.c **** *   void
 101:.\Generated_Source\PSoC5/cyfitter_cfg.c **** *
 102:.\Generated_Source\PSoC5/cyfitter_cfg.c **** *******************************************************************************/
 103:.\Generated_Source\PSoC5/cyfitter_cfg.c **** CY_CFG_UNUSED
 104:.\Generated_Source\PSoC5/cyfitter_cfg.c **** static void CyClockStartupError(uint8 errorCode);
 105:.\Generated_Source\PSoC5/cyfitter_cfg.c **** CY_CFG_UNUSED
 106:.\Generated_Source\PSoC5/cyfitter_cfg.c **** static void CyClockStartupError(uint8 errorCode)
 107:.\Generated_Source\PSoC5/cyfitter_cfg.c **** {
  26              		.loc 1 107 0
  27              		.cfi_startproc
  28              		@ Volatile: function does not return.
  29              		@ args = 0, pretend = 0, frame = 0
  30              		@ frame_needed = 0, uses_anonymous_args = 0
  31              		@ link register save eliminated.
  32              	.LVL0:
  33              	.L2:
  34 0000 FEE7     		b	.L2
  35              		.cfi_endproc
  36              	.LFE3:
  37              		.size	CyClockStartupError, .-CyClockStartupError
  38 0002 00BF     		.section	.text.cfg_write_bytes32,"ax",%progbits
  39              		.align	2
  40              		.thumb
  41              		.thumb_func
  42              		.type	cfg_write_bytes32, %function
  43              	cfg_write_bytes32:
  44              	.LFB4:
 108:.\Generated_Source\PSoC5/cyfitter_cfg.c ****     /* To remove the compiler warning if errorCode not used.                */
 109:.\Generated_Source\PSoC5/cyfitter_cfg.c ****     errorCode = errorCode;
 110:.\Generated_Source\PSoC5/cyfitter_cfg.c **** 
 111:.\Generated_Source\PSoC5/cyfitter_cfg.c ****     /* `#START CyClockStartupError` */
 112:.\Generated_Source\PSoC5/cyfitter_cfg.c **** 
 113:.\Generated_Source\PSoC5/cyfitter_cfg.c ****     /* If we have a clock startup error (bad MHz crystal, PLL lock, etc.),  */
 114:.\Generated_Source\PSoC5/cyfitter_cfg.c ****     /* we will end up here to allow the customer to implement something to  */
 115:.\Generated_Source\PSoC5/cyfitter_cfg.c ****     /* deal with the clock condition.                                       */
 116:.\Generated_Source\PSoC5/cyfitter_cfg.c **** 
 117:.\Generated_Source\PSoC5/cyfitter_cfg.c ****     /* `#END` */
 118:.\Generated_Source\PSoC5/cyfitter_cfg.c **** 
 119:.\Generated_Source\PSoC5/cyfitter_cfg.c ****     /* If nothing else, stop here since the clocks have not started         */
 120:.\Generated_Source\PSoC5/cyfitter_cfg.c ****     /* correctly.                                                           */
 121:.\Generated_Source\PSoC5/cyfitter_cfg.c ****     while(1) {}
 122:.\Generated_Source\PSoC5/cyfitter_cfg.c **** }
 123:.\Generated_Source\PSoC5/cyfitter_cfg.c **** #endif
 124:.\Generated_Source\PSoC5/cyfitter_cfg.c **** 
 125:.\Generated_Source\PSoC5/cyfitter_cfg.c **** #define CY_CFG_BASE_ADDR_COUNT 34u
 126:.\Generated_Source\PSoC5/cyfitter_cfg.c **** CYPACKED typedef struct
 127:.\Generated_Source\PSoC5/cyfitter_cfg.c **** {
ARM GAS  C:\Users\Nick\AppData\Local\Temp\ccjuUlaQ.s 			page 4


 128:.\Generated_Source\PSoC5/cyfitter_cfg.c **** 	uint8 offset;
 129:.\Generated_Source\PSoC5/cyfitter_cfg.c **** 	uint8 value;
 130:.\Generated_Source\PSoC5/cyfitter_cfg.c **** } CYPACKED_ATTR cy_cfg_addrvalue_t;
 131:.\Generated_Source\PSoC5/cyfitter_cfg.c **** 
 132:.\Generated_Source\PSoC5/cyfitter_cfg.c **** 
 133:.\Generated_Source\PSoC5/cyfitter_cfg.c **** 
 134:.\Generated_Source\PSoC5/cyfitter_cfg.c **** /*******************************************************************************
 135:.\Generated_Source\PSoC5/cyfitter_cfg.c **** * Function Name: cfg_write_bytes32
 136:.\Generated_Source\PSoC5/cyfitter_cfg.c **** ********************************************************************************
 137:.\Generated_Source\PSoC5/cyfitter_cfg.c **** * Summary:
 138:.\Generated_Source\PSoC5/cyfitter_cfg.c **** *  This function is used for setting up the chip configuration areas that
 139:.\Generated_Source\PSoC5/cyfitter_cfg.c **** *  contain relatively sparse data.
 140:.\Generated_Source\PSoC5/cyfitter_cfg.c **** *
 141:.\Generated_Source\PSoC5/cyfitter_cfg.c **** * Parameters:
 142:.\Generated_Source\PSoC5/cyfitter_cfg.c **** *   void
 143:.\Generated_Source\PSoC5/cyfitter_cfg.c **** *
 144:.\Generated_Source\PSoC5/cyfitter_cfg.c **** * Return:
 145:.\Generated_Source\PSoC5/cyfitter_cfg.c **** *   void
 146:.\Generated_Source\PSoC5/cyfitter_cfg.c **** *
 147:.\Generated_Source\PSoC5/cyfitter_cfg.c **** *******************************************************************************/
 148:.\Generated_Source\PSoC5/cyfitter_cfg.c **** static void cfg_write_bytes32(const uint32 addr_table[], const cy_cfg_addrvalue_t data_table[]);
 149:.\Generated_Source\PSoC5/cyfitter_cfg.c **** static void cfg_write_bytes32(const uint32 addr_table[], const cy_cfg_addrvalue_t data_table[])
 150:.\Generated_Source\PSoC5/cyfitter_cfg.c **** {
  45              		.loc 1 150 0
  46              		.cfi_startproc
  47              		@ args = 0, pretend = 0, frame = 0
  48              		@ frame_needed = 0, uses_anonymous_args = 0
  49              		@ link register save eliminated.
  50              	.LVL1:
  51              		.loc 1 150 0
  52 0000 F0B4     		push	{r4, r5, r6, r7}
  53              		.cfi_def_cfa_offset 16
  54              		.cfi_offset 4, -16
  55              		.cfi_offset 5, -12
  56              		.cfi_offset 6, -8
  57              		.cfi_offset 7, -4
  58              	.LVL2:
 151:.\Generated_Source\PSoC5/cyfitter_cfg.c **** 	/* For 32-bit little-endian architectures */
 152:.\Generated_Source\PSoC5/cyfitter_cfg.c **** 	uint32 i, j = 0u;
  59              		.loc 1 152 0
  60 0002 0023     		movs	r3, #0
 153:.\Generated_Source\PSoC5/cyfitter_cfg.c **** 	for (i = 0u; i < CY_CFG_BASE_ADDR_COUNT; i++)
  61              		.loc 1 153 0
  62 0004 1F46     		mov	r7, r3
  63 0006 11E0     		b	.L4
  64              	.LVL3:
  65              	.L7:
  66              	.LBB2:
 154:.\Generated_Source\PSoC5/cyfitter_cfg.c **** 	{
 155:.\Generated_Source\PSoC5/cyfitter_cfg.c **** 		uint32 baseAddr = addr_table[i];
  67              		.loc 1 155 0
  68 0008 50F82760 		ldr	r6, [r0, r7, lsl #2]
  69              	.LVL4:
 156:.\Generated_Source\PSoC5/cyfitter_cfg.c **** 		uint8 count = (uint8)baseAddr;
  70              		.loc 1 156 0
  71 000c F2B2     		uxtb	r2, r6
  72              	.LVL5:
ARM GAS  C:\Users\Nick\AppData\Local\Temp\ccjuUlaQ.s 			page 5


 157:.\Generated_Source\PSoC5/cyfitter_cfg.c **** 		baseAddr &= 0xFFFFFF00u;
  73              		.loc 1 157 0
  74 000e 26F0FF06 		bic	r6, r6, #255
  75              	.LVL6:
 158:.\Generated_Source\PSoC5/cyfitter_cfg.c **** 		while (count != 0u)
  76              		.loc 1 158 0
  77 0012 08E0     		b	.L5
  78              	.L6:
 159:.\Generated_Source\PSoC5/cyfitter_cfg.c **** 		{
 160:.\Generated_Source\PSoC5/cyfitter_cfg.c **** 			CY_SET_XTND_REG8((void CYFAR *)(baseAddr + data_table[j].offset), data_table[j].value);
  79              		.loc 1 160 0
  80 0014 01EB4305 		add	r5, r1, r3, lsl #1
  81 0018 11F81340 		ldrb	r4, [r1, r3, lsl #1]	@ zero_extendqisi2
  82 001c 6D78     		ldrb	r5, [r5, #1]	@ zero_extendqisi2
  83 001e A555     		strb	r5, [r4, r6]
 161:.\Generated_Source\PSoC5/cyfitter_cfg.c **** 			j++;
  84              		.loc 1 161 0
  85 0020 0133     		adds	r3, r3, #1
  86              	.LVL7:
 162:.\Generated_Source\PSoC5/cyfitter_cfg.c **** 			count--;
  87              		.loc 1 162 0
  88 0022 013A     		subs	r2, r2, #1
  89              	.LVL8:
  90 0024 D2B2     		uxtb	r2, r2
  91              	.LVL9:
  92              	.L5:
 158:.\Generated_Source\PSoC5/cyfitter_cfg.c **** 		while (count != 0u)
  93              		.loc 1 158 0 discriminator 1
  94 0026 002A     		cmp	r2, #0
  95 0028 F4D1     		bne	.L6
  96              	.LBE2:
 153:.\Generated_Source\PSoC5/cyfitter_cfg.c **** 	for (i = 0u; i < CY_CFG_BASE_ADDR_COUNT; i++)
  97              		.loc 1 153 0
  98 002a 0137     		adds	r7, r7, #1
  99              	.LVL10:
 100              	.L4:
 153:.\Generated_Source\PSoC5/cyfitter_cfg.c **** 	for (i = 0u; i < CY_CFG_BASE_ADDR_COUNT; i++)
 101              		.loc 1 153 0 is_stmt 0 discriminator 1
 102 002c 212F     		cmp	r7, #33
 103 002e EBD9     		bls	.L7
 163:.\Generated_Source\PSoC5/cyfitter_cfg.c **** 		}
 164:.\Generated_Source\PSoC5/cyfitter_cfg.c **** 	}
 165:.\Generated_Source\PSoC5/cyfitter_cfg.c **** }
 104              		.loc 1 165 0 is_stmt 1
 105 0030 F0BC     		pop	{r4, r5, r6, r7}
 106              	.LVL11:
 107 0032 7047     		bx	lr
 108              		.cfi_endproc
 109              	.LFE4:
 110              		.size	cfg_write_bytes32, .-cfg_write_bytes32
 111              		.section	.text.AnalogSetDefault,"ax",%progbits
 112              		.align	2
 113              		.thumb
 114              		.thumb_func
 115              		.type	AnalogSetDefault, %function
 116              	AnalogSetDefault:
 117              	.LFB6:
ARM GAS  C:\Users\Nick\AppData\Local\Temp\ccjuUlaQ.s 			page 6


 166:.\Generated_Source\PSoC5/cyfitter_cfg.c **** 
 167:.\Generated_Source\PSoC5/cyfitter_cfg.c **** /*******************************************************************************
 168:.\Generated_Source\PSoC5/cyfitter_cfg.c **** * Function Name: ClockSetup
 169:.\Generated_Source\PSoC5/cyfitter_cfg.c **** ********************************************************************************
 170:.\Generated_Source\PSoC5/cyfitter_cfg.c **** *
 171:.\Generated_Source\PSoC5/cyfitter_cfg.c **** * Summary:
 172:.\Generated_Source\PSoC5/cyfitter_cfg.c **** *  Performs the initialization of all of the clocks in the device based on the
 173:.\Generated_Source\PSoC5/cyfitter_cfg.c **** *  settings in the Clock tab of the DWR.  This includes enabling the requested
 174:.\Generated_Source\PSoC5/cyfitter_cfg.c **** *  clocks and setting the necessary dividers to produce the desired frequency. 
 175:.\Generated_Source\PSoC5/cyfitter_cfg.c **** *
 176:.\Generated_Source\PSoC5/cyfitter_cfg.c **** * Parameters:
 177:.\Generated_Source\PSoC5/cyfitter_cfg.c **** *  void
 178:.\Generated_Source\PSoC5/cyfitter_cfg.c **** *
 179:.\Generated_Source\PSoC5/cyfitter_cfg.c **** * Return:
 180:.\Generated_Source\PSoC5/cyfitter_cfg.c **** *  void
 181:.\Generated_Source\PSoC5/cyfitter_cfg.c **** *
 182:.\Generated_Source\PSoC5/cyfitter_cfg.c **** *******************************************************************************/
 183:.\Generated_Source\PSoC5/cyfitter_cfg.c **** static void ClockSetup(void);
 184:.\Generated_Source\PSoC5/cyfitter_cfg.c **** static void ClockSetup(void)
 185:.\Generated_Source\PSoC5/cyfitter_cfg.c **** {
 186:.\Generated_Source\PSoC5/cyfitter_cfg.c **** 	uint32 timeout;
 187:.\Generated_Source\PSoC5/cyfitter_cfg.c **** 	uint8 pllLock;
 188:.\Generated_Source\PSoC5/cyfitter_cfg.c **** 
 189:.\Generated_Source\PSoC5/cyfitter_cfg.c **** 
 190:.\Generated_Source\PSoC5/cyfitter_cfg.c **** 	/* Configure Digital Clocks based on settings from Clock DWR */
 191:.\Generated_Source\PSoC5/cyfitter_cfg.c **** 	CY_SET_XTND_REG16((void CYFAR *)(CYREG_CLKDIST_DCFG0_CFG0), 0x0000u);
 192:.\Generated_Source\PSoC5/cyfitter_cfg.c **** 	CY_SET_XTND_REG8((void CYFAR *)(CYREG_CLKDIST_DCFG0_CFG0 + 0x2u), 0x58u);
 193:.\Generated_Source\PSoC5/cyfitter_cfg.c **** 	CY_SET_XTND_REG16((void CYFAR *)(CYREG_CLKDIST_DCFG1_CFG0), 0x0001u);
 194:.\Generated_Source\PSoC5/cyfitter_cfg.c **** 	CY_SET_XTND_REG8((void CYFAR *)(CYREG_CLKDIST_DCFG1_CFG0 + 0x2u), 0x18u);
 195:.\Generated_Source\PSoC5/cyfitter_cfg.c **** 	CY_SET_XTND_REG16((void CYFAR *)(CYREG_CLKDIST_DCFG2_CFG0), 0x0003u);
 196:.\Generated_Source\PSoC5/cyfitter_cfg.c **** 	CY_SET_XTND_REG8((void CYFAR *)(CYREG_CLKDIST_DCFG2_CFG0 + 0x2u), 0x18u);
 197:.\Generated_Source\PSoC5/cyfitter_cfg.c **** 	CY_SET_XTND_REG16((void CYFAR *)(CYREG_CLKDIST_DCFG3_CFG0), 0x000Eu);
 198:.\Generated_Source\PSoC5/cyfitter_cfg.c **** 	CY_SET_XTND_REG8((void CYFAR *)(CYREG_CLKDIST_DCFG3_CFG0 + 0x2u), 0x18u);
 199:.\Generated_Source\PSoC5/cyfitter_cfg.c **** 	CY_SET_XTND_REG16((void CYFAR *)(CYREG_CLKDIST_DCFG4_CFG0), 0x0017u);
 200:.\Generated_Source\PSoC5/cyfitter_cfg.c **** 	CY_SET_XTND_REG8((void CYFAR *)(CYREG_CLKDIST_DCFG4_CFG0 + 0x2u), 0x18u);
 201:.\Generated_Source\PSoC5/cyfitter_cfg.c **** 	CY_SET_XTND_REG16((void CYFAR *)(CYREG_CLKDIST_DCFG5_CFG0), 0x095Fu);
 202:.\Generated_Source\PSoC5/cyfitter_cfg.c **** 	CY_SET_XTND_REG8((void CYFAR *)(CYREG_CLKDIST_DCFG5_CFG0 + 0x2u), 0x18u);
 203:.\Generated_Source\PSoC5/cyfitter_cfg.c **** 
 204:.\Generated_Source\PSoC5/cyfitter_cfg.c **** 	/* Configure ILO based on settings from Clock DWR */
 205:.\Generated_Source\PSoC5/cyfitter_cfg.c **** 	CY_SET_XTND_REG8((void CYFAR *)(CYREG_SLOWCLK_ILO_CR0), 0x02u);
 206:.\Generated_Source\PSoC5/cyfitter_cfg.c **** 	CY_SET_XTND_REG8((void CYFAR *)(CYREG_CLKDIST_CR), 0x08u);
 207:.\Generated_Source\PSoC5/cyfitter_cfg.c **** 
 208:.\Generated_Source\PSoC5/cyfitter_cfg.c **** 	/* Configure IMO based on settings from Clock DWR */
 209:.\Generated_Source\PSoC5/cyfitter_cfg.c **** 	CY_SET_XTND_REG8((void CYFAR *)(CYREG_FASTCLK_IMO_CR), 0x03u);
 210:.\Generated_Source\PSoC5/cyfitter_cfg.c **** 	CY_SET_XTND_REG8((void CYFAR *)(CYREG_IMO_TR1), (CY_GET_XTND_REG8((void CYFAR *)CYREG_FLSHID_CUST_
 211:.\Generated_Source\PSoC5/cyfitter_cfg.c **** 
 212:.\Generated_Source\PSoC5/cyfitter_cfg.c **** 	/* Configure PLL based on settings from Clock DWR */
 213:.\Generated_Source\PSoC5/cyfitter_cfg.c **** 	CY_SET_XTND_REG16((void CYFAR *)(CYREG_FASTCLK_PLL_P), 0x0008u);
 214:.\Generated_Source\PSoC5/cyfitter_cfg.c **** 	CY_SET_XTND_REG16((void CYFAR *)(CYREG_FASTCLK_PLL_CFG0), 0x1251u);
 215:.\Generated_Source\PSoC5/cyfitter_cfg.c **** 	/* Wait up to 250us for the PLL to lock */
 216:.\Generated_Source\PSoC5/cyfitter_cfg.c **** 	pllLock = 0u;
 217:.\Generated_Source\PSoC5/cyfitter_cfg.c **** 	for (timeout = 250u / 10u; (timeout > 0u) && (pllLock != 0x03u); timeout--)
 218:.\Generated_Source\PSoC5/cyfitter_cfg.c **** 	{ 
 219:.\Generated_Source\PSoC5/cyfitter_cfg.c **** 		pllLock = 0x03u & ((uint8)((uint8)pllLock << 1) | ((CY_GET_XTND_REG8((void CYFAR *)CYREG_FASTCLK_
 220:.\Generated_Source\PSoC5/cyfitter_cfg.c **** 		CyDelayCycles(10u * 48u); /* Delay 10us based on 48MHz clock */
 221:.\Generated_Source\PSoC5/cyfitter_cfg.c **** 	}
 222:.\Generated_Source\PSoC5/cyfitter_cfg.c **** 	/* If we ran out of time the PLL didn't lock so go to the error function */
ARM GAS  C:\Users\Nick\AppData\Local\Temp\ccjuUlaQ.s 			page 7


 223:.\Generated_Source\PSoC5/cyfitter_cfg.c **** 	if (timeout == 0u)
 224:.\Generated_Source\PSoC5/cyfitter_cfg.c **** 	{
 225:.\Generated_Source\PSoC5/cyfitter_cfg.c **** 		CyClockStartupError(CYCLOCKSTART_PLL_ERROR);
 226:.\Generated_Source\PSoC5/cyfitter_cfg.c **** 	}
 227:.\Generated_Source\PSoC5/cyfitter_cfg.c **** 
 228:.\Generated_Source\PSoC5/cyfitter_cfg.c **** 	/* Configure Bus/Master Clock based on settings from Clock DWR */
 229:.\Generated_Source\PSoC5/cyfitter_cfg.c **** 	CY_SET_XTND_REG16((void CYFAR *)(CYREG_CLKDIST_MSTR0), 0x0100u);
 230:.\Generated_Source\PSoC5/cyfitter_cfg.c **** 	CY_SET_XTND_REG8((void CYFAR *)(CYREG_CLKDIST_MSTR0), 0x07u);
 231:.\Generated_Source\PSoC5/cyfitter_cfg.c **** 	CY_SET_XTND_REG8((void CYFAR *)(CYREG_CLKDIST_BCFG0), 0x00u);
 232:.\Generated_Source\PSoC5/cyfitter_cfg.c **** 	CY_SET_XTND_REG8((void CYFAR *)(CYREG_CLKDIST_BCFG2), 0x48u);
 233:.\Generated_Source\PSoC5/cyfitter_cfg.c **** 	CY_SET_XTND_REG8((void CYFAR *)(CYREG_CLKDIST_MSTR0), 0x00u);
 234:.\Generated_Source\PSoC5/cyfitter_cfg.c **** 	CY_SET_XTND_REG8((void CYFAR *)(CYREG_CLKDIST_LD), 0x02u);
 235:.\Generated_Source\PSoC5/cyfitter_cfg.c **** 
 236:.\Generated_Source\PSoC5/cyfitter_cfg.c **** 	CY_SET_XTND_REG8((void CYFAR *)(CYREG_PM_ACT_CFG2), ((CY_GET_XTND_REG8((void CYFAR *)CYREG_PM_ACT_
 237:.\Generated_Source\PSoC5/cyfitter_cfg.c **** }
 238:.\Generated_Source\PSoC5/cyfitter_cfg.c **** 
 239:.\Generated_Source\PSoC5/cyfitter_cfg.c **** 
 240:.\Generated_Source\PSoC5/cyfitter_cfg.c **** /* Analog API Functions */
 241:.\Generated_Source\PSoC5/cyfitter_cfg.c **** 
 242:.\Generated_Source\PSoC5/cyfitter_cfg.c **** 
 243:.\Generated_Source\PSoC5/cyfitter_cfg.c **** /*******************************************************************************
 244:.\Generated_Source\PSoC5/cyfitter_cfg.c **** * Function Name: AnalogSetDefault
 245:.\Generated_Source\PSoC5/cyfitter_cfg.c **** ********************************************************************************
 246:.\Generated_Source\PSoC5/cyfitter_cfg.c **** *
 247:.\Generated_Source\PSoC5/cyfitter_cfg.c **** * Summary:
 248:.\Generated_Source\PSoC5/cyfitter_cfg.c **** *  Sets up the analog portions of the chip to default values based on chip
 249:.\Generated_Source\PSoC5/cyfitter_cfg.c **** *  configuration options from the project.
 250:.\Generated_Source\PSoC5/cyfitter_cfg.c **** *
 251:.\Generated_Source\PSoC5/cyfitter_cfg.c **** * Parameters:
 252:.\Generated_Source\PSoC5/cyfitter_cfg.c **** *  void
 253:.\Generated_Source\PSoC5/cyfitter_cfg.c **** *
 254:.\Generated_Source\PSoC5/cyfitter_cfg.c **** * Return:
 255:.\Generated_Source\PSoC5/cyfitter_cfg.c **** *  void
 256:.\Generated_Source\PSoC5/cyfitter_cfg.c **** *
 257:.\Generated_Source\PSoC5/cyfitter_cfg.c **** *******************************************************************************/
 258:.\Generated_Source\PSoC5/cyfitter_cfg.c **** static void AnalogSetDefault(void);
 259:.\Generated_Source\PSoC5/cyfitter_cfg.c **** static void AnalogSetDefault(void)
 260:.\Generated_Source\PSoC5/cyfitter_cfg.c **** {
 118              		.loc 1 260 0
 119              		.cfi_startproc
 120              		@ args = 0, pretend = 0, frame = 0
 121              		@ frame_needed = 0, uses_anonymous_args = 0
 122              		@ link register save eliminated.
 123 0000 70B4     		push	{r4, r5, r6}
 124              		.cfi_def_cfa_offset 12
 125              		.cfi_offset 4, -12
 126              		.cfi_offset 5, -8
 127              		.cfi_offset 6, -4
 261:.\Generated_Source\PSoC5/cyfitter_cfg.c **** 	uint8 bg_xover_inl_trim = CY_GET_XTND_REG8((void CYFAR *)(CYREG_FLSHID_MFG_CFG_BG_XOVER_INL_TRIM +
 128              		.loc 1 261 0
 129 0002 184B     		ldr	r3, .L9
 130 0004 1C78     		ldrb	r4, [r3]	@ zero_extendqisi2
 131 0006 E4B2     		uxtb	r4, r4
 132              	.LVL12:
 262:.\Generated_Source\PSoC5/cyfitter_cfg.c **** 	uint8 cr4 = CY_GET_XTND_REG8((void CYFAR *)(CYREG_RESET_CR4));
 133              		.loc 1 262 0
 134 0008 174B     		ldr	r3, .L9+4
ARM GAS  C:\Users\Nick\AppData\Local\Temp\ccjuUlaQ.s 			page 8


 135 000a 1978     		ldrb	r1, [r3]	@ zero_extendqisi2
 136 000c C9B2     		uxtb	r1, r1
 137              	.LVL13:
 263:.\Generated_Source\PSoC5/cyfitter_cfg.c **** 	uint8 cr5 = CY_GET_XTND_REG8((void CYFAR *)(CYREG_RESET_CR5));
 138              		.loc 1 263 0
 139 000e 174A     		ldr	r2, .L9+8
 140 0010 1078     		ldrb	r0, [r2]	@ zero_extendqisi2
 141 0012 C0B2     		uxtb	r0, r0
 142              	.LVL14:
 264:.\Generated_Source\PSoC5/cyfitter_cfg.c **** 	CY_SET_XTND_REG8((void CYFAR *)(CYREG_BG_DFT0), (bg_xover_inl_trim & 0x07u));
 143              		.loc 1 264 0
 144 0014 04F00706 		and	r6, r4, #7
 145 0018 154D     		ldr	r5, .L9+12
 146 001a 2E70     		strb	r6, [r5]
 265:.\Generated_Source\PSoC5/cyfitter_cfg.c **** 	CY_SET_XTND_REG8((void CYFAR *)(CYREG_BG_DFT1), ((bg_xover_inl_trim >> 4) & 0x0Fu));
 147              		.loc 1 265 0
 148 001c 2409     		lsrs	r4, r4, #4
 149              	.LVL15:
 150 001e 0135     		adds	r5, r5, #1
 151 0020 2C70     		strb	r4, [r5]
 266:.\Generated_Source\PSoC5/cyfitter_cfg.c **** 	/* Disable PRES while setting up SAR voltage reference */
 267:.\Generated_Source\PSoC5/cyfitter_cfg.c **** 	CY_SET_XTND_REG8((void CYFAR *)(CYREG_RESET_CR4), (cr4 | 0x03u));
 152              		.loc 1 267 0
 153 0022 41F00304 		orr	r4, r1, #3
 154 0026 1C70     		strb	r4, [r3]
 268:.\Generated_Source\PSoC5/cyfitter_cfg.c **** 	CY_SET_XTND_REG8((void CYFAR *)(CYREG_RESET_CR5), (cr5 | 0x03u));
 155              		.loc 1 268 0
 156 0028 40F00304 		orr	r4, r0, #3
 157 002c 1470     		strb	r4, [r2]
 269:.\Generated_Source\PSoC5/cyfitter_cfg.c **** 	CY_SET_XTND_REG8((void CYFAR *)CYREG_SAR0_CSR1, 0x40u);
 158              		.loc 1 269 0
 159 002e 4024     		movs	r4, #64
 160 0030 9235     		adds	r5, r5, #146
 161 0032 2C70     		strb	r4, [r5]
 270:.\Generated_Source\PSoC5/cyfitter_cfg.c **** 	CY_SET_XTND_REG8((void CYFAR *)CYREG_SAR0_CSR3, 0x40u);
 162              		.loc 1 270 0
 163 0034 0235     		adds	r5, r5, #2
 164 0036 2C70     		strb	r4, [r5]
 271:.\Generated_Source\PSoC5/cyfitter_cfg.c **** 	CY_SET_XTND_REG8((void CYFAR *)CYREG_SAR0_SW0, 0x08u);
 165              		.loc 1 271 0
 166 0038 0824     		movs	r4, #8
 167 003a 05F21D25 		addw	r5, r5, #541
 168 003e 2C70     		strb	r4, [r5]
 272:.\Generated_Source\PSoC5/cyfitter_cfg.c **** 	CY_SET_XTND_REG8((void CYFAR *)CYREG_SAR0_SW3, 0x20u);
 169              		.loc 1 272 0
 170 0040 2026     		movs	r6, #32
 171 0042 0335     		adds	r5, r5, #3
 172 0044 2E70     		strb	r6, [r5]
 273:.\Generated_Source\PSoC5/cyfitter_cfg.c **** 	CY_SET_XTND_REG8((void CYFAR *)CYREG_SAR1_SW0, 0x09u);
 173              		.loc 1 273 0
 174 0046 0926     		movs	r6, #9
 175 0048 0535     		adds	r5, r5, #5
 176 004a 2E70     		strb	r6, [r5]
 274:.\Generated_Source\PSoC5/cyfitter_cfg.c **** 	CY_SET_XTND_REG8((void CYFAR *)CYREG_BUS_SW0, 0x08u);
 177              		.loc 1 274 0
 178 004c 3035     		adds	r5, r5, #48
 179 004e 2C70     		strb	r4, [r5]
ARM GAS  C:\Users\Nick\AppData\Local\Temp\ccjuUlaQ.s 			page 9


 275:.\Generated_Source\PSoC5/cyfitter_cfg.c **** 	CY_SET_XTND_REG8((void CYFAR *)(CYREG_RESET_CR5), (cr5));
 180              		.loc 1 275 0
 181 0050 1070     		strb	r0, [r2]
 276:.\Generated_Source\PSoC5/cyfitter_cfg.c **** 	CY_SET_XTND_REG8((void CYFAR *)(CYREG_RESET_CR4), (cr4));
 182              		.loc 1 276 0
 183 0052 1970     		strb	r1, [r3]
 277:.\Generated_Source\PSoC5/cyfitter_cfg.c **** 	CY_SET_XTND_REG8((void CYFAR *)CYREG_PUMP_CR0, 0x44u);
 184              		.loc 1 277 0
 185 0054 4422     		movs	r2, #68
 186 0056 03F58B53 		add	r3, r3, #4448
 187 005a 1E33     		adds	r3, r3, #30
 188 005c 1A70     		strb	r2, [r3]
 278:.\Generated_Source\PSoC5/cyfitter_cfg.c **** }
 189              		.loc 1 278 0
 190 005e 70BC     		pop	{r4, r5, r6}
 191 0060 7047     		bx	lr
 192              	.L10:
 193 0062 00BF     		.align	2
 194              	.L9:
 195 0064 CF010049 		.word	1224737231
 196 0068 F8460040 		.word	1073759992
 197 006c F9460040 		.word	1073759993
 198 0070 6E580040 		.word	1073764462
 199              		.cfi_endproc
 200              	.LFE6:
 201              		.size	AnalogSetDefault, .-AnalogSetDefault
 202              		.section	.text.CYMEMZERO,"ax",%progbits
 203              		.align	2
 204              		.thumb
 205              		.thumb_func
 206              		.type	CYMEMZERO, %function
 207              	CYMEMZERO:
 208              	.LFB0:
  61:.\Generated_Source\PSoC5/cyfitter_cfg.c **** {
 209              		.loc 1 61 0
 210              		.cfi_startproc
 211              		@ args = 0, pretend = 0, frame = 0
 212              		@ frame_needed = 0, uses_anonymous_args = 0
 213              	.LVL16:
 214 0000 08B5     		push	{r3, lr}
 215              		.cfi_def_cfa_offset 8
 216              		.cfi_offset 3, -8
 217              		.cfi_offset 14, -4
 218 0002 0A46     		mov	r2, r1
  62:.\Generated_Source\PSoC5/cyfitter_cfg.c **** 	(void)memset(s, 0, n);
 219              		.loc 1 62 0
 220 0004 0021     		movs	r1, #0
 221              	.LVL17:
 222 0006 FFF7FEFF 		bl	memset
 223              	.LVL18:
 224 000a 08BD     		pop	{r3, pc}
 225              		.cfi_endproc
 226              	.LFE0:
 227              		.size	CYMEMZERO, .-CYMEMZERO
 228              		.section	.text.CYCONFIGCPYCODE,"ax",%progbits
 229              		.align	2
 230              		.thumb
ARM GAS  C:\Users\Nick\AppData\Local\Temp\ccjuUlaQ.s 			page 10


 231              		.thumb_func
 232              		.type	CYCONFIGCPYCODE, %function
 233              	CYCONFIGCPYCODE:
 234              	.LFB2:
  75:.\Generated_Source\PSoC5/cyfitter_cfg.c **** {
 235              		.loc 1 75 0
 236              		.cfi_startproc
 237              		@ args = 0, pretend = 0, frame = 0
 238              		@ frame_needed = 0, uses_anonymous_args = 0
 239              	.LVL19:
 240 0000 08B5     		push	{r3, lr}
 241              		.cfi_def_cfa_offset 8
 242              		.cfi_offset 3, -8
 243              		.cfi_offset 14, -4
  76:.\Generated_Source\PSoC5/cyfitter_cfg.c **** 	(void)memcpy(dest, src, n);
 244              		.loc 1 76 0
 245 0002 FFF7FEFF 		bl	memcpy
 246              	.LVL20:
 247 0006 08BD     		pop	{r3, pc}
 248              		.cfi_endproc
 249              	.LFE2:
 250              		.size	CYCONFIGCPYCODE, .-CYCONFIGCPYCODE
 251              		.section	.text.CYCONFIGCPY,"ax",%progbits
 252              		.align	2
 253              		.thumb
 254              		.thumb_func
 255              		.type	CYCONFIGCPY, %function
 256              	CYCONFIGCPY:
 257              	.LFB1:
  68:.\Generated_Source\PSoC5/cyfitter_cfg.c **** {
 258              		.loc 1 68 0
 259              		.cfi_startproc
 260              		@ args = 0, pretend = 0, frame = 0
 261              		@ frame_needed = 0, uses_anonymous_args = 0
 262              	.LVL21:
 263 0000 08B5     		push	{r3, lr}
 264              		.cfi_def_cfa_offset 8
 265              		.cfi_offset 3, -8
 266              		.cfi_offset 14, -4
  69:.\Generated_Source\PSoC5/cyfitter_cfg.c **** 	(void)memcpy(dest, src, n);
 267              		.loc 1 69 0
 268 0002 FFF7FEFF 		bl	memcpy
 269              	.LVL22:
 270 0006 08BD     		pop	{r3, pc}
 271              		.cfi_endproc
 272              	.LFE1:
 273              		.size	CYCONFIGCPY, .-CYCONFIGCPY
 274              		.section	.text.ClockSetup,"ax",%progbits
 275              		.align	2
 276              		.thumb
 277              		.thumb_func
 278              		.type	ClockSetup, %function
 279              	ClockSetup:
 280              	.LFB5:
 185:.\Generated_Source\PSoC5/cyfitter_cfg.c **** {
 281              		.loc 1 185 0
 282              		.cfi_startproc
ARM GAS  C:\Users\Nick\AppData\Local\Temp\ccjuUlaQ.s 			page 11


 283              		@ args = 0, pretend = 0, frame = 0
 284              		@ frame_needed = 0, uses_anonymous_args = 0
 285 0000 F8B5     		push	{r3, r4, r5, r6, r7, lr}
 286              		.cfi_def_cfa_offset 24
 287              		.cfi_offset 3, -24
 288              		.cfi_offset 4, -20
 289              		.cfi_offset 5, -16
 290              		.cfi_offset 6, -12
 291              		.cfi_offset 7, -8
 292              		.cfi_offset 14, -4
 191:.\Generated_Source\PSoC5/cyfitter_cfg.c **** 	CY_SET_XTND_REG16((void CYFAR *)(CYREG_CLKDIST_DCFG0_CFG0), 0x0000u);
 293              		.loc 1 191 0
 294 0002 0025     		movs	r5, #0
 295 0004 314B     		ldr	r3, .L19
 296 0006 1D80     		strh	r5, [r3]	@ movhi
 192:.\Generated_Source\PSoC5/cyfitter_cfg.c **** 	CY_SET_XTND_REG8((void CYFAR *)(CYREG_CLKDIST_DCFG0_CFG0 + 0x2u), 0x58u);
 297              		.loc 1 192 0
 298 0008 5822     		movs	r2, #88
 299 000a 0233     		adds	r3, r3, #2
 300 000c 1A70     		strb	r2, [r3]
 193:.\Generated_Source\PSoC5/cyfitter_cfg.c **** 	CY_SET_XTND_REG16((void CYFAR *)(CYREG_CLKDIST_DCFG1_CFG0), 0x0001u);
 301              		.loc 1 193 0
 302 000e 0122     		movs	r2, #1
 303 0010 0233     		adds	r3, r3, #2
 304 0012 1A80     		strh	r2, [r3]	@ movhi
 194:.\Generated_Source\PSoC5/cyfitter_cfg.c **** 	CY_SET_XTND_REG8((void CYFAR *)(CYREG_CLKDIST_DCFG1_CFG0 + 0x2u), 0x18u);
 305              		.loc 1 194 0
 306 0014 1823     		movs	r3, #24
 307 0016 2E4A     		ldr	r2, .L19+4
 308 0018 1370     		strb	r3, [r2]
 195:.\Generated_Source\PSoC5/cyfitter_cfg.c **** 	CY_SET_XTND_REG16((void CYFAR *)(CYREG_CLKDIST_DCFG2_CFG0), 0x0003u);
 309              		.loc 1 195 0
 310 001a 0322     		movs	r2, #3
 311 001c 2D49     		ldr	r1, .L19+8
 312 001e 0A80     		strh	r2, [r1]	@ movhi
 196:.\Generated_Source\PSoC5/cyfitter_cfg.c **** 	CY_SET_XTND_REG8((void CYFAR *)(CYREG_CLKDIST_DCFG2_CFG0 + 0x2u), 0x18u);
 313              		.loc 1 196 0
 314 0020 0231     		adds	r1, r1, #2
 315 0022 0B70     		strb	r3, [r1]
 197:.\Generated_Source\PSoC5/cyfitter_cfg.c **** 	CY_SET_XTND_REG16((void CYFAR *)(CYREG_CLKDIST_DCFG3_CFG0), 0x000Eu);
 316              		.loc 1 197 0
 317 0024 0E20     		movs	r0, #14
 318 0026 0231     		adds	r1, r1, #2
 319 0028 0880     		strh	r0, [r1]	@ movhi
 198:.\Generated_Source\PSoC5/cyfitter_cfg.c **** 	CY_SET_XTND_REG8((void CYFAR *)(CYREG_CLKDIST_DCFG3_CFG0 + 0x2u), 0x18u);
 320              		.loc 1 198 0
 321 002a 0231     		adds	r1, r1, #2
 322 002c 0B70     		strb	r3, [r1]
 199:.\Generated_Source\PSoC5/cyfitter_cfg.c **** 	CY_SET_XTND_REG16((void CYFAR *)(CYREG_CLKDIST_DCFG4_CFG0), 0x0017u);
 323              		.loc 1 199 0
 324 002e 1720     		movs	r0, #23
 325 0030 0231     		adds	r1, r1, #2
 326 0032 0880     		strh	r0, [r1]	@ movhi
 200:.\Generated_Source\PSoC5/cyfitter_cfg.c **** 	CY_SET_XTND_REG8((void CYFAR *)(CYREG_CLKDIST_DCFG4_CFG0 + 0x2u), 0x18u);
 327              		.loc 1 200 0
 328 0034 0231     		adds	r1, r1, #2
 329 0036 0B70     		strb	r3, [r1]
ARM GAS  C:\Users\Nick\AppData\Local\Temp\ccjuUlaQ.s 			page 12


 201:.\Generated_Source\PSoC5/cyfitter_cfg.c **** 	CY_SET_XTND_REG16((void CYFAR *)(CYREG_CLKDIST_DCFG5_CFG0), 0x095Fu);
 330              		.loc 1 201 0
 331 0038 40F65F10 		movw	r0, #2399
 332 003c 0231     		adds	r1, r1, #2
 333 003e 0880     		strh	r0, [r1]	@ movhi
 202:.\Generated_Source\PSoC5/cyfitter_cfg.c **** 	CY_SET_XTND_REG8((void CYFAR *)(CYREG_CLKDIST_DCFG5_CFG0 + 0x2u), 0x18u);
 334              		.loc 1 202 0
 335 0040 0231     		adds	r1, r1, #2
 336 0042 0B70     		strb	r3, [r1]
 205:.\Generated_Source\PSoC5/cyfitter_cfg.c **** 	CY_SET_XTND_REG8((void CYFAR *)(CYREG_SLOWCLK_ILO_CR0), 0x02u);
 337              		.loc 1 205 0
 338 0044 0221     		movs	r1, #2
 339 0046 244B     		ldr	r3, .L19+12
 340 0048 1970     		strb	r1, [r3]
 206:.\Generated_Source\PSoC5/cyfitter_cfg.c **** 	CY_SET_XTND_REG8((void CYFAR *)(CYREG_CLKDIST_CR), 0x08u);
 341              		.loc 1 206 0
 342 004a 0823     		movs	r3, #8
 343 004c 4FF04021 		mov	r1, #1073758208
 344 0050 0B70     		strb	r3, [r1]
 209:.\Generated_Source\PSoC5/cyfitter_cfg.c **** 	CY_SET_XTND_REG8((void CYFAR *)(CYREG_FASTCLK_IMO_CR), 0x03u);
 345              		.loc 1 209 0
 346 0052 01F50071 		add	r1, r1, #512
 347 0056 0A70     		strb	r2, [r1]
 210:.\Generated_Source\PSoC5/cyfitter_cfg.c **** 	CY_SET_XTND_REG8((void CYFAR *)(CYREG_IMO_TR1), (CY_GET_XTND_REG8((void CYFAR *)CYREG_FLSHID_CUST_
 348              		.loc 1 210 0
 349 0058 204A     		ldr	r2, .L19+16
 350 005a 1178     		ldrb	r1, [r2]	@ zero_extendqisi2
 351 005c C9B2     		uxtb	r1, r1
 352 005e 204A     		ldr	r2, .L19+20
 353 0060 1170     		strb	r1, [r2]
 213:.\Generated_Source\PSoC5/cyfitter_cfg.c **** 	CY_SET_XTND_REG16((void CYFAR *)(CYREG_FASTCLK_PLL_P), 0x0008u);
 354              		.loc 1 213 0
 355 0062 A2F27F42 		subw	r2, r2, #1151
 356 0066 1380     		strh	r3, [r2]	@ movhi
 214:.\Generated_Source\PSoC5/cyfitter_cfg.c **** 	CY_SET_XTND_REG16((void CYFAR *)(CYREG_FASTCLK_PLL_CFG0), 0x1251u);
 357              		.loc 1 214 0
 358 0068 41F25122 		movw	r2, #4689
 359 006c 1D4B     		ldr	r3, .L19+24
 360 006e 1A80     		strh	r2, [r3]	@ movhi
 361              	.LVL23:
 217:.\Generated_Source\PSoC5/cyfitter_cfg.c **** 	for (timeout = 250u / 10u; (timeout > 0u) && (pllLock != 0x03u); timeout--)
 362              		.loc 1 217 0
 363 0070 1924     		movs	r4, #25
 219:.\Generated_Source\PSoC5/cyfitter_cfg.c **** 		pllLock = 0x03u & ((uint8)((uint8)pllLock << 1) | ((CY_GET_XTND_REG8((void CYFAR *)CYREG_FASTCLK_
 364              		.loc 1 219 0
 365 0072 1D4F     		ldr	r7, .L19+28
 220:.\Generated_Source\PSoC5/cyfitter_cfg.c **** 		CyDelayCycles(10u * 48u); /* Delay 10us based on 48MHz clock */
 366              		.loc 1 220 0
 367 0074 4FF4F076 		mov	r6, #480
 217:.\Generated_Source\PSoC5/cyfitter_cfg.c **** 	for (timeout = 250u / 10u; (timeout > 0u) && (pllLock != 0x03u); timeout--)
 368              		.loc 1 217 0
 369 0078 0AE0     		b	.L15
 370              	.LVL24:
 371              	.L17:
 219:.\Generated_Source\PSoC5/cyfitter_cfg.c **** 		pllLock = 0x03u & ((uint8)((uint8)pllLock << 1) | ((CY_GET_XTND_REG8((void CYFAR *)CYREG_FASTCLK_
 372              		.loc 1 219 0 discriminator 1
 373 007a 3B78     		ldrb	r3, [r7]	@ zero_extendqisi2
ARM GAS  C:\Users\Nick\AppData\Local\Temp\ccjuUlaQ.s 			page 13


 374 007c 03F00103 		and	r3, r3, #1
 375 0080 43EA4505 		orr	r5, r3, r5, lsl #1
 376              	.LVL25:
 377 0084 05F00305 		and	r5, r5, #3
 378              	.LVL26:
 220:.\Generated_Source\PSoC5/cyfitter_cfg.c **** 		CyDelayCycles(10u * 48u); /* Delay 10us based on 48MHz clock */
 379              		.loc 1 220 0 discriminator 1
 380 0088 3046     		mov	r0, r6
 381 008a FFF7FEFF 		bl	CyDelayCycles
 382              	.LVL27:
 217:.\Generated_Source\PSoC5/cyfitter_cfg.c **** 	for (timeout = 250u / 10u; (timeout > 0u) && (pllLock != 0x03u); timeout--)
 383              		.loc 1 217 0 discriminator 1
 384 008e 013C     		subs	r4, r4, #1
 385              	.LVL28:
 386              	.L15:
 387 0090 0CB1     		cbz	r4, .L16
 217:.\Generated_Source\PSoC5/cyfitter_cfg.c **** 	for (timeout = 250u / 10u; (timeout > 0u) && (pllLock != 0x03u); timeout--)
 388              		.loc 1 217 0 is_stmt 0 discriminator 2
 389 0092 032D     		cmp	r5, #3
 390 0094 F1D1     		bne	.L17
 391              	.L16:
 223:.\Generated_Source\PSoC5/cyfitter_cfg.c **** 	if (timeout == 0u)
 392              		.loc 1 223 0 is_stmt 1
 393 0096 14B9     		cbnz	r4, .L18
 225:.\Generated_Source\PSoC5/cyfitter_cfg.c **** 		CyClockStartupError(CYCLOCKSTART_PLL_ERROR);
 394              		.loc 1 225 0
 395 0098 0320     		movs	r0, #3
 396 009a FFF7FEFF 		bl	CyClockStartupError
 397              	.LVL29:
 398              	.L18:
 229:.\Generated_Source\PSoC5/cyfitter_cfg.c **** 	CY_SET_XTND_REG16((void CYFAR *)(CYREG_CLKDIST_MSTR0), 0x0100u);
 399              		.loc 1 229 0
 400 009e 134B     		ldr	r3, .L19+32
 401 00a0 4FF48072 		mov	r2, #256
 402 00a4 1A80     		strh	r2, [r3]	@ movhi
 230:.\Generated_Source\PSoC5/cyfitter_cfg.c **** 	CY_SET_XTND_REG8((void CYFAR *)(CYREG_CLKDIST_MSTR0), 0x07u);
 403              		.loc 1 230 0
 404 00a6 0722     		movs	r2, #7
 405 00a8 1A70     		strb	r2, [r3]
 231:.\Generated_Source\PSoC5/cyfitter_cfg.c **** 	CY_SET_XTND_REG8((void CYFAR *)(CYREG_CLKDIST_BCFG0), 0x00u);
 406              		.loc 1 231 0
 407 00aa 0022     		movs	r2, #0
 408 00ac 1049     		ldr	r1, .L19+36
 409 00ae 0A70     		strb	r2, [r1]
 232:.\Generated_Source\PSoC5/cyfitter_cfg.c **** 	CY_SET_XTND_REG8((void CYFAR *)(CYREG_CLKDIST_BCFG2), 0x48u);
 410              		.loc 1 232 0
 411 00b0 4820     		movs	r0, #72
 412 00b2 0231     		adds	r1, r1, #2
 413 00b4 0870     		strb	r0, [r1]
 233:.\Generated_Source\PSoC5/cyfitter_cfg.c **** 	CY_SET_XTND_REG8((void CYFAR *)(CYREG_CLKDIST_MSTR0), 0x00u);
 414              		.loc 1 233 0
 415 00b6 1A70     		strb	r2, [r3]
 234:.\Generated_Source\PSoC5/cyfitter_cfg.c **** 	CY_SET_XTND_REG8((void CYFAR *)(CYREG_CLKDIST_LD), 0x02u);
 416              		.loc 1 234 0
 417 00b8 0222     		movs	r2, #2
 418 00ba 033B     		subs	r3, r3, #3
 419 00bc 1A70     		strb	r2, [r3]
ARM GAS  C:\Users\Nick\AppData\Local\Temp\ccjuUlaQ.s 			page 14


 236:.\Generated_Source\PSoC5/cyfitter_cfg.c **** 	CY_SET_XTND_REG8((void CYFAR *)(CYREG_PM_ACT_CFG2), ((CY_GET_XTND_REG8((void CYFAR *)CYREG_PM_ACT_
 420              		.loc 1 236 0
 421 00be 03F2A133 		addw	r3, r3, #929
 422 00c2 1A78     		ldrb	r2, [r3]	@ zero_extendqisi2
 423 00c4 42F03F02 		orr	r2, r2, #63
 424 00c8 1A70     		strb	r2, [r3]
 425 00ca F8BD     		pop	{r3, r4, r5, r6, r7, pc}
 426              	.LVL30:
 427              	.L20:
 428              		.align	2
 429              	.L19:
 430 00cc 80400040 		.word	1073758336
 431 00d0 86400040 		.word	1073758342
 432 00d4 88400040 		.word	1073758344
 433 00d8 00430040 		.word	1073758976
 434 00dc 08010049 		.word	1224737032
 435 00e0 A1460040 		.word	1073759905
 436 00e4 20420040 		.word	1073758752
 437 00e8 25420040 		.word	1073758757
 438 00ec 04400040 		.word	1073758212
 439 00f0 06400040 		.word	1073758214
 440              		.cfi_endproc
 441              	.LFE5:
 442              		.size	ClockSetup, .-ClockSetup
 443              		.section	.text.SetAnalogRoutingPumps,"ax",%progbits
 444              		.align	2
 445              		.global	SetAnalogRoutingPumps
 446              		.thumb
 447              		.thumb_func
 448              		.type	SetAnalogRoutingPumps, %function
 449              	SetAnalogRoutingPumps:
 450              	.LFB7:
 279:.\Generated_Source\PSoC5/cyfitter_cfg.c **** 
 280:.\Generated_Source\PSoC5/cyfitter_cfg.c **** 
 281:.\Generated_Source\PSoC5/cyfitter_cfg.c **** /*******************************************************************************
 282:.\Generated_Source\PSoC5/cyfitter_cfg.c **** * Function Name: SetAnalogRoutingPumps
 283:.\Generated_Source\PSoC5/cyfitter_cfg.c **** ********************************************************************************
 284:.\Generated_Source\PSoC5/cyfitter_cfg.c **** *
 285:.\Generated_Source\PSoC5/cyfitter_cfg.c **** * Summary:
 286:.\Generated_Source\PSoC5/cyfitter_cfg.c **** * Enables or disables the analog pumps feeding analog routing switches.
 287:.\Generated_Source\PSoC5/cyfitter_cfg.c **** * Intended to be called at startup, based on the Vdda system configuration;
 288:.\Generated_Source\PSoC5/cyfitter_cfg.c **** * may be called during operation when the user informs us that the Vdda voltage
 289:.\Generated_Source\PSoC5/cyfitter_cfg.c **** * crossed the pump threshold.
 290:.\Generated_Source\PSoC5/cyfitter_cfg.c **** *
 291:.\Generated_Source\PSoC5/cyfitter_cfg.c **** * Parameters:
 292:.\Generated_Source\PSoC5/cyfitter_cfg.c **** *  enabled - 1 to enable the pumps, 0 to disable the pumps
 293:.\Generated_Source\PSoC5/cyfitter_cfg.c **** *
 294:.\Generated_Source\PSoC5/cyfitter_cfg.c **** * Return:
 295:.\Generated_Source\PSoC5/cyfitter_cfg.c **** *  void
 296:.\Generated_Source\PSoC5/cyfitter_cfg.c **** *
 297:.\Generated_Source\PSoC5/cyfitter_cfg.c **** *******************************************************************************/
 298:.\Generated_Source\PSoC5/cyfitter_cfg.c **** void SetAnalogRoutingPumps(uint8 enabled)
 299:.\Generated_Source\PSoC5/cyfitter_cfg.c **** {
 451              		.loc 1 299 0
 452              		.cfi_startproc
 453              		@ args = 0, pretend = 0, frame = 0
 454              		@ frame_needed = 0, uses_anonymous_args = 0
ARM GAS  C:\Users\Nick\AppData\Local\Temp\ccjuUlaQ.s 			page 15


 455              		@ link register save eliminated.
 456              	.LVL31:
 300:.\Generated_Source\PSoC5/cyfitter_cfg.c **** 	uint8 regValue = CY_GET_XTND_REG8((void CYFAR *)CYREG_PUMP_CR0);
 457              		.loc 1 300 0
 458 0000 054B     		ldr	r3, .L24
 459 0002 1B78     		ldrb	r3, [r3]	@ zero_extendqisi2
 460 0004 DBB2     		uxtb	r3, r3
 461              	.LVL32:
 301:.\Generated_Source\PSoC5/cyfitter_cfg.c **** 	if (enabled != 0u)
 462              		.loc 1 301 0
 463 0006 10B1     		cbz	r0, .L22
 302:.\Generated_Source\PSoC5/cyfitter_cfg.c **** 	{
 303:.\Generated_Source\PSoC5/cyfitter_cfg.c **** 		regValue |= 0x22u;
 464              		.loc 1 303 0
 465 0008 43F02203 		orr	r3, r3, #34
 466              	.LVL33:
 467 000c 01E0     		b	.L23
 468              	.L22:
 304:.\Generated_Source\PSoC5/cyfitter_cfg.c **** 	}
 305:.\Generated_Source\PSoC5/cyfitter_cfg.c **** 	else
 306:.\Generated_Source\PSoC5/cyfitter_cfg.c **** 	{
 307:.\Generated_Source\PSoC5/cyfitter_cfg.c **** 		regValue &= (uint8)~0x22u;
 469              		.loc 1 307 0
 470 000e 03F0DD03 		and	r3, r3, #221
 471              	.LVL34:
 472              	.L23:
 308:.\Generated_Source\PSoC5/cyfitter_cfg.c **** 	}
 309:.\Generated_Source\PSoC5/cyfitter_cfg.c **** 	CY_SET_XTND_REG8((void CYFAR *)CYREG_PUMP_CR0, regValue);
 473              		.loc 1 309 0
 474 0012 014A     		ldr	r2, .L24
 475 0014 1370     		strb	r3, [r2]
 476 0016 7047     		bx	lr
 477              	.L25:
 478              		.align	2
 479              	.L24:
 480 0018 76580040 		.word	1073764470
 481              		.cfi_endproc
 482              	.LFE7:
 483              		.size	SetAnalogRoutingPumps, .-SetAnalogRoutingPumps
 484              		.section	.text.AMux_Set,"ax",%progbits
 485              		.align	2
 486              		.global	AMux_Set
 487              		.thumb
 488              		.thumb_func
 489              		.type	AMux_Set, %function
 490              	AMux_Set:
 491              	.LFB8:
 310:.\Generated_Source\PSoC5/cyfitter_cfg.c **** }
 311:.\Generated_Source\PSoC5/cyfitter_cfg.c **** 
 312:.\Generated_Source\PSoC5/cyfitter_cfg.c **** #define CY_AMUX_UNUSED CYREG_BOOST_SR
 313:.\Generated_Source\PSoC5/cyfitter_cfg.c **** /* This is an implementation detail of the AMux. Code that depends on it may be
 314:.\Generated_Source\PSoC5/cyfitter_cfg.c ****    incompatible with other versions of PSoC Creator. */
 315:.\Generated_Source\PSoC5/cyfitter_cfg.c **** uint8 CYXDATA * const CYCODE AMux__addrTable[3] = {
 316:.\Generated_Source\PSoC5/cyfitter_cfg.c **** 	(uint8 CYXDATA *)CYREG_PRT5_AG, 
 317:.\Generated_Source\PSoC5/cyfitter_cfg.c **** 	(uint8 CYXDATA *)CYREG_PRT1_AG, 
 318:.\Generated_Source\PSoC5/cyfitter_cfg.c **** 	(uint8 CYXDATA *)CYREG_PRT5_AG, 
 319:.\Generated_Source\PSoC5/cyfitter_cfg.c **** };
ARM GAS  C:\Users\Nick\AppData\Local\Temp\ccjuUlaQ.s 			page 16


 320:.\Generated_Source\PSoC5/cyfitter_cfg.c **** 
 321:.\Generated_Source\PSoC5/cyfitter_cfg.c **** /* This is an implementation detail of the AMux. Code that depends on it may be
 322:.\Generated_Source\PSoC5/cyfitter_cfg.c ****    incompatible with other versions of PSoC Creator. */
 323:.\Generated_Source\PSoC5/cyfitter_cfg.c **** const uint8 CYCODE AMux__maskTable[3] = {
 324:.\Generated_Source\PSoC5/cyfitter_cfg.c **** 	0x08u, 
 325:.\Generated_Source\PSoC5/cyfitter_cfg.c **** 	0x01u, 
 326:.\Generated_Source\PSoC5/cyfitter_cfg.c **** 	0x01u, 
 327:.\Generated_Source\PSoC5/cyfitter_cfg.c **** };
 328:.\Generated_Source\PSoC5/cyfitter_cfg.c **** 
 329:.\Generated_Source\PSoC5/cyfitter_cfg.c **** /*******************************************************************************
 330:.\Generated_Source\PSoC5/cyfitter_cfg.c **** * Function Name: AMux_Set
 331:.\Generated_Source\PSoC5/cyfitter_cfg.c **** ********************************************************************************
 332:.\Generated_Source\PSoC5/cyfitter_cfg.c **** * Summary:
 333:.\Generated_Source\PSoC5/cyfitter_cfg.c **** *  This function is used to set a particular channel as active on the AMux.
 334:.\Generated_Source\PSoC5/cyfitter_cfg.c **** *
 335:.\Generated_Source\PSoC5/cyfitter_cfg.c **** * Parameters:  
 336:.\Generated_Source\PSoC5/cyfitter_cfg.c **** *   channel - The mux channel input to set as active
 337:.\Generated_Source\PSoC5/cyfitter_cfg.c **** *
 338:.\Generated_Source\PSoC5/cyfitter_cfg.c **** * Return:
 339:.\Generated_Source\PSoC5/cyfitter_cfg.c **** *   void
 340:.\Generated_Source\PSoC5/cyfitter_cfg.c **** *
 341:.\Generated_Source\PSoC5/cyfitter_cfg.c **** *******************************************************************************/
 342:.\Generated_Source\PSoC5/cyfitter_cfg.c **** void AMux_Set(uint8 channel)
 343:.\Generated_Source\PSoC5/cyfitter_cfg.c **** {
 492              		.loc 1 343 0
 493              		.cfi_startproc
 494              		@ args = 0, pretend = 0, frame = 0
 495              		@ frame_needed = 0, uses_anonymous_args = 0
 496              		@ link register save eliminated.
 497              	.LVL35:
 344:.\Generated_Source\PSoC5/cyfitter_cfg.c **** 	if (channel < 3)
 498              		.loc 1 344 0
 499 0000 0228     		cmp	r0, #2
 500 0002 07D8     		bhi	.L26
 345:.\Generated_Source\PSoC5/cyfitter_cfg.c **** 	{
 346:.\Generated_Source\PSoC5/cyfitter_cfg.c **** 		*AMux__addrTable[channel] |= AMux__maskTable[channel];
 501              		.loc 1 346 0
 502 0004 044A     		ldr	r2, .L28
 503 0006 52F82030 		ldr	r3, [r2, r0, lsl #2]
 504 000a 1044     		add	r0, r0, r2
 505              	.LVL36:
 506 000c 017B     		ldrb	r1, [r0, #12]	@ zero_extendqisi2
 507 000e 1A78     		ldrb	r2, [r3]	@ zero_extendqisi2
 508 0010 0A43     		orrs	r2, r2, r1
 509 0012 1A70     		strb	r2, [r3]
 510              	.L26:
 511 0014 7047     		bx	lr
 512              	.L29:
 513 0016 00BF     		.align	2
 514              	.L28:
 515 0018 00000000 		.word	.LANCHOR0
 516              		.cfi_endproc
 517              	.LFE8:
 518              		.size	AMux_Set, .-AMux_Set
 519              		.section	.text.AMux_Unset,"ax",%progbits
 520              		.align	2
 521              		.global	AMux_Unset
ARM GAS  C:\Users\Nick\AppData\Local\Temp\ccjuUlaQ.s 			page 17


 522              		.thumb
 523              		.thumb_func
 524              		.type	AMux_Unset, %function
 525              	AMux_Unset:
 526              	.LFB9:
 347:.\Generated_Source\PSoC5/cyfitter_cfg.c **** 	}
 348:.\Generated_Source\PSoC5/cyfitter_cfg.c **** }
 349:.\Generated_Source\PSoC5/cyfitter_cfg.c **** 
 350:.\Generated_Source\PSoC5/cyfitter_cfg.c **** /*******************************************************************************
 351:.\Generated_Source\PSoC5/cyfitter_cfg.c **** * Function Name: AMux_Unset
 352:.\Generated_Source\PSoC5/cyfitter_cfg.c **** ********************************************************************************
 353:.\Generated_Source\PSoC5/cyfitter_cfg.c **** * Summary:
 354:.\Generated_Source\PSoC5/cyfitter_cfg.c **** *  This function is used to clear a particular channel from being active on the
 355:.\Generated_Source\PSoC5/cyfitter_cfg.c **** *  AMux.
 356:.\Generated_Source\PSoC5/cyfitter_cfg.c **** *
 357:.\Generated_Source\PSoC5/cyfitter_cfg.c **** * Parameters:  
 358:.\Generated_Source\PSoC5/cyfitter_cfg.c **** *   channel - The mux channel input to mark inactive
 359:.\Generated_Source\PSoC5/cyfitter_cfg.c **** *
 360:.\Generated_Source\PSoC5/cyfitter_cfg.c **** * Return:
 361:.\Generated_Source\PSoC5/cyfitter_cfg.c **** *   void
 362:.\Generated_Source\PSoC5/cyfitter_cfg.c **** *
 363:.\Generated_Source\PSoC5/cyfitter_cfg.c **** *******************************************************************************/
 364:.\Generated_Source\PSoC5/cyfitter_cfg.c **** void AMux_Unset(uint8 channel)
 365:.\Generated_Source\PSoC5/cyfitter_cfg.c **** {
 527              		.loc 1 365 0
 528              		.cfi_startproc
 529              		@ args = 0, pretend = 0, frame = 0
 530              		@ frame_needed = 0, uses_anonymous_args = 0
 531              		@ link register save eliminated.
 532              	.LVL37:
 366:.\Generated_Source\PSoC5/cyfitter_cfg.c **** 	if (channel < 3)
 533              		.loc 1 366 0
 534 0000 0228     		cmp	r0, #2
 535 0002 08D8     		bhi	.L30
 367:.\Generated_Source\PSoC5/cyfitter_cfg.c **** 	{
 368:.\Generated_Source\PSoC5/cyfitter_cfg.c **** 		*AMux__addrTable[channel] &= (uint8)~AMux__maskTable[channel];
 536              		.loc 1 368 0
 537 0004 044A     		ldr	r2, .L32
 538 0006 52F82030 		ldr	r3, [r2, r0, lsl #2]
 539 000a 1044     		add	r0, r0, r2
 540              	.LVL38:
 541 000c 017B     		ldrb	r1, [r0, #12]	@ zero_extendqisi2
 542 000e 1A78     		ldrb	r2, [r3]	@ zero_extendqisi2
 543 0010 22EA0102 		bic	r2, r2, r1
 544 0014 1A70     		strb	r2, [r3]
 545              	.L30:
 546 0016 7047     		bx	lr
 547              	.L33:
 548              		.align	2
 549              	.L32:
 550 0018 00000000 		.word	.LANCHOR0
 551              		.cfi_endproc
 552              	.LFE9:
 553              		.size	AMux_Unset, .-AMux_Unset
 554              		.section	.text.cyfitter_cfg,"ax",%progbits
 555              		.align	2
 556              		.global	cyfitter_cfg
ARM GAS  C:\Users\Nick\AppData\Local\Temp\ccjuUlaQ.s 			page 18


 557              		.thumb
 558              		.thumb_func
 559              		.type	cyfitter_cfg, %function
 560              	cyfitter_cfg:
 561              	.LFB10:
 369:.\Generated_Source\PSoC5/cyfitter_cfg.c **** 	}
 370:.\Generated_Source\PSoC5/cyfitter_cfg.c **** }
 371:.\Generated_Source\PSoC5/cyfitter_cfg.c **** 
 372:.\Generated_Source\PSoC5/cyfitter_cfg.c **** 
 373:.\Generated_Source\PSoC5/cyfitter_cfg.c **** 
 374:.\Generated_Source\PSoC5/cyfitter_cfg.c **** /*******************************************************************************
 375:.\Generated_Source\PSoC5/cyfitter_cfg.c **** * Function Name: cyfitter_cfg
 376:.\Generated_Source\PSoC5/cyfitter_cfg.c **** ********************************************************************************
 377:.\Generated_Source\PSoC5/cyfitter_cfg.c **** * Summary:
 378:.\Generated_Source\PSoC5/cyfitter_cfg.c **** *  This function is called by the start-up code for the selected device. It
 379:.\Generated_Source\PSoC5/cyfitter_cfg.c **** *  performs all of the necessary device configuration based on the design
 380:.\Generated_Source\PSoC5/cyfitter_cfg.c **** *  settings.  This includes settings from the Design Wide Resources (DWR) such
 381:.\Generated_Source\PSoC5/cyfitter_cfg.c **** *  as Clocks and Pins as well as any component configuration that is necessary.
 382:.\Generated_Source\PSoC5/cyfitter_cfg.c **** *
 383:.\Generated_Source\PSoC5/cyfitter_cfg.c **** * Parameters:  
 384:.\Generated_Source\PSoC5/cyfitter_cfg.c **** *   void
 385:.\Generated_Source\PSoC5/cyfitter_cfg.c **** *
 386:.\Generated_Source\PSoC5/cyfitter_cfg.c **** * Return:
 387:.\Generated_Source\PSoC5/cyfitter_cfg.c **** *   void
 388:.\Generated_Source\PSoC5/cyfitter_cfg.c **** *
 389:.\Generated_Source\PSoC5/cyfitter_cfg.c **** *******************************************************************************/
 390:.\Generated_Source\PSoC5/cyfitter_cfg.c **** 
 391:.\Generated_Source\PSoC5/cyfitter_cfg.c **** void cyfitter_cfg(void)
 392:.\Generated_Source\PSoC5/cyfitter_cfg.c **** {
 562              		.loc 1 392 0
 563              		.cfi_startproc
 564              		@ args = 0, pretend = 0, frame = 0
 565              		@ frame_needed = 0, uses_anonymous_args = 0
 566 0000 38B5     		push	{r3, r4, r5, lr}
 567              		.cfi_def_cfa_offset 16
 568              		.cfi_offset 3, -16
 569              		.cfi_offset 4, -12
 570              		.cfi_offset 5, -8
 571              		.cfi_offset 14, -4
 393:.\Generated_Source\PSoC5/cyfitter_cfg.c **** 	/* IOPINS0_0 Address: CYREG_PRT0_DM0 Size (bytes): 8 */
 394:.\Generated_Source\PSoC5/cyfitter_cfg.c **** 	static const uint8 CYCODE BS_IOPINS0_0_VAL[] = {
 395:.\Generated_Source\PSoC5/cyfitter_cfg.c **** 		0x02u, 0xC5u, 0xC5u, 0x00u, 0xC4u, 0x00u, 0x00u, 0x00u};
 396:.\Generated_Source\PSoC5/cyfitter_cfg.c **** 
 397:.\Generated_Source\PSoC5/cyfitter_cfg.c **** 	/* IOPINS0_7 Address: CYREG_PRT12_DM0 Size (bytes): 8 */
 398:.\Generated_Source\PSoC5/cyfitter_cfg.c **** 	static const uint8 CYCODE BS_IOPINS0_7_VAL[] = {
 399:.\Generated_Source\PSoC5/cyfitter_cfg.c **** 		0x40u, 0x8Fu, 0x8Fu, 0x00u, 0x0Cu, 0x00u, 0x00u, 0x00u};
 400:.\Generated_Source\PSoC5/cyfitter_cfg.c **** 
 401:.\Generated_Source\PSoC5/cyfitter_cfg.c **** 	/* IOPINS0_8 Address: CYREG_PRT15_DM0 Size (bytes): 8 */
 402:.\Generated_Source\PSoC5/cyfitter_cfg.c **** 	static const uint8 CYCODE BS_IOPINS0_8_VAL[] = {
 403:.\Generated_Source\PSoC5/cyfitter_cfg.c **** 		0x20u, 0x18u, 0x18u, 0x00u, 0x18u, 0x00u, 0x00u, 0x00u};
 404:.\Generated_Source\PSoC5/cyfitter_cfg.c **** 
 405:.\Generated_Source\PSoC5/cyfitter_cfg.c **** 	/* IOPINS0_1 Address: CYREG_PRT1_DM0 Size (bytes): 8 */
 406:.\Generated_Source\PSoC5/cyfitter_cfg.c **** 	static const uint8 CYCODE BS_IOPINS0_1_VAL[] = {
 407:.\Generated_Source\PSoC5/cyfitter_cfg.c **** 		0x00u, 0x00u, 0x00u, 0x00u, 0x00u, 0x00u, 0x01u, 0x00u};
 408:.\Generated_Source\PSoC5/cyfitter_cfg.c **** 
 409:.\Generated_Source\PSoC5/cyfitter_cfg.c **** 	/* IOPINS0_2 Address: CYREG_PRT2_DR Size (bytes): 10 */
 410:.\Generated_Source\PSoC5/cyfitter_cfg.c **** 	static const uint8 CYCODE BS_IOPINS0_2_VAL[] = {
ARM GAS  C:\Users\Nick\AppData\Local\Temp\ccjuUlaQ.s 			page 19


 411:.\Generated_Source\PSoC5/cyfitter_cfg.c **** 		0x30u, 0x00u, 0x05u, 0x0Au, 0x3Au, 0x00u, 0x30u, 0x00u, 0x00u, 0x00u};
 412:.\Generated_Source\PSoC5/cyfitter_cfg.c **** 
 413:.\Generated_Source\PSoC5/cyfitter_cfg.c **** 	/* IOPINS0_3 Address: CYREG_PRT3_DM0 Size (bytes): 8 */
 414:.\Generated_Source\PSoC5/cyfitter_cfg.c **** 	static const uint8 CYCODE BS_IOPINS0_3_VAL[] = {
 415:.\Generated_Source\PSoC5/cyfitter_cfg.c **** 		0x00u, 0xF0u, 0xF0u, 0x00u, 0x00u, 0x00u, 0x00u, 0x00u};
 416:.\Generated_Source\PSoC5/cyfitter_cfg.c **** 
 417:.\Generated_Source\PSoC5/cyfitter_cfg.c **** 	/* IOPINS0_4 Address: CYREG_PRT4_DM0 Size (bytes): 8 */
 418:.\Generated_Source\PSoC5/cyfitter_cfg.c **** 	static const uint8 CYCODE BS_IOPINS0_4_VAL[] = {
 419:.\Generated_Source\PSoC5/cyfitter_cfg.c **** 		0xF0u, 0x03u, 0x03u, 0x00u, 0x03u, 0x00u, 0x00u, 0x01u};
 420:.\Generated_Source\PSoC5/cyfitter_cfg.c **** 
 421:.\Generated_Source\PSoC5/cyfitter_cfg.c **** 	/* IOPINS0_5 Address: CYREG_PRT5_DM0 Size (bytes): 8 */
 422:.\Generated_Source\PSoC5/cyfitter_cfg.c **** 	static const uint8 CYCODE BS_IOPINS0_5_VAL[] = {
 423:.\Generated_Source\PSoC5/cyfitter_cfg.c **** 		0x80u, 0xF0u, 0x70u, 0x00u, 0x80u, 0x00u, 0x09u, 0x00u};
 424:.\Generated_Source\PSoC5/cyfitter_cfg.c **** 
 425:.\Generated_Source\PSoC5/cyfitter_cfg.c **** 	/* IOPINS0_6 Address: CYREG_PRT6_DM0 Size (bytes): 8 */
 426:.\Generated_Source\PSoC5/cyfitter_cfg.c **** 	static const uint8 CYCODE BS_IOPINS0_6_VAL[] = {
 427:.\Generated_Source\PSoC5/cyfitter_cfg.c **** 		0x1Fu, 0x10u, 0x00u, 0x00u, 0x10u, 0x00u, 0x00u, 0x00u};
 428:.\Generated_Source\PSoC5/cyfitter_cfg.c **** 
 429:.\Generated_Source\PSoC5/cyfitter_cfg.c **** #ifdef CYGlobalIntDisable
 430:.\Generated_Source\PSoC5/cyfitter_cfg.c **** 	/* Disable interrupts by default. Let user enable if/when they want. */
 431:.\Generated_Source\PSoC5/cyfitter_cfg.c **** 	CYGlobalIntDisable
 572              		.loc 1 431 0
 573              	@ 431 ".\Generated_Source\PSoC5\cyfitter_cfg.c" 1
 574 0002 72B6     		CPSID   i
 575              	@ 0 "" 2
 576              	.LVL39:
 577              		.thumb
 578              	.LBB3:
 432:.\Generated_Source\PSoC5/cyfitter_cfg.c **** #endif
 433:.\Generated_Source\PSoC5/cyfitter_cfg.c **** 
 434:.\Generated_Source\PSoC5/cyfitter_cfg.c **** 	{
 435:.\Generated_Source\PSoC5/cyfitter_cfg.c **** 		static const uint32 CYCODE cy_cfg_addr_table[] = {
 436:.\Generated_Source\PSoC5/cyfitter_cfg.c **** 			0x40004F02u, /* Base address: 0x40004F00 Count: 2 */
 437:.\Generated_Source\PSoC5/cyfitter_cfg.c **** 			0x4000520Fu, /* Base address: 0x40005200 Count: 15 */
 438:.\Generated_Source\PSoC5/cyfitter_cfg.c **** 			0x40005B01u, /* Base address: 0x40005B00 Count: 1 */
 439:.\Generated_Source\PSoC5/cyfitter_cfg.c **** 			0x40006402u, /* Base address: 0x40006400 Count: 2 */
 440:.\Generated_Source\PSoC5/cyfitter_cfg.c **** 			0x40010101u, /* Base address: 0x40010100 Count: 1 */
 441:.\Generated_Source\PSoC5/cyfitter_cfg.c **** 			0x4001025Fu, /* Base address: 0x40010200 Count: 95 */
 442:.\Generated_Source\PSoC5/cyfitter_cfg.c **** 			0x40010333u, /* Base address: 0x40010300 Count: 51 */
 443:.\Generated_Source\PSoC5/cyfitter_cfg.c **** 			0x4001044Bu, /* Base address: 0x40010400 Count: 75 */
 444:.\Generated_Source\PSoC5/cyfitter_cfg.c **** 			0x40010536u, /* Base address: 0x40010500 Count: 54 */
 445:.\Generated_Source\PSoC5/cyfitter_cfg.c **** 			0x40010704u, /* Base address: 0x40010700 Count: 4 */
 446:.\Generated_Source\PSoC5/cyfitter_cfg.c **** 			0x40010904u, /* Base address: 0x40010900 Count: 4 */
 447:.\Generated_Source\PSoC5/cyfitter_cfg.c **** 			0x40010A12u, /* Base address: 0x40010A00 Count: 18 */
 448:.\Generated_Source\PSoC5/cyfitter_cfg.c **** 			0x40010B21u, /* Base address: 0x40010B00 Count: 33 */
 449:.\Generated_Source\PSoC5/cyfitter_cfg.c **** 			0x40010D0Cu, /* Base address: 0x40010D00 Count: 12 */
 450:.\Generated_Source\PSoC5/cyfitter_cfg.c **** 			0x40010E04u, /* Base address: 0x40010E00 Count: 4 */
 451:.\Generated_Source\PSoC5/cyfitter_cfg.c **** 			0x40010F02u, /* Base address: 0x40010F00 Count: 2 */
 452:.\Generated_Source\PSoC5/cyfitter_cfg.c **** 			0x40011503u, /* Base address: 0x40011500 Count: 3 */
 453:.\Generated_Source\PSoC5/cyfitter_cfg.c **** 			0x40011702u, /* Base address: 0x40011700 Count: 2 */
 454:.\Generated_Source\PSoC5/cyfitter_cfg.c **** 			0x40011903u, /* Base address: 0x40011900 Count: 3 */
 455:.\Generated_Source\PSoC5/cyfitter_cfg.c **** 			0x40011B05u, /* Base address: 0x40011B00 Count: 5 */
 456:.\Generated_Source\PSoC5/cyfitter_cfg.c **** 			0x40014012u, /* Base address: 0x40014000 Count: 18 */
 457:.\Generated_Source\PSoC5/cyfitter_cfg.c **** 			0x40014118u, /* Base address: 0x40014100 Count: 24 */
 458:.\Generated_Source\PSoC5/cyfitter_cfg.c **** 			0x40014219u, /* Base address: 0x40014200 Count: 25 */
 459:.\Generated_Source\PSoC5/cyfitter_cfg.c **** 			0x4001430Eu, /* Base address: 0x40014300 Count: 14 */
 460:.\Generated_Source\PSoC5/cyfitter_cfg.c **** 			0x40014408u, /* Base address: 0x40014400 Count: 8 */
ARM GAS  C:\Users\Nick\AppData\Local\Temp\ccjuUlaQ.s 			page 20


 461:.\Generated_Source\PSoC5/cyfitter_cfg.c **** 			0x40014511u, /* Base address: 0x40014500 Count: 17 */
 462:.\Generated_Source\PSoC5/cyfitter_cfg.c **** 			0x4001460Du, /* Base address: 0x40014600 Count: 13 */
 463:.\Generated_Source\PSoC5/cyfitter_cfg.c **** 			0x4001470Bu, /* Base address: 0x40014700 Count: 11 */
 464:.\Generated_Source\PSoC5/cyfitter_cfg.c **** 			0x40014809u, /* Base address: 0x40014800 Count: 9 */
 465:.\Generated_Source\PSoC5/cyfitter_cfg.c **** 			0x4001490Cu, /* Base address: 0x40014900 Count: 12 */
 466:.\Generated_Source\PSoC5/cyfitter_cfg.c **** 			0x40014C10u, /* Base address: 0x40014C00 Count: 16 */
 467:.\Generated_Source\PSoC5/cyfitter_cfg.c **** 			0x40014D0Du, /* Base address: 0x40014D00 Count: 13 */
 468:.\Generated_Source\PSoC5/cyfitter_cfg.c **** 			0x40015003u, /* Base address: 0x40015000 Count: 3 */
 469:.\Generated_Source\PSoC5/cyfitter_cfg.c **** 			0x40015104u, /* Base address: 0x40015100 Count: 4 */
 470:.\Generated_Source\PSoC5/cyfitter_cfg.c **** 		};
 471:.\Generated_Source\PSoC5/cyfitter_cfg.c **** 
 472:.\Generated_Source\PSoC5/cyfitter_cfg.c **** 		static const cy_cfg_addrvalue_t CYCODE cy_cfg_data_table[] = {
 473:.\Generated_Source\PSoC5/cyfitter_cfg.c **** 			{0x01u, 0x10u},
 474:.\Generated_Source\PSoC5/cyfitter_cfg.c **** 			{0x0Au, 0x4Bu},
 475:.\Generated_Source\PSoC5/cyfitter_cfg.c **** 			{0x00u, 0x40u},
 476:.\Generated_Source\PSoC5/cyfitter_cfg.c **** 			{0x01u, 0x40u},
 477:.\Generated_Source\PSoC5/cyfitter_cfg.c **** 			{0x04u, 0x02u},
 478:.\Generated_Source\PSoC5/cyfitter_cfg.c **** 			{0x10u, 0x20u},
 479:.\Generated_Source\PSoC5/cyfitter_cfg.c **** 			{0x11u, 0x20u},
 480:.\Generated_Source\PSoC5/cyfitter_cfg.c **** 			{0x14u, 0x30u},
 481:.\Generated_Source\PSoC5/cyfitter_cfg.c **** 			{0x20u, 0x02u},
 482:.\Generated_Source\PSoC5/cyfitter_cfg.c **** 			{0x21u, 0x01u},
 483:.\Generated_Source\PSoC5/cyfitter_cfg.c **** 			{0x29u, 0x80u},
 484:.\Generated_Source\PSoC5/cyfitter_cfg.c **** 			{0x30u, 0x10u},
 485:.\Generated_Source\PSoC5/cyfitter_cfg.c **** 			{0x31u, 0x10u},
 486:.\Generated_Source\PSoC5/cyfitter_cfg.c **** 			{0x61u, 0x04u},
 487:.\Generated_Source\PSoC5/cyfitter_cfg.c **** 			{0x64u, 0x40u},
 488:.\Generated_Source\PSoC5/cyfitter_cfg.c **** 			{0x78u, 0x08u},
 489:.\Generated_Source\PSoC5/cyfitter_cfg.c **** 			{0x79u, 0x18u},
 490:.\Generated_Source\PSoC5/cyfitter_cfg.c **** 			{0x27u, 0x84u},
 491:.\Generated_Source\PSoC5/cyfitter_cfg.c **** 			{0x83u, 0x0Fu},
 492:.\Generated_Source\PSoC5/cyfitter_cfg.c **** 			{0x84u, 0x0Du},
 493:.\Generated_Source\PSoC5/cyfitter_cfg.c **** 			{0xE2u, 0x08u},
 494:.\Generated_Source\PSoC5/cyfitter_cfg.c **** 			{0x03u, 0x07u},
 495:.\Generated_Source\PSoC5/cyfitter_cfg.c **** 			{0x0Eu, 0x01u},
 496:.\Generated_Source\PSoC5/cyfitter_cfg.c **** 			{0x0Fu, 0x07u},
 497:.\Generated_Source\PSoC5/cyfitter_cfg.c **** 			{0x12u, 0x01u},
 498:.\Generated_Source\PSoC5/cyfitter_cfg.c **** 			{0x13u, 0x06u},
 499:.\Generated_Source\PSoC5/cyfitter_cfg.c **** 			{0x15u, 0x01u},
 500:.\Generated_Source\PSoC5/cyfitter_cfg.c **** 			{0x17u, 0x04u},
 501:.\Generated_Source\PSoC5/cyfitter_cfg.c **** 			{0x1Eu, 0x01u},
 502:.\Generated_Source\PSoC5/cyfitter_cfg.c **** 			{0x25u, 0x04u},
 503:.\Generated_Source\PSoC5/cyfitter_cfg.c **** 			{0x27u, 0x09u},
 504:.\Generated_Source\PSoC5/cyfitter_cfg.c **** 			{0x33u, 0x04u},
 505:.\Generated_Source\PSoC5/cyfitter_cfg.c **** 			{0x34u, 0x01u},
 506:.\Generated_Source\PSoC5/cyfitter_cfg.c **** 			{0x35u, 0x08u},
 507:.\Generated_Source\PSoC5/cyfitter_cfg.c **** 			{0x37u, 0x03u},
 508:.\Generated_Source\PSoC5/cyfitter_cfg.c **** 			{0x3Eu, 0x10u},
 509:.\Generated_Source\PSoC5/cyfitter_cfg.c **** 			{0x3Fu, 0x04u},
 510:.\Generated_Source\PSoC5/cyfitter_cfg.c **** 			{0x40u, 0x25u},
 511:.\Generated_Source\PSoC5/cyfitter_cfg.c **** 			{0x42u, 0x03u},
 512:.\Generated_Source\PSoC5/cyfitter_cfg.c **** 			{0x49u, 0xFFu},
 513:.\Generated_Source\PSoC5/cyfitter_cfg.c **** 			{0x4Au, 0xFFu},
 514:.\Generated_Source\PSoC5/cyfitter_cfg.c **** 			{0x4Bu, 0xFFu},
 515:.\Generated_Source\PSoC5/cyfitter_cfg.c **** 			{0x4Fu, 0x01u},
 516:.\Generated_Source\PSoC5/cyfitter_cfg.c **** 			{0x50u, 0x18u},
 517:.\Generated_Source\PSoC5/cyfitter_cfg.c **** 			{0x58u, 0x04u},
ARM GAS  C:\Users\Nick\AppData\Local\Temp\ccjuUlaQ.s 			page 21


 518:.\Generated_Source\PSoC5/cyfitter_cfg.c **** 			{0x59u, 0x04u},
 519:.\Generated_Source\PSoC5/cyfitter_cfg.c **** 			{0x5Au, 0x04u},
 520:.\Generated_Source\PSoC5/cyfitter_cfg.c **** 			{0x5Cu, 0x40u},
 521:.\Generated_Source\PSoC5/cyfitter_cfg.c **** 			{0x5Du, 0x04u},
 522:.\Generated_Source\PSoC5/cyfitter_cfg.c **** 			{0x5Fu, 0x01u},
 523:.\Generated_Source\PSoC5/cyfitter_cfg.c **** 			{0x60u, 0x40u},
 524:.\Generated_Source\PSoC5/cyfitter_cfg.c **** 			{0x62u, 0x40u},
 525:.\Generated_Source\PSoC5/cyfitter_cfg.c **** 			{0x64u, 0x40u},
 526:.\Generated_Source\PSoC5/cyfitter_cfg.c **** 			{0x65u, 0x40u},
 527:.\Generated_Source\PSoC5/cyfitter_cfg.c **** 			{0x66u, 0x80u},
 528:.\Generated_Source\PSoC5/cyfitter_cfg.c **** 			{0x68u, 0x80u},
 529:.\Generated_Source\PSoC5/cyfitter_cfg.c **** 			{0x6Au, 0x80u},
 530:.\Generated_Source\PSoC5/cyfitter_cfg.c **** 			{0x6Cu, 0x80u},
 531:.\Generated_Source\PSoC5/cyfitter_cfg.c **** 			{0x6Eu, 0x80u},
 532:.\Generated_Source\PSoC5/cyfitter_cfg.c **** 			{0x80u, 0x0Au},
 533:.\Generated_Source\PSoC5/cyfitter_cfg.c **** 			{0x89u, 0x19u},
 534:.\Generated_Source\PSoC5/cyfitter_cfg.c **** 			{0x8Au, 0x12u},
 535:.\Generated_Source\PSoC5/cyfitter_cfg.c **** 			{0x8Bu, 0x62u},
 536:.\Generated_Source\PSoC5/cyfitter_cfg.c **** 			{0x8Du, 0x2Bu},
 537:.\Generated_Source\PSoC5/cyfitter_cfg.c **** 			{0x8Eu, 0x01u},
 538:.\Generated_Source\PSoC5/cyfitter_cfg.c **** 			{0x8Fu, 0x50u},
 539:.\Generated_Source\PSoC5/cyfitter_cfg.c **** 			{0x91u, 0x2Bu},
 540:.\Generated_Source\PSoC5/cyfitter_cfg.c **** 			{0x92u, 0x01u},
 541:.\Generated_Source\PSoC5/cyfitter_cfg.c **** 			{0x93u, 0x50u},
 542:.\Generated_Source\PSoC5/cyfitter_cfg.c **** 			{0x95u, 0x04u},
 543:.\Generated_Source\PSoC5/cyfitter_cfg.c **** 			{0x96u, 0x1Eu},
 544:.\Generated_Source\PSoC5/cyfitter_cfg.c **** 			{0x97u, 0x78u},
 545:.\Generated_Source\PSoC5/cyfitter_cfg.c **** 			{0x9Eu, 0x1Cu},
 546:.\Generated_Source\PSoC5/cyfitter_cfg.c **** 			{0xA2u, 0x01u},
 547:.\Generated_Source\PSoC5/cyfitter_cfg.c **** 			{0xA5u, 0x19u},
 548:.\Generated_Source\PSoC5/cyfitter_cfg.c **** 			{0xA7u, 0x62u},
 549:.\Generated_Source\PSoC5/cyfitter_cfg.c **** 			{0xAAu, 0x06u},
 550:.\Generated_Source\PSoC5/cyfitter_cfg.c **** 			{0xAEu, 0x01u},
 551:.\Generated_Source\PSoC5/cyfitter_cfg.c **** 			{0xB1u, 0x07u},
 552:.\Generated_Source\PSoC5/cyfitter_cfg.c **** 			{0xB2u, 0x1Eu},
 553:.\Generated_Source\PSoC5/cyfitter_cfg.c **** 			{0xB5u, 0x78u},
 554:.\Generated_Source\PSoC5/cyfitter_cfg.c **** 			{0xB6u, 0x01u},
 555:.\Generated_Source\PSoC5/cyfitter_cfg.c **** 			{0xBAu, 0x08u},
 556:.\Generated_Source\PSoC5/cyfitter_cfg.c **** 			{0xBBu, 0x03u},
 557:.\Generated_Source\PSoC5/cyfitter_cfg.c **** 			{0xBEu, 0x40u},
 558:.\Generated_Source\PSoC5/cyfitter_cfg.c **** 			{0xC0u, 0x25u},
 559:.\Generated_Source\PSoC5/cyfitter_cfg.c **** 			{0xC2u, 0x03u},
 560:.\Generated_Source\PSoC5/cyfitter_cfg.c **** 			{0xC5u, 0xECu},
 561:.\Generated_Source\PSoC5/cyfitter_cfg.c **** 			{0xC7u, 0x20u},
 562:.\Generated_Source\PSoC5/cyfitter_cfg.c **** 			{0xC8u, 0x23u},
 563:.\Generated_Source\PSoC5/cyfitter_cfg.c **** 			{0xC9u, 0xFFu},
 564:.\Generated_Source\PSoC5/cyfitter_cfg.c **** 			{0xCAu, 0xFFu},
 565:.\Generated_Source\PSoC5/cyfitter_cfg.c **** 			{0xCBu, 0xFFu},
 566:.\Generated_Source\PSoC5/cyfitter_cfg.c **** 			{0xCDu, 0x83u},
 567:.\Generated_Source\PSoC5/cyfitter_cfg.c **** 			{0xCEu, 0x03u},
 568:.\Generated_Source\PSoC5/cyfitter_cfg.c **** 			{0xCFu, 0x01u},
 569:.\Generated_Source\PSoC5/cyfitter_cfg.c **** 			{0xD0u, 0x18u},
 570:.\Generated_Source\PSoC5/cyfitter_cfg.c **** 			{0xD2u, 0x93u},
 571:.\Generated_Source\PSoC5/cyfitter_cfg.c **** 			{0xD4u, 0x03u},
 572:.\Generated_Source\PSoC5/cyfitter_cfg.c **** 			{0xD6u, 0x04u},
 573:.\Generated_Source\PSoC5/cyfitter_cfg.c **** 			{0xD8u, 0x04u},
 574:.\Generated_Source\PSoC5/cyfitter_cfg.c **** 			{0xD9u, 0x04u},
ARM GAS  C:\Users\Nick\AppData\Local\Temp\ccjuUlaQ.s 			page 22


 575:.\Generated_Source\PSoC5/cyfitter_cfg.c **** 			{0xDAu, 0x04u},
 576:.\Generated_Source\PSoC5/cyfitter_cfg.c **** 			{0xDBu, 0x04u},
 577:.\Generated_Source\PSoC5/cyfitter_cfg.c **** 			{0xDCu, 0x44u},
 578:.\Generated_Source\PSoC5/cyfitter_cfg.c **** 			{0xDDu, 0x44u},
 579:.\Generated_Source\PSoC5/cyfitter_cfg.c **** 			{0xDFu, 0x01u},
 580:.\Generated_Source\PSoC5/cyfitter_cfg.c **** 			{0xE0u, 0x40u},
 581:.\Generated_Source\PSoC5/cyfitter_cfg.c **** 			{0xE2u, 0x40u},
 582:.\Generated_Source\PSoC5/cyfitter_cfg.c **** 			{0xE4u, 0x40u},
 583:.\Generated_Source\PSoC5/cyfitter_cfg.c **** 			{0xE5u, 0x40u},
 584:.\Generated_Source\PSoC5/cyfitter_cfg.c **** 			{0xE6u, 0x80u},
 585:.\Generated_Source\PSoC5/cyfitter_cfg.c **** 			{0xE8u, 0x80u},
 586:.\Generated_Source\PSoC5/cyfitter_cfg.c **** 			{0xEAu, 0x80u},
 587:.\Generated_Source\PSoC5/cyfitter_cfg.c **** 			{0xECu, 0x80u},
 588:.\Generated_Source\PSoC5/cyfitter_cfg.c **** 			{0xEEu, 0x80u},
 589:.\Generated_Source\PSoC5/cyfitter_cfg.c **** 			{0x00u, 0x12u},
 590:.\Generated_Source\PSoC5/cyfitter_cfg.c **** 			{0x02u, 0x02u},
 591:.\Generated_Source\PSoC5/cyfitter_cfg.c **** 			{0x07u, 0x01u},
 592:.\Generated_Source\PSoC5/cyfitter_cfg.c **** 			{0x09u, 0x08u},
 593:.\Generated_Source\PSoC5/cyfitter_cfg.c **** 			{0x0Au, 0x02u},
 594:.\Generated_Source\PSoC5/cyfitter_cfg.c **** 			{0x0Bu, 0x40u},
 595:.\Generated_Source\PSoC5/cyfitter_cfg.c **** 			{0x0Fu, 0x41u},
 596:.\Generated_Source\PSoC5/cyfitter_cfg.c **** 			{0x10u, 0x08u},
 597:.\Generated_Source\PSoC5/cyfitter_cfg.c **** 			{0x11u, 0x80u},
 598:.\Generated_Source\PSoC5/cyfitter_cfg.c **** 			{0x13u, 0x01u},
 599:.\Generated_Source\PSoC5/cyfitter_cfg.c **** 			{0x18u, 0x10u},
 600:.\Generated_Source\PSoC5/cyfitter_cfg.c **** 			{0x19u, 0x48u},
 601:.\Generated_Source\PSoC5/cyfitter_cfg.c **** 			{0x1Du, 0x20u},
 602:.\Generated_Source\PSoC5/cyfitter_cfg.c **** 			{0x22u, 0x11u},
 603:.\Generated_Source\PSoC5/cyfitter_cfg.c **** 			{0x25u, 0x48u},
 604:.\Generated_Source\PSoC5/cyfitter_cfg.c **** 			{0x27u, 0x09u},
 605:.\Generated_Source\PSoC5/cyfitter_cfg.c **** 			{0x29u, 0x08u},
 606:.\Generated_Source\PSoC5/cyfitter_cfg.c **** 			{0x2Fu, 0x20u},
 607:.\Generated_Source\PSoC5/cyfitter_cfg.c **** 			{0x31u, 0x08u},
 608:.\Generated_Source\PSoC5/cyfitter_cfg.c **** 			{0x32u, 0x01u},
 609:.\Generated_Source\PSoC5/cyfitter_cfg.c **** 			{0x37u, 0x09u},
 610:.\Generated_Source\PSoC5/cyfitter_cfg.c **** 			{0x39u, 0x50u},
 611:.\Generated_Source\PSoC5/cyfitter_cfg.c **** 			{0x3Fu, 0x41u},
 612:.\Generated_Source\PSoC5/cyfitter_cfg.c **** 			{0x41u, 0x28u},
 613:.\Generated_Source\PSoC5/cyfitter_cfg.c **** 			{0x45u, 0x28u},
 614:.\Generated_Source\PSoC5/cyfitter_cfg.c **** 			{0x49u, 0x05u},
 615:.\Generated_Source\PSoC5/cyfitter_cfg.c **** 			{0x4Au, 0x02u},
 616:.\Generated_Source\PSoC5/cyfitter_cfg.c **** 			{0x4Eu, 0x02u},
 617:.\Generated_Source\PSoC5/cyfitter_cfg.c **** 			{0x52u, 0x02u},
 618:.\Generated_Source\PSoC5/cyfitter_cfg.c **** 			{0x59u, 0x45u},
 619:.\Generated_Source\PSoC5/cyfitter_cfg.c **** 			{0x5Au, 0x20u},
 620:.\Generated_Source\PSoC5/cyfitter_cfg.c **** 			{0x63u, 0x80u},
 621:.\Generated_Source\PSoC5/cyfitter_cfg.c **** 			{0x68u, 0x09u},
 622:.\Generated_Source\PSoC5/cyfitter_cfg.c **** 			{0x69u, 0x50u},
 623:.\Generated_Source\PSoC5/cyfitter_cfg.c **** 			{0x72u, 0x82u},
 624:.\Generated_Source\PSoC5/cyfitter_cfg.c **** 			{0x73u, 0x41u},
 625:.\Generated_Source\PSoC5/cyfitter_cfg.c **** 			{0x81u, 0x10u},
 626:.\Generated_Source\PSoC5/cyfitter_cfg.c **** 			{0x83u, 0x40u},
 627:.\Generated_Source\PSoC5/cyfitter_cfg.c **** 			{0xC0u, 0x8Bu},
 628:.\Generated_Source\PSoC5/cyfitter_cfg.c **** 			{0xC2u, 0x9Du},
 629:.\Generated_Source\PSoC5/cyfitter_cfg.c **** 			{0xC4u, 0x0Bu},
 630:.\Generated_Source\PSoC5/cyfitter_cfg.c **** 			{0xCAu, 0x42u},
 631:.\Generated_Source\PSoC5/cyfitter_cfg.c **** 			{0xCCu, 0xC3u},
ARM GAS  C:\Users\Nick\AppData\Local\Temp\ccjuUlaQ.s 			page 23


 632:.\Generated_Source\PSoC5/cyfitter_cfg.c **** 			{0xCEu, 0x9Cu},
 633:.\Generated_Source\PSoC5/cyfitter_cfg.c **** 			{0xD0u, 0x66u},
 634:.\Generated_Source\PSoC5/cyfitter_cfg.c **** 			{0xD2u, 0x18u},
 635:.\Generated_Source\PSoC5/cyfitter_cfg.c **** 			{0xD6u, 0x0Fu},
 636:.\Generated_Source\PSoC5/cyfitter_cfg.c **** 			{0xD8u, 0x01u},
 637:.\Generated_Source\PSoC5/cyfitter_cfg.c **** 			{0xE8u, 0x07u},
 638:.\Generated_Source\PSoC5/cyfitter_cfg.c **** 			{0xECu, 0x04u},
 639:.\Generated_Source\PSoC5/cyfitter_cfg.c **** 			{0xEEu, 0x08u},
 640:.\Generated_Source\PSoC5/cyfitter_cfg.c **** 			{0x02u, 0x02u},
 641:.\Generated_Source\PSoC5/cyfitter_cfg.c **** 			{0x07u, 0x01u},
 642:.\Generated_Source\PSoC5/cyfitter_cfg.c **** 			{0x11u, 0x01u},
 643:.\Generated_Source\PSoC5/cyfitter_cfg.c **** 			{0x1Au, 0x02u},
 644:.\Generated_Source\PSoC5/cyfitter_cfg.c **** 			{0x2Au, 0x04u},
 645:.\Generated_Source\PSoC5/cyfitter_cfg.c **** 			{0x2Eu, 0x01u},
 646:.\Generated_Source\PSoC5/cyfitter_cfg.c **** 			{0x30u, 0x04u},
 647:.\Generated_Source\PSoC5/cyfitter_cfg.c **** 			{0x34u, 0x02u},
 648:.\Generated_Source\PSoC5/cyfitter_cfg.c **** 			{0x36u, 0x01u},
 649:.\Generated_Source\PSoC5/cyfitter_cfg.c **** 			{0x37u, 0x01u},
 650:.\Generated_Source\PSoC5/cyfitter_cfg.c **** 			{0x3Eu, 0x10u},
 651:.\Generated_Source\PSoC5/cyfitter_cfg.c **** 			{0x40u, 0x10u},
 652:.\Generated_Source\PSoC5/cyfitter_cfg.c **** 			{0x41u, 0x02u},
 653:.\Generated_Source\PSoC5/cyfitter_cfg.c **** 			{0x49u, 0xFFu},
 654:.\Generated_Source\PSoC5/cyfitter_cfg.c **** 			{0x4Au, 0xFFu},
 655:.\Generated_Source\PSoC5/cyfitter_cfg.c **** 			{0x4Bu, 0xFFu},
 656:.\Generated_Source\PSoC5/cyfitter_cfg.c **** 			{0x4Du, 0xA0u},
 657:.\Generated_Source\PSoC5/cyfitter_cfg.c **** 			{0x4Fu, 0x04u},
 658:.\Generated_Source\PSoC5/cyfitter_cfg.c **** 			{0x50u, 0x18u},
 659:.\Generated_Source\PSoC5/cyfitter_cfg.c **** 			{0x52u, 0x80u},
 660:.\Generated_Source\PSoC5/cyfitter_cfg.c **** 			{0x54u, 0x05u},
 661:.\Generated_Source\PSoC5/cyfitter_cfg.c **** 			{0x58u, 0x04u},
 662:.\Generated_Source\PSoC5/cyfitter_cfg.c **** 			{0x59u, 0x04u},
 663:.\Generated_Source\PSoC5/cyfitter_cfg.c **** 			{0x5Au, 0x04u},
 664:.\Generated_Source\PSoC5/cyfitter_cfg.c **** 			{0x5Bu, 0x04u},
 665:.\Generated_Source\PSoC5/cyfitter_cfg.c **** 			{0x5Cu, 0x22u},
 666:.\Generated_Source\PSoC5/cyfitter_cfg.c **** 			{0x5Du, 0x22u},
 667:.\Generated_Source\PSoC5/cyfitter_cfg.c **** 			{0x5Fu, 0x01u},
 668:.\Generated_Source\PSoC5/cyfitter_cfg.c **** 			{0x60u, 0x40u},
 669:.\Generated_Source\PSoC5/cyfitter_cfg.c **** 			{0x62u, 0xC0u},
 670:.\Generated_Source\PSoC5/cyfitter_cfg.c **** 			{0x64u, 0x40u},
 671:.\Generated_Source\PSoC5/cyfitter_cfg.c **** 			{0x65u, 0x40u},
 672:.\Generated_Source\PSoC5/cyfitter_cfg.c **** 			{0x66u, 0xC0u},
 673:.\Generated_Source\PSoC5/cyfitter_cfg.c **** 			{0x68u, 0xC0u},
 674:.\Generated_Source\PSoC5/cyfitter_cfg.c **** 			{0x6Au, 0xC0u},
 675:.\Generated_Source\PSoC5/cyfitter_cfg.c **** 			{0x6Cu, 0xC0u},
 676:.\Generated_Source\PSoC5/cyfitter_cfg.c **** 			{0x6Eu, 0xC0u},
 677:.\Generated_Source\PSoC5/cyfitter_cfg.c **** 			{0x82u, 0x03u},
 678:.\Generated_Source\PSoC5/cyfitter_cfg.c **** 			{0x83u, 0x01u},
 679:.\Generated_Source\PSoC5/cyfitter_cfg.c **** 			{0x87u, 0x01u},
 680:.\Generated_Source\PSoC5/cyfitter_cfg.c **** 			{0x8Eu, 0x03u},
 681:.\Generated_Source\PSoC5/cyfitter_cfg.c **** 			{0x92u, 0x02u},
 682:.\Generated_Source\PSoC5/cyfitter_cfg.c **** 			{0x9Cu, 0x01u},
 683:.\Generated_Source\PSoC5/cyfitter_cfg.c **** 			{0xA6u, 0x01u},
 684:.\Generated_Source\PSoC5/cyfitter_cfg.c **** 			{0xB0u, 0x03u},
 685:.\Generated_Source\PSoC5/cyfitter_cfg.c **** 			{0xB7u, 0x01u},
 686:.\Generated_Source\PSoC5/cyfitter_cfg.c **** 			{0xC0u, 0x50u},
 687:.\Generated_Source\PSoC5/cyfitter_cfg.c **** 			{0xC1u, 0x02u},
 688:.\Generated_Source\PSoC5/cyfitter_cfg.c **** 			{0xC5u, 0xD0u},
ARM GAS  C:\Users\Nick\AppData\Local\Temp\ccjuUlaQ.s 			page 24


 689:.\Generated_Source\PSoC5/cyfitter_cfg.c **** 			{0xC6u, 0x20u},
 690:.\Generated_Source\PSoC5/cyfitter_cfg.c **** 			{0xC7u, 0x01u},
 691:.\Generated_Source\PSoC5/cyfitter_cfg.c **** 			{0xC8u, 0x1Au},
 692:.\Generated_Source\PSoC5/cyfitter_cfg.c **** 			{0xC9u, 0xFFu},
 693:.\Generated_Source\PSoC5/cyfitter_cfg.c **** 			{0xCAu, 0xFFu},
 694:.\Generated_Source\PSoC5/cyfitter_cfg.c **** 			{0xCBu, 0xFFu},
 695:.\Generated_Source\PSoC5/cyfitter_cfg.c **** 			{0xCDu, 0xAFu},
 696:.\Generated_Source\PSoC5/cyfitter_cfg.c **** 			{0xCEu, 0x0Fu},
 697:.\Generated_Source\PSoC5/cyfitter_cfg.c **** 			{0xCFu, 0x04u},
 698:.\Generated_Source\PSoC5/cyfitter_cfg.c **** 			{0xD0u, 0x18u},
 699:.\Generated_Source\PSoC5/cyfitter_cfg.c **** 			{0xD8u, 0x04u},
 700:.\Generated_Source\PSoC5/cyfitter_cfg.c **** 			{0xD9u, 0x04u},
 701:.\Generated_Source\PSoC5/cyfitter_cfg.c **** 			{0xDAu, 0x04u},
 702:.\Generated_Source\PSoC5/cyfitter_cfg.c **** 			{0xDBu, 0x04u},
 703:.\Generated_Source\PSoC5/cyfitter_cfg.c **** 			{0xDCu, 0x24u},
 704:.\Generated_Source\PSoC5/cyfitter_cfg.c **** 			{0xDDu, 0x02u},
 705:.\Generated_Source\PSoC5/cyfitter_cfg.c **** 			{0xDFu, 0x01u},
 706:.\Generated_Source\PSoC5/cyfitter_cfg.c **** 			{0xE0u, 0x40u},
 707:.\Generated_Source\PSoC5/cyfitter_cfg.c **** 			{0xE2u, 0xC0u},
 708:.\Generated_Source\PSoC5/cyfitter_cfg.c **** 			{0xE4u, 0x40u},
 709:.\Generated_Source\PSoC5/cyfitter_cfg.c **** 			{0xE5u, 0x40u},
 710:.\Generated_Source\PSoC5/cyfitter_cfg.c **** 			{0xE6u, 0xC0u},
 711:.\Generated_Source\PSoC5/cyfitter_cfg.c **** 			{0xE8u, 0xC0u},
 712:.\Generated_Source\PSoC5/cyfitter_cfg.c **** 			{0xEAu, 0xC0u},
 713:.\Generated_Source\PSoC5/cyfitter_cfg.c **** 			{0xECu, 0xC0u},
 714:.\Generated_Source\PSoC5/cyfitter_cfg.c **** 			{0xEEu, 0xC0u},
 715:.\Generated_Source\PSoC5/cyfitter_cfg.c **** 			{0x00u, 0x01u},
 716:.\Generated_Source\PSoC5/cyfitter_cfg.c **** 			{0x06u, 0x82u},
 717:.\Generated_Source\PSoC5/cyfitter_cfg.c **** 			{0x09u, 0x20u},
 718:.\Generated_Source\PSoC5/cyfitter_cfg.c **** 			{0x0Eu, 0x80u},
 719:.\Generated_Source\PSoC5/cyfitter_cfg.c **** 			{0x0Fu, 0x02u},
 720:.\Generated_Source\PSoC5/cyfitter_cfg.c **** 			{0x10u, 0x02u},
 721:.\Generated_Source\PSoC5/cyfitter_cfg.c **** 			{0x12u, 0x04u},
 722:.\Generated_Source\PSoC5/cyfitter_cfg.c **** 			{0x17u, 0x08u},
 723:.\Generated_Source\PSoC5/cyfitter_cfg.c **** 			{0x18u, 0x01u},
 724:.\Generated_Source\PSoC5/cyfitter_cfg.c **** 			{0x19u, 0x01u},
 725:.\Generated_Source\PSoC5/cyfitter_cfg.c **** 			{0x1Au, 0x06u},
 726:.\Generated_Source\PSoC5/cyfitter_cfg.c **** 			{0x1Eu, 0x80u},
 727:.\Generated_Source\PSoC5/cyfitter_cfg.c **** 			{0x22u, 0x40u},
 728:.\Generated_Source\PSoC5/cyfitter_cfg.c **** 			{0x27u, 0x02u},
 729:.\Generated_Source\PSoC5/cyfitter_cfg.c **** 			{0x31u, 0x01u},
 730:.\Generated_Source\PSoC5/cyfitter_cfg.c **** 			{0x3Au, 0x04u},
 731:.\Generated_Source\PSoC5/cyfitter_cfg.c **** 			{0x3Cu, 0x01u},
 732:.\Generated_Source\PSoC5/cyfitter_cfg.c **** 			{0x3Fu, 0x08u},
 733:.\Generated_Source\PSoC5/cyfitter_cfg.c **** 			{0x40u, 0x01u},
 734:.\Generated_Source\PSoC5/cyfitter_cfg.c **** 			{0x41u, 0x20u},
 735:.\Generated_Source\PSoC5/cyfitter_cfg.c **** 			{0x45u, 0x20u},
 736:.\Generated_Source\PSoC5/cyfitter_cfg.c **** 			{0x4Du, 0x02u},
 737:.\Generated_Source\PSoC5/cyfitter_cfg.c **** 			{0x4Eu, 0x01u},
 738:.\Generated_Source\PSoC5/cyfitter_cfg.c **** 			{0x55u, 0x20u},
 739:.\Generated_Source\PSoC5/cyfitter_cfg.c **** 			{0x56u, 0x04u},
 740:.\Generated_Source\PSoC5/cyfitter_cfg.c **** 			{0x57u, 0x04u},
 741:.\Generated_Source\PSoC5/cyfitter_cfg.c **** 			{0x59u, 0x02u},
 742:.\Generated_Source\PSoC5/cyfitter_cfg.c **** 			{0x5Au, 0x84u},
 743:.\Generated_Source\PSoC5/cyfitter_cfg.c **** 			{0x6Cu, 0x01u},
 744:.\Generated_Source\PSoC5/cyfitter_cfg.c **** 			{0x6Du, 0x20u},
 745:.\Generated_Source\PSoC5/cyfitter_cfg.c **** 			{0x6Fu, 0x90u},
ARM GAS  C:\Users\Nick\AppData\Local\Temp\ccjuUlaQ.s 			page 25


 746:.\Generated_Source\PSoC5/cyfitter_cfg.c **** 			{0x70u, 0x02u},
 747:.\Generated_Source\PSoC5/cyfitter_cfg.c **** 			{0x77u, 0x05u},
 748:.\Generated_Source\PSoC5/cyfitter_cfg.c **** 			{0x83u, 0x04u},
 749:.\Generated_Source\PSoC5/cyfitter_cfg.c **** 			{0x8Cu, 0x01u},
 750:.\Generated_Source\PSoC5/cyfitter_cfg.c **** 			{0x9Au, 0x82u},
 751:.\Generated_Source\PSoC5/cyfitter_cfg.c **** 			{0x9Bu, 0x08u},
 752:.\Generated_Source\PSoC5/cyfitter_cfg.c **** 			{0xA3u, 0x01u},
 753:.\Generated_Source\PSoC5/cyfitter_cfg.c **** 			{0xA5u, 0x10u},
 754:.\Generated_Source\PSoC5/cyfitter_cfg.c **** 			{0xA7u, 0x80u},
 755:.\Generated_Source\PSoC5/cyfitter_cfg.c **** 			{0xAFu, 0x21u},
 756:.\Generated_Source\PSoC5/cyfitter_cfg.c **** 			{0xB7u, 0x80u},
 757:.\Generated_Source\PSoC5/cyfitter_cfg.c **** 			{0xC0u, 0x98u},
 758:.\Generated_Source\PSoC5/cyfitter_cfg.c **** 			{0xC2u, 0x92u},
 759:.\Generated_Source\PSoC5/cyfitter_cfg.c **** 			{0xC4u, 0x23u},
 760:.\Generated_Source\PSoC5/cyfitter_cfg.c **** 			{0xCCu, 0x01u},
 761:.\Generated_Source\PSoC5/cyfitter_cfg.c **** 			{0xCEu, 0xC2u},
 762:.\Generated_Source\PSoC5/cyfitter_cfg.c **** 			{0xD0u, 0x2Cu},
 763:.\Generated_Source\PSoC5/cyfitter_cfg.c **** 			{0xD2u, 0x10u},
 764:.\Generated_Source\PSoC5/cyfitter_cfg.c **** 			{0xD6u, 0x0Bu},
 765:.\Generated_Source\PSoC5/cyfitter_cfg.c **** 			{0xE0u, 0x20u},
 766:.\Generated_Source\PSoC5/cyfitter_cfg.c **** 			{0xE2u, 0x40u},
 767:.\Generated_Source\PSoC5/cyfitter_cfg.c **** 			{0xE6u, 0x0Cu},
 768:.\Generated_Source\PSoC5/cyfitter_cfg.c **** 			{0xEAu, 0x40u},
 769:.\Generated_Source\PSoC5/cyfitter_cfg.c **** 			{0xAFu, 0x03u},
 770:.\Generated_Source\PSoC5/cyfitter_cfg.c **** 			{0xB7u, 0x10u},
 771:.\Generated_Source\PSoC5/cyfitter_cfg.c **** 			{0xE4u, 0x01u},
 772:.\Generated_Source\PSoC5/cyfitter_cfg.c **** 			{0xEEu, 0x44u},
 773:.\Generated_Source\PSoC5/cyfitter_cfg.c **** 			{0x9Du, 0x08u},
 774:.\Generated_Source\PSoC5/cyfitter_cfg.c **** 			{0xB5u, 0x02u},
 775:.\Generated_Source\PSoC5/cyfitter_cfg.c **** 			{0xE4u, 0x01u},
 776:.\Generated_Source\PSoC5/cyfitter_cfg.c **** 			{0xEEu, 0x04u},
 777:.\Generated_Source\PSoC5/cyfitter_cfg.c **** 			{0x42u, 0x01u},
 778:.\Generated_Source\PSoC5/cyfitter_cfg.c **** 			{0x47u, 0xE0u},
 779:.\Generated_Source\PSoC5/cyfitter_cfg.c **** 			{0x48u, 0x20u},
 780:.\Generated_Source\PSoC5/cyfitter_cfg.c **** 			{0x49u, 0xFFu},
 781:.\Generated_Source\PSoC5/cyfitter_cfg.c **** 			{0x4Au, 0xFFu},
 782:.\Generated_Source\PSoC5/cyfitter_cfg.c **** 			{0x4Bu, 0xFFu},
 783:.\Generated_Source\PSoC5/cyfitter_cfg.c **** 			{0x4Fu, 0x83u},
 784:.\Generated_Source\PSoC5/cyfitter_cfg.c **** 			{0x5Au, 0x04u},
 785:.\Generated_Source\PSoC5/cyfitter_cfg.c **** 			{0x5Bu, 0x04u},
 786:.\Generated_Source\PSoC5/cyfitter_cfg.c **** 			{0x5Du, 0x08u},
 787:.\Generated_Source\PSoC5/cyfitter_cfg.c **** 			{0x5Fu, 0x11u},
 788:.\Generated_Source\PSoC5/cyfitter_cfg.c **** 			{0x86u, 0x01u},
 789:.\Generated_Source\PSoC5/cyfitter_cfg.c **** 			{0xAEu, 0x02u},
 790:.\Generated_Source\PSoC5/cyfitter_cfg.c **** 			{0xB2u, 0x01u},
 791:.\Generated_Source\PSoC5/cyfitter_cfg.c **** 			{0xB6u, 0x02u},
 792:.\Generated_Source\PSoC5/cyfitter_cfg.c **** 			{0xD8u, 0x04u},
 793:.\Generated_Source\PSoC5/cyfitter_cfg.c **** 			{0xDCu, 0x08u},
 794:.\Generated_Source\PSoC5/cyfitter_cfg.c **** 			{0xDFu, 0x11u},
 795:.\Generated_Source\PSoC5/cyfitter_cfg.c **** 			{0x05u, 0x08u},
 796:.\Generated_Source\PSoC5/cyfitter_cfg.c **** 			{0x16u, 0x02u},
 797:.\Generated_Source\PSoC5/cyfitter_cfg.c **** 			{0x1Eu, 0x21u},
 798:.\Generated_Source\PSoC5/cyfitter_cfg.c **** 			{0x40u, 0x02u},
 799:.\Generated_Source\PSoC5/cyfitter_cfg.c **** 			{0x50u, 0x01u},
 800:.\Generated_Source\PSoC5/cyfitter_cfg.c **** 			{0x59u, 0x02u},
 801:.\Generated_Source\PSoC5/cyfitter_cfg.c **** 			{0x5Bu, 0x94u},
 802:.\Generated_Source\PSoC5/cyfitter_cfg.c **** 			{0x60u, 0x08u},
ARM GAS  C:\Users\Nick\AppData\Local\Temp\ccjuUlaQ.s 			page 26


 803:.\Generated_Source\PSoC5/cyfitter_cfg.c **** 			{0x61u, 0x82u},
 804:.\Generated_Source\PSoC5/cyfitter_cfg.c **** 			{0x62u, 0x04u},
 805:.\Generated_Source\PSoC5/cyfitter_cfg.c **** 			{0x79u, 0x20u},
 806:.\Generated_Source\PSoC5/cyfitter_cfg.c **** 			{0x7Fu, 0x08u},
 807:.\Generated_Source\PSoC5/cyfitter_cfg.c **** 			{0x80u, 0x01u},
 808:.\Generated_Source\PSoC5/cyfitter_cfg.c **** 			{0x86u, 0x10u},
 809:.\Generated_Source\PSoC5/cyfitter_cfg.c **** 			{0x8Bu, 0x08u},
 810:.\Generated_Source\PSoC5/cyfitter_cfg.c **** 			{0x91u, 0x20u},
 811:.\Generated_Source\PSoC5/cyfitter_cfg.c **** 			{0x96u, 0x01u},
 812:.\Generated_Source\PSoC5/cyfitter_cfg.c **** 			{0x98u, 0x0Au},
 813:.\Generated_Source\PSoC5/cyfitter_cfg.c **** 			{0x99u, 0x02u},
 814:.\Generated_Source\PSoC5/cyfitter_cfg.c **** 			{0x9Au, 0x06u},
 815:.\Generated_Source\PSoC5/cyfitter_cfg.c **** 			{0x9Bu, 0x94u},
 816:.\Generated_Source\PSoC5/cyfitter_cfg.c **** 			{0xA1u, 0x80u},
 817:.\Generated_Source\PSoC5/cyfitter_cfg.c **** 			{0xADu, 0x10u},
 818:.\Generated_Source\PSoC5/cyfitter_cfg.c **** 			{0xB0u, 0x02u},
 819:.\Generated_Source\PSoC5/cyfitter_cfg.c **** 			{0xB4u, 0x08u},
 820:.\Generated_Source\PSoC5/cyfitter_cfg.c **** 			{0xC0u, 0x20u},
 821:.\Generated_Source\PSoC5/cyfitter_cfg.c **** 			{0xC4u, 0x80u},
 822:.\Generated_Source\PSoC5/cyfitter_cfg.c **** 			{0xD0u, 0x08u},
 823:.\Generated_Source\PSoC5/cyfitter_cfg.c **** 			{0xD6u, 0x0Fu},
 824:.\Generated_Source\PSoC5/cyfitter_cfg.c **** 			{0xD8u, 0x0Fu},
 825:.\Generated_Source\PSoC5/cyfitter_cfg.c **** 			{0xDEu, 0x24u},
 826:.\Generated_Source\PSoC5/cyfitter_cfg.c **** 			{0xE0u, 0x20u},
 827:.\Generated_Source\PSoC5/cyfitter_cfg.c **** 			{0xEAu, 0x02u},
 828:.\Generated_Source\PSoC5/cyfitter_cfg.c **** 			{0x96u, 0x01u},
 829:.\Generated_Source\PSoC5/cyfitter_cfg.c **** 			{0x99u, 0x02u},
 830:.\Generated_Source\PSoC5/cyfitter_cfg.c **** 			{0x9Au, 0x06u},
 831:.\Generated_Source\PSoC5/cyfitter_cfg.c **** 			{0x9Bu, 0x94u},
 832:.\Generated_Source\PSoC5/cyfitter_cfg.c **** 			{0xA1u, 0x80u},
 833:.\Generated_Source\PSoC5/cyfitter_cfg.c **** 			{0xA9u, 0x02u},
 834:.\Generated_Source\PSoC5/cyfitter_cfg.c **** 			{0xABu, 0x14u},
 835:.\Generated_Source\PSoC5/cyfitter_cfg.c **** 			{0xADu, 0x80u},
 836:.\Generated_Source\PSoC5/cyfitter_cfg.c **** 			{0xAFu, 0xA0u},
 837:.\Generated_Source\PSoC5/cyfitter_cfg.c **** 			{0xB2u, 0x02u},
 838:.\Generated_Source\PSoC5/cyfitter_cfg.c **** 			{0xB6u, 0x04u},
 839:.\Generated_Source\PSoC5/cyfitter_cfg.c **** 			{0xEEu, 0x02u},
 840:.\Generated_Source\PSoC5/cyfitter_cfg.c **** 			{0xB8u, 0x20u},
 841:.\Generated_Source\PSoC5/cyfitter_cfg.c **** 			{0xBEu, 0x10u},
 842:.\Generated_Source\PSoC5/cyfitter_cfg.c **** 			{0xD8u, 0x04u},
 843:.\Generated_Source\PSoC5/cyfitter_cfg.c **** 			{0xDFu, 0x01u},
 844:.\Generated_Source\PSoC5/cyfitter_cfg.c **** 			{0x1Fu, 0x20u},
 845:.\Generated_Source\PSoC5/cyfitter_cfg.c **** 			{0x86u, 0x01u},
 846:.\Generated_Source\PSoC5/cyfitter_cfg.c **** 			{0xE4u, 0x02u},
 847:.\Generated_Source\PSoC5/cyfitter_cfg.c **** 			{0xE6u, 0x80u},
 848:.\Generated_Source\PSoC5/cyfitter_cfg.c **** 			{0xEAu, 0x01u},
 849:.\Generated_Source\PSoC5/cyfitter_cfg.c **** 			{0xE4u, 0x40u},
 850:.\Generated_Source\PSoC5/cyfitter_cfg.c **** 			{0xE8u, 0x10u},
 851:.\Generated_Source\PSoC5/cyfitter_cfg.c **** 			{0x9Du, 0x08u},
 852:.\Generated_Source\PSoC5/cyfitter_cfg.c **** 			{0xE4u, 0x40u},
 853:.\Generated_Source\PSoC5/cyfitter_cfg.c **** 			{0xE8u, 0x10u},
 854:.\Generated_Source\PSoC5/cyfitter_cfg.c **** 			{0x89u, 0x08u},
 855:.\Generated_Source\PSoC5/cyfitter_cfg.c **** 			{0x9Du, 0x08u},
 856:.\Generated_Source\PSoC5/cyfitter_cfg.c **** 			{0xE4u, 0x02u},
 857:.\Generated_Source\PSoC5/cyfitter_cfg.c **** 			{0xE6u, 0x80u},
 858:.\Generated_Source\PSoC5/cyfitter_cfg.c **** 			{0xEAu, 0x01u},
 859:.\Generated_Source\PSoC5/cyfitter_cfg.c **** 			{0x0Au, 0x10u},
ARM GAS  C:\Users\Nick\AppData\Local\Temp\ccjuUlaQ.s 			page 27


 860:.\Generated_Source\PSoC5/cyfitter_cfg.c **** 			{0x0Bu, 0x02u},
 861:.\Generated_Source\PSoC5/cyfitter_cfg.c **** 			{0x0Eu, 0x40u},
 862:.\Generated_Source\PSoC5/cyfitter_cfg.c **** 			{0x0Fu, 0x04u},
 863:.\Generated_Source\PSoC5/cyfitter_cfg.c **** 			{0x30u, 0x02u},
 864:.\Generated_Source\PSoC5/cyfitter_cfg.c **** 			{0x33u, 0x80u},
 865:.\Generated_Source\PSoC5/cyfitter_cfg.c **** 			{0x35u, 0x80u},
 866:.\Generated_Source\PSoC5/cyfitter_cfg.c **** 			{0x36u, 0x08u},
 867:.\Generated_Source\PSoC5/cyfitter_cfg.c **** 			{0x38u, 0x40u},
 868:.\Generated_Source\PSoC5/cyfitter_cfg.c **** 			{0x3Du, 0x40u},
 869:.\Generated_Source\PSoC5/cyfitter_cfg.c **** 			{0x54u, 0x20u},
 870:.\Generated_Source\PSoC5/cyfitter_cfg.c **** 			{0x59u, 0x10u},
 871:.\Generated_Source\PSoC5/cyfitter_cfg.c **** 			{0x85u, 0x80u},
 872:.\Generated_Source\PSoC5/cyfitter_cfg.c **** 			{0xC2u, 0xF0u},
 873:.\Generated_Source\PSoC5/cyfitter_cfg.c **** 			{0xCCu, 0xF0u},
 874:.\Generated_Source\PSoC5/cyfitter_cfg.c **** 			{0xCEu, 0x30u},
 875:.\Generated_Source\PSoC5/cyfitter_cfg.c **** 			{0xD4u, 0xC0u},
 876:.\Generated_Source\PSoC5/cyfitter_cfg.c **** 			{0xE2u, 0x10u},
 877:.\Generated_Source\PSoC5/cyfitter_cfg.c **** 			{0x05u, 0x08u},
 878:.\Generated_Source\PSoC5/cyfitter_cfg.c **** 			{0x53u, 0x08u},
 879:.\Generated_Source\PSoC5/cyfitter_cfg.c **** 			{0x59u, 0x02u},
 880:.\Generated_Source\PSoC5/cyfitter_cfg.c **** 			{0x66u, 0x20u},
 881:.\Generated_Source\PSoC5/cyfitter_cfg.c **** 			{0x80u, 0x20u},
 882:.\Generated_Source\PSoC5/cyfitter_cfg.c **** 			{0x82u, 0x08u},
 883:.\Generated_Source\PSoC5/cyfitter_cfg.c **** 			{0x94u, 0x40u},
 884:.\Generated_Source\PSoC5/cyfitter_cfg.c **** 			{0x95u, 0x40u},
 885:.\Generated_Source\PSoC5/cyfitter_cfg.c **** 			{0x9Du, 0x10u},
 886:.\Generated_Source\PSoC5/cyfitter_cfg.c **** 			{0xA3u, 0x01u},
 887:.\Generated_Source\PSoC5/cyfitter_cfg.c **** 			{0xA4u, 0x22u},
 888:.\Generated_Source\PSoC5/cyfitter_cfg.c **** 			{0xA6u, 0x08u},
 889:.\Generated_Source\PSoC5/cyfitter_cfg.c **** 			{0xA7u, 0x80u},
 890:.\Generated_Source\PSoC5/cyfitter_cfg.c **** 			{0xAAu, 0x50u},
 891:.\Generated_Source\PSoC5/cyfitter_cfg.c **** 			{0xABu, 0x01u},
 892:.\Generated_Source\PSoC5/cyfitter_cfg.c **** 			{0xAFu, 0x05u},
 893:.\Generated_Source\PSoC5/cyfitter_cfg.c **** 			{0xC0u, 0x20u},
 894:.\Generated_Source\PSoC5/cyfitter_cfg.c **** 			{0xD4u, 0x20u},
 895:.\Generated_Source\PSoC5/cyfitter_cfg.c **** 			{0xD6u, 0x40u},
 896:.\Generated_Source\PSoC5/cyfitter_cfg.c **** 			{0xD8u, 0x80u},
 897:.\Generated_Source\PSoC5/cyfitter_cfg.c **** 			{0xE2u, 0xA0u},
 898:.\Generated_Source\PSoC5/cyfitter_cfg.c **** 			{0xE8u, 0xE0u},
 899:.\Generated_Source\PSoC5/cyfitter_cfg.c **** 			{0xECu, 0x20u},
 900:.\Generated_Source\PSoC5/cyfitter_cfg.c **** 			{0xEEu, 0x10u},
 901:.\Generated_Source\PSoC5/cyfitter_cfg.c **** 			{0x10u, 0x10u},
 902:.\Generated_Source\PSoC5/cyfitter_cfg.c **** 			{0x3Eu, 0x10u},
 903:.\Generated_Source\PSoC5/cyfitter_cfg.c **** 			{0x50u, 0x20u},
 904:.\Generated_Source\PSoC5/cyfitter_cfg.c **** 			{0x63u, 0x02u},
 905:.\Generated_Source\PSoC5/cyfitter_cfg.c **** 			{0x81u, 0x40u},
 906:.\Generated_Source\PSoC5/cyfitter_cfg.c **** 			{0x83u, 0x20u},
 907:.\Generated_Source\PSoC5/cyfitter_cfg.c **** 			{0x87u, 0x80u},
 908:.\Generated_Source\PSoC5/cyfitter_cfg.c **** 			{0x88u, 0x10u},
 909:.\Generated_Source\PSoC5/cyfitter_cfg.c **** 			{0x8Du, 0x10u},
 910:.\Generated_Source\PSoC5/cyfitter_cfg.c **** 			{0x94u, 0x40u},
 911:.\Generated_Source\PSoC5/cyfitter_cfg.c **** 			{0x95u, 0x40u},
 912:.\Generated_Source\PSoC5/cyfitter_cfg.c **** 			{0x9Du, 0x10u},
 913:.\Generated_Source\PSoC5/cyfitter_cfg.c **** 			{0x9Eu, 0x20u},
 914:.\Generated_Source\PSoC5/cyfitter_cfg.c **** 			{0xA3u, 0x01u},
 915:.\Generated_Source\PSoC5/cyfitter_cfg.c **** 			{0xA4u, 0x02u},
 916:.\Generated_Source\PSoC5/cyfitter_cfg.c **** 			{0xA7u, 0x88u},
ARM GAS  C:\Users\Nick\AppData\Local\Temp\ccjuUlaQ.s 			page 28


 917:.\Generated_Source\PSoC5/cyfitter_cfg.c **** 			{0xADu, 0x08u},
 918:.\Generated_Source\PSoC5/cyfitter_cfg.c **** 			{0xB5u, 0x02u},
 919:.\Generated_Source\PSoC5/cyfitter_cfg.c **** 			{0xC4u, 0x10u},
 920:.\Generated_Source\PSoC5/cyfitter_cfg.c **** 			{0xCEu, 0x20u},
 921:.\Generated_Source\PSoC5/cyfitter_cfg.c **** 			{0xD4u, 0x20u},
 922:.\Generated_Source\PSoC5/cyfitter_cfg.c **** 			{0xD6u, 0x40u},
 923:.\Generated_Source\PSoC5/cyfitter_cfg.c **** 			{0xE2u, 0x80u},
 924:.\Generated_Source\PSoC5/cyfitter_cfg.c **** 			{0xE6u, 0x30u},
 925:.\Generated_Source\PSoC5/cyfitter_cfg.c **** 			{0xECu, 0x10u},
 926:.\Generated_Source\PSoC5/cyfitter_cfg.c **** 			{0x18u, 0x10u},
 927:.\Generated_Source\PSoC5/cyfitter_cfg.c **** 			{0x19u, 0x04u},
 928:.\Generated_Source\PSoC5/cyfitter_cfg.c **** 			{0x81u, 0x04u},
 929:.\Generated_Source\PSoC5/cyfitter_cfg.c **** 			{0x96u, 0x10u},
 930:.\Generated_Source\PSoC5/cyfitter_cfg.c **** 			{0x9Bu, 0x20u},
 931:.\Generated_Source\PSoC5/cyfitter_cfg.c **** 			{0xA4u, 0x02u},
 932:.\Generated_Source\PSoC5/cyfitter_cfg.c **** 			{0xA8u, 0x40u},
 933:.\Generated_Source\PSoC5/cyfitter_cfg.c **** 			{0xACu, 0x20u},
 934:.\Generated_Source\PSoC5/cyfitter_cfg.c **** 			{0xAFu, 0x08u},
 935:.\Generated_Source\PSoC5/cyfitter_cfg.c **** 			{0xB6u, 0x20u},
 936:.\Generated_Source\PSoC5/cyfitter_cfg.c **** 			{0xC6u, 0x10u},
 937:.\Generated_Source\PSoC5/cyfitter_cfg.c **** 			{0xE4u, 0x80u},
 938:.\Generated_Source\PSoC5/cyfitter_cfg.c **** 			{0xEAu, 0x40u},
 939:.\Generated_Source\PSoC5/cyfitter_cfg.c **** 			{0xEEu, 0x60u},
 940:.\Generated_Source\PSoC5/cyfitter_cfg.c **** 			{0x00u, 0x08u},
 941:.\Generated_Source\PSoC5/cyfitter_cfg.c **** 			{0x01u, 0x40u},
 942:.\Generated_Source\PSoC5/cyfitter_cfg.c **** 			{0x07u, 0x84u},
 943:.\Generated_Source\PSoC5/cyfitter_cfg.c **** 			{0x08u, 0x08u},
 944:.\Generated_Source\PSoC5/cyfitter_cfg.c **** 			{0x65u, 0x20u},
 945:.\Generated_Source\PSoC5/cyfitter_cfg.c **** 			{0xC0u, 0x0Fu},
 946:.\Generated_Source\PSoC5/cyfitter_cfg.c **** 			{0xC2u, 0x08u},
 947:.\Generated_Source\PSoC5/cyfitter_cfg.c **** 			{0xD8u, 0x01u},
 948:.\Generated_Source\PSoC5/cyfitter_cfg.c **** 			{0x00u, 0x08u},
 949:.\Generated_Source\PSoC5/cyfitter_cfg.c **** 			{0x08u, 0x01u},
 950:.\Generated_Source\PSoC5/cyfitter_cfg.c **** 			{0x0Du, 0x02u},
 951:.\Generated_Source\PSoC5/cyfitter_cfg.c **** 			{0x5Bu, 0x08u},
 952:.\Generated_Source\PSoC5/cyfitter_cfg.c **** 			{0x66u, 0x20u},
 953:.\Generated_Source\PSoC5/cyfitter_cfg.c **** 			{0x91u, 0x40u},
 954:.\Generated_Source\PSoC5/cyfitter_cfg.c **** 			{0x9Bu, 0x80u},
 955:.\Generated_Source\PSoC5/cyfitter_cfg.c **** 			{0x9Du, 0x20u},
 956:.\Generated_Source\PSoC5/cyfitter_cfg.c **** 			{0xACu, 0x04u},
 957:.\Generated_Source\PSoC5/cyfitter_cfg.c **** 			{0xB0u, 0x08u},
 958:.\Generated_Source\PSoC5/cyfitter_cfg.c **** 			{0xB7u, 0x04u},
 959:.\Generated_Source\PSoC5/cyfitter_cfg.c **** 			{0xC0u, 0x08u},
 960:.\Generated_Source\PSoC5/cyfitter_cfg.c **** 			{0xC2u, 0x0Cu},
 961:.\Generated_Source\PSoC5/cyfitter_cfg.c **** 			{0xD6u, 0x02u},
 962:.\Generated_Source\PSoC5/cyfitter_cfg.c **** 			{0xD8u, 0x01u},
 963:.\Generated_Source\PSoC5/cyfitter_cfg.c **** 			{0xEAu, 0x01u},
 964:.\Generated_Source\PSoC5/cyfitter_cfg.c **** 			{0xEEu, 0x08u},
 965:.\Generated_Source\PSoC5/cyfitter_cfg.c **** 			{0x04u, 0x01u},
 966:.\Generated_Source\PSoC5/cyfitter_cfg.c **** 			{0x1Bu, 0x04u},
 967:.\Generated_Source\PSoC5/cyfitter_cfg.c **** 			{0x98u, 0x01u},
 968:.\Generated_Source\PSoC5/cyfitter_cfg.c **** 			{0x9Du, 0x20u},
 969:.\Generated_Source\PSoC5/cyfitter_cfg.c **** 			{0x9Eu, 0x20u},
 970:.\Generated_Source\PSoC5/cyfitter_cfg.c **** 			{0x9Fu, 0x08u},
 971:.\Generated_Source\PSoC5/cyfitter_cfg.c **** 			{0xA1u, 0x10u},
 972:.\Generated_Source\PSoC5/cyfitter_cfg.c **** 			{0xAFu, 0x80u},
 973:.\Generated_Source\PSoC5/cyfitter_cfg.c **** 			{0xB0u, 0x04u},
ARM GAS  C:\Users\Nick\AppData\Local\Temp\ccjuUlaQ.s 			page 29


 974:.\Generated_Source\PSoC5/cyfitter_cfg.c **** 			{0xB5u, 0x52u},
 975:.\Generated_Source\PSoC5/cyfitter_cfg.c **** 			{0xC0u, 0x04u},
 976:.\Generated_Source\PSoC5/cyfitter_cfg.c **** 			{0xC6u, 0x08u},
 977:.\Generated_Source\PSoC5/cyfitter_cfg.c **** 			{0xEAu, 0x06u},
 978:.\Generated_Source\PSoC5/cyfitter_cfg.c **** 			{0x46u, 0x08u},
 979:.\Generated_Source\PSoC5/cyfitter_cfg.c **** 			{0x81u, 0x20u},
 980:.\Generated_Source\PSoC5/cyfitter_cfg.c **** 			{0x98u, 0x01u},
 981:.\Generated_Source\PSoC5/cyfitter_cfg.c **** 			{0x9Du, 0x20u},
 982:.\Generated_Source\PSoC5/cyfitter_cfg.c **** 			{0x9Eu, 0x20u},
 983:.\Generated_Source\PSoC5/cyfitter_cfg.c **** 			{0x9Fu, 0x08u},
 984:.\Generated_Source\PSoC5/cyfitter_cfg.c **** 			{0xA1u, 0x10u},
 985:.\Generated_Source\PSoC5/cyfitter_cfg.c **** 			{0xABu, 0x04u},
 986:.\Generated_Source\PSoC5/cyfitter_cfg.c **** 			{0xB4u, 0x01u},
 987:.\Generated_Source\PSoC5/cyfitter_cfg.c **** 			{0xD0u, 0x04u},
 988:.\Generated_Source\PSoC5/cyfitter_cfg.c **** 			{0xEEu, 0x08u},
 989:.\Generated_Source\PSoC5/cyfitter_cfg.c **** 			{0x24u, 0x04u},
 990:.\Generated_Source\PSoC5/cyfitter_cfg.c **** 			{0x5Fu, 0x20u},
 991:.\Generated_Source\PSoC5/cyfitter_cfg.c **** 			{0x8Cu, 0x04u},
 992:.\Generated_Source\PSoC5/cyfitter_cfg.c **** 			{0x96u, 0x10u},
 993:.\Generated_Source\PSoC5/cyfitter_cfg.c **** 			{0x9Bu, 0x20u},
 994:.\Generated_Source\PSoC5/cyfitter_cfg.c **** 			{0xA4u, 0x02u},
 995:.\Generated_Source\PSoC5/cyfitter_cfg.c **** 			{0xB4u, 0x10u},
 996:.\Generated_Source\PSoC5/cyfitter_cfg.c **** 			{0xC8u, 0x20u},
 997:.\Generated_Source\PSoC5/cyfitter_cfg.c **** 			{0xD6u, 0x20u},
 998:.\Generated_Source\PSoC5/cyfitter_cfg.c **** 			{0x1Au, 0x02u},
 999:.\Generated_Source\PSoC5/cyfitter_cfg.c **** 			{0x21u, 0x40u},
1000:.\Generated_Source\PSoC5/cyfitter_cfg.c **** 			{0x79u, 0x80u},
1001:.\Generated_Source\PSoC5/cyfitter_cfg.c **** 			{0x86u, 0x01u},
1002:.\Generated_Source\PSoC5/cyfitter_cfg.c **** 			{0x88u, 0x02u},
1003:.\Generated_Source\PSoC5/cyfitter_cfg.c **** 			{0xA4u, 0x02u},
1004:.\Generated_Source\PSoC5/cyfitter_cfg.c **** 			{0xAAu, 0x10u},
1005:.\Generated_Source\PSoC5/cyfitter_cfg.c **** 			{0xC6u, 0x40u},
1006:.\Generated_Source\PSoC5/cyfitter_cfg.c **** 			{0xC8u, 0x10u},
1007:.\Generated_Source\PSoC5/cyfitter_cfg.c **** 			{0xDCu, 0x80u},
1008:.\Generated_Source\PSoC5/cyfitter_cfg.c **** 			{0xE4u, 0x40u},
1009:.\Generated_Source\PSoC5/cyfitter_cfg.c **** 			{0xEAu, 0x80u},
1010:.\Generated_Source\PSoC5/cyfitter_cfg.c **** 			{0x13u, 0x28u},
1011:.\Generated_Source\PSoC5/cyfitter_cfg.c **** 			{0x16u, 0x20u},
1012:.\Generated_Source\PSoC5/cyfitter_cfg.c **** 			{0x70u, 0x02u},
1013:.\Generated_Source\PSoC5/cyfitter_cfg.c **** 			{0x78u, 0x01u},
1014:.\Generated_Source\PSoC5/cyfitter_cfg.c **** 			{0x7Du, 0x20u},
1015:.\Generated_Source\PSoC5/cyfitter_cfg.c **** 			{0x8Cu, 0x02u},
1016:.\Generated_Source\PSoC5/cyfitter_cfg.c **** 			{0x98u, 0x81u},
1017:.\Generated_Source\PSoC5/cyfitter_cfg.c **** 			{0x9Eu, 0x28u},
1018:.\Generated_Source\PSoC5/cyfitter_cfg.c **** 			{0x9Fu, 0x08u},
1019:.\Generated_Source\PSoC5/cyfitter_cfg.c **** 			{0xA1u, 0x10u},
1020:.\Generated_Source\PSoC5/cyfitter_cfg.c **** 			{0xB4u, 0x80u},
1021:.\Generated_Source\PSoC5/cyfitter_cfg.c **** 			{0xC4u, 0x0Eu},
1022:.\Generated_Source\PSoC5/cyfitter_cfg.c **** 			{0xDCu, 0x01u},
1023:.\Generated_Source\PSoC5/cyfitter_cfg.c **** 			{0xDEu, 0x03u},
1024:.\Generated_Source\PSoC5/cyfitter_cfg.c **** 			{0xE4u, 0x02u},
1025:.\Generated_Source\PSoC5/cyfitter_cfg.c **** 			{0xE8u, 0x08u},
1026:.\Generated_Source\PSoC5/cyfitter_cfg.c **** 			{0x0Cu, 0x40u},
1027:.\Generated_Source\PSoC5/cyfitter_cfg.c **** 			{0x10u, 0x80u},
1028:.\Generated_Source\PSoC5/cyfitter_cfg.c **** 			{0x60u, 0x80u},
1029:.\Generated_Source\PSoC5/cyfitter_cfg.c **** 			{0x86u, 0x08u},
1030:.\Generated_Source\PSoC5/cyfitter_cfg.c **** 			{0x88u, 0xC0u},
ARM GAS  C:\Users\Nick\AppData\Local\Temp\ccjuUlaQ.s 			page 30


1031:.\Generated_Source\PSoC5/cyfitter_cfg.c **** 			{0x98u, 0x80u},
1032:.\Generated_Source\PSoC5/cyfitter_cfg.c **** 			{0x9Eu, 0x08u},
1033:.\Generated_Source\PSoC5/cyfitter_cfg.c **** 			{0xABu, 0x20u},
1034:.\Generated_Source\PSoC5/cyfitter_cfg.c **** 			{0xC2u, 0x01u},
1035:.\Generated_Source\PSoC5/cyfitter_cfg.c **** 			{0xC4u, 0x08u},
1036:.\Generated_Source\PSoC5/cyfitter_cfg.c **** 			{0xD8u, 0x02u},
1037:.\Generated_Source\PSoC5/cyfitter_cfg.c **** 			{0xE2u, 0x01u},
1038:.\Generated_Source\PSoC5/cyfitter_cfg.c **** 			{0xE6u, 0x01u},
1039:.\Generated_Source\PSoC5/cyfitter_cfg.c **** 			{0x00u, 0x14u},
1040:.\Generated_Source\PSoC5/cyfitter_cfg.c **** 			{0x08u, 0x10u},
1041:.\Generated_Source\PSoC5/cyfitter_cfg.c **** 			{0x0Au, 0x14u},
1042:.\Generated_Source\PSoC5/cyfitter_cfg.c **** 			{0x00u, 0xFFu},
1043:.\Generated_Source\PSoC5/cyfitter_cfg.c **** 			{0x01u, 0x03u},
1044:.\Generated_Source\PSoC5/cyfitter_cfg.c **** 			{0x03u, 0xC0u},
1045:.\Generated_Source\PSoC5/cyfitter_cfg.c **** 			{0x10u, 0x01u},
1046:.\Generated_Source\PSoC5/cyfitter_cfg.c **** 		};
1047:.\Generated_Source\PSoC5/cyfitter_cfg.c **** 
1048:.\Generated_Source\PSoC5/cyfitter_cfg.c **** 
1049:.\Generated_Source\PSoC5/cyfitter_cfg.c **** 
1050:.\Generated_Source\PSoC5/cyfitter_cfg.c **** 		CYPACKED typedef struct {
1051:.\Generated_Source\PSoC5/cyfitter_cfg.c **** 			void CYFAR *address;
1052:.\Generated_Source\PSoC5/cyfitter_cfg.c **** 			uint16 size;
1053:.\Generated_Source\PSoC5/cyfitter_cfg.c **** 		} CYPACKED_ATTR cfg_memset_t;
1054:.\Generated_Source\PSoC5/cyfitter_cfg.c **** 
1055:.\Generated_Source\PSoC5/cyfitter_cfg.c **** 		static const cfg_memset_t CYCODE cfg_memset_list [] = {
1056:.\Generated_Source\PSoC5/cyfitter_cfg.c **** 			/* address, size */
1057:.\Generated_Source\PSoC5/cyfitter_cfg.c **** 			{(void CYFAR *)(CYREG_I2C_XCFG), 25u},
1058:.\Generated_Source\PSoC5/cyfitter_cfg.c **** 			{(void CYFAR *)(CYREG_TMR0_CFG0), 12u},
1059:.\Generated_Source\PSoC5/cyfitter_cfg.c **** 			{(void CYFAR *)(CYDEV_UCFG_B0_P0_U0_BASE), 4096u},
1060:.\Generated_Source\PSoC5/cyfitter_cfg.c **** 			{(void CYFAR *)(CYDEV_UCFG_B1_P2_U0_BASE), 2048u},
1061:.\Generated_Source\PSoC5/cyfitter_cfg.c **** 			{(void CYFAR *)(CYDEV_UCFG_DSI0_BASE), 2560u},
1062:.\Generated_Source\PSoC5/cyfitter_cfg.c **** 			{(void CYFAR *)(CYDEV_UCFG_DSI12_BASE), 512u},
1063:.\Generated_Source\PSoC5/cyfitter_cfg.c **** 			{(void CYFAR *)(CYREG_BCTL0_MDCLK_EN), 32u},
1064:.\Generated_Source\PSoC5/cyfitter_cfg.c **** 		};
1065:.\Generated_Source\PSoC5/cyfitter_cfg.c **** 
1066:.\Generated_Source\PSoC5/cyfitter_cfg.c **** 		uint8 CYDATA i;
1067:.\Generated_Source\PSoC5/cyfitter_cfg.c **** 
1068:.\Generated_Source\PSoC5/cyfitter_cfg.c **** 		/* Zero out critical memory blocks before beginning configuration */
1069:.\Generated_Source\PSoC5/cyfitter_cfg.c **** 		for (i = 0u; i < (sizeof(cfg_memset_list)/sizeof(cfg_memset_list[0])); i++)
 579              		.loc 1 1069 0
 580 0004 0024     		movs	r4, #0
 581              	.LBB4:
1070:.\Generated_Source\PSoC5/cyfitter_cfg.c **** 		{
1071:.\Generated_Source\PSoC5/cyfitter_cfg.c **** 			const cfg_memset_t CYCODE * CYDATA ms = &cfg_memset_list[i];
 582              		.loc 1 1071 0
 583 0006 3D4D     		ldr	r5, .L37
 584              	.LBE4:
1069:.\Generated_Source\PSoC5/cyfitter_cfg.c **** 		for (i = 0u; i < (sizeof(cfg_memset_list)/sizeof(cfg_memset_list[0])); i++)
 585              		.loc 1 1069 0
 586 0008 09E0     		b	.L35
 587              	.LVL40:
 588              	.L36:
 589              	.LBB5:
 590              		.loc 1 1071 0 discriminator 2
 591 000a 04EB4403 		add	r3, r4, r4, lsl #1
 592 000e 5B00     		lsls	r3, r3, #1
 593 0010 2B44     		add	r3, r3, r5
ARM GAS  C:\Users\Nick\AppData\Local\Temp\ccjuUlaQ.s 			page 31


 594              	.LVL41:
1072:.\Generated_Source\PSoC5/cyfitter_cfg.c **** 			CYMEMZERO(ms->address, (size_t)(uint32)(ms->size));
 595              		.loc 1 1072 0 discriminator 2
 596 0012 1868     		ldr	r0, [r3]	@ unaligned
 597 0014 9988     		ldrh	r1, [r3, #4]
 598 0016 FFF7FEFF 		bl	CYMEMZERO
 599              	.LVL42:
 600              	.LBE5:
1069:.\Generated_Source\PSoC5/cyfitter_cfg.c **** 		for (i = 0u; i < (sizeof(cfg_memset_list)/sizeof(cfg_memset_list[0])); i++)
 601              		.loc 1 1069 0 discriminator 2
 602 001a 0134     		adds	r4, r4, #1
 603              	.LVL43:
 604 001c E4B2     		uxtb	r4, r4
 605              	.LVL44:
 606              	.L35:
1069:.\Generated_Source\PSoC5/cyfitter_cfg.c **** 		for (i = 0u; i < (sizeof(cfg_memset_list)/sizeof(cfg_memset_list[0])); i++)
 607              		.loc 1 1069 0 is_stmt 0 discriminator 1
 608 001e 062C     		cmp	r4, #6
 609 0020 F3D9     		bls	.L36
1073:.\Generated_Source\PSoC5/cyfitter_cfg.c **** 		}
1074:.\Generated_Source\PSoC5/cyfitter_cfg.c **** 
1075:.\Generated_Source\PSoC5/cyfitter_cfg.c **** 		cfg_write_bytes32(cy_cfg_addr_table, cy_cfg_data_table);
 610              		.loc 1 1075 0 is_stmt 1
 611 0022 374C     		ldr	r4, .L37+4
 612              	.LVL45:
 613 0024 04F13C00 		add	r0, r4, #60
 614 0028 04F1C401 		add	r1, r4, #196
 615 002c FFF7FEFF 		bl	cfg_write_bytes32
 616              	.LVL46:
1076:.\Generated_Source\PSoC5/cyfitter_cfg.c **** 
1077:.\Generated_Source\PSoC5/cyfitter_cfg.c **** 		/* Perform normal device configuration. Order is not critical for these items. */
1078:.\Generated_Source\PSoC5/cyfitter_cfg.c **** 		CYMEMZERO((void CYFAR *)(CYREG_PHUB_CFGMEM0_CFG0), 4u);
 617              		.loc 1 1078 0
 618 0030 3448     		ldr	r0, .L37+8
 619 0032 0421     		movs	r1, #4
 620 0034 FFF7FEFF 		bl	CYMEMZERO
 621              	.LVL47:
1079:.\Generated_Source\PSoC5/cyfitter_cfg.c **** 
1080:.\Generated_Source\PSoC5/cyfitter_cfg.c **** 		/* Enable digital routing */
1081:.\Generated_Source\PSoC5/cyfitter_cfg.c **** 		CY_SET_XTND_REG8((void CYFAR *)CYREG_BCTL0_BANK_CTL, CY_GET_XTND_REG8((void CYFAR *)CYREG_BCTL0_B
 622              		.loc 1 1081 0
 623 0038 334B     		ldr	r3, .L37+12
 624 003a 1A78     		ldrb	r2, [r3]	@ zero_extendqisi2
 625 003c 42F00202 		orr	r2, r2, #2
 626 0040 1A70     		strb	r2, [r3]
1082:.\Generated_Source\PSoC5/cyfitter_cfg.c **** 		CY_SET_XTND_REG8((void CYFAR *)CYREG_BCTL1_BANK_CTL, CY_GET_XTND_REG8((void CYFAR *)CYREG_BCTL1_B
 627              		.loc 1 1082 0
 628 0042 1033     		adds	r3, r3, #16
 629 0044 1A78     		ldrb	r2, [r3]	@ zero_extendqisi2
 630 0046 42F00202 		orr	r2, r2, #2
 631 004a 1A70     		strb	r2, [r3]
1083:.\Generated_Source\PSoC5/cyfitter_cfg.c **** 
1084:.\Generated_Source\PSoC5/cyfitter_cfg.c **** 		/* Enable UDB array */
1085:.\Generated_Source\PSoC5/cyfitter_cfg.c **** 		CY_SET_XTND_REG8((void CYFAR *)CYREG_PM_ACT_CFG0, CY_GET_XTND_REG8((void CYFAR *)CYREG_PM_ACT_CFG
 632              		.loc 1 1085 0
 633 004c 2F4D     		ldr	r5, .L37+16
 634 004e 2B78     		ldrb	r3, [r5]	@ zero_extendqisi2
ARM GAS  C:\Users\Nick\AppData\Local\Temp\ccjuUlaQ.s 			page 32


 635 0050 43F04003 		orr	r3, r3, #64
 636 0054 2B70     		strb	r3, [r5]
1086:.\Generated_Source\PSoC5/cyfitter_cfg.c **** 		CY_SET_XTND_REG8((void CYFAR *)CYREG_PM_AVAIL_CR2, CY_GET_XTND_REG8((void CYFAR *)CYREG_PM_AVAIL_
 637              		.loc 1 1086 0
 638 0056 2E4B     		ldr	r3, .L37+20
 639 0058 1A78     		ldrb	r2, [r3]	@ zero_extendqisi2
 640 005a 42F01002 		orr	r2, r2, #16
 641 005e 1A70     		strb	r2, [r3]
 642              	.LBE3:
1087:.\Generated_Source\PSoC5/cyfitter_cfg.c **** 	}
1088:.\Generated_Source\PSoC5/cyfitter_cfg.c **** 
1089:.\Generated_Source\PSoC5/cyfitter_cfg.c **** 
1090:.\Generated_Source\PSoC5/cyfitter_cfg.c **** 	/* Perform second pass device configuration. These items must be configured in specific order afte
1091:.\Generated_Source\PSoC5/cyfitter_cfg.c **** 	CYCONFIGCPYCODE((void CYFAR *)(CYREG_PRT0_DM0), (const void CYCODE *)(BS_IOPINS0_0_VAL), 8u);
 643              		.loc 1 1091 0
 644 0060 2C48     		ldr	r0, .L37+24
 645 0062 04F5A861 		add	r1, r4, #1344
 646 0066 0822     		movs	r2, #8
 647 0068 FFF7FEFF 		bl	CYCONFIGCPYCODE
 648              	.LVL48:
1092:.\Generated_Source\PSoC5/cyfitter_cfg.c **** 	CYCONFIGCPYCODE((void CYFAR *)(CYREG_PRT12_DM0), (const void CYCODE *)(BS_IOPINS0_7_VAL), 8u);
 649              		.loc 1 1092 0
 650 006c 2A48     		ldr	r0, .L37+28
 651 006e 04F5A961 		add	r1, r4, #1352
 652 0072 0822     		movs	r2, #8
 653 0074 FFF7FEFF 		bl	CYCONFIGCPYCODE
 654              	.LVL49:
1093:.\Generated_Source\PSoC5/cyfitter_cfg.c **** 	CYCONFIGCPYCODE((void CYFAR *)(CYREG_PRT15_DM0), (const void CYCODE *)(BS_IOPINS0_8_VAL), 8u);
 655              		.loc 1 1093 0
 656 0078 2848     		ldr	r0, .L37+32
 657 007a 04F5AA61 		add	r1, r4, #1360
 658 007e 0822     		movs	r2, #8
 659 0080 FFF7FEFF 		bl	CYCONFIGCPYCODE
 660              	.LVL50:
1094:.\Generated_Source\PSoC5/cyfitter_cfg.c **** 	CYCONFIGCPYCODE((void CYFAR *)(CYREG_PRT1_DM0), (const void CYCODE *)(BS_IOPINS0_1_VAL), 8u);
 661              		.loc 1 1094 0
 662 0084 2648     		ldr	r0, .L37+36
 663 0086 04F5AB61 		add	r1, r4, #1368
 664 008a 0822     		movs	r2, #8
 665 008c FFF7FEFF 		bl	CYCONFIGCPYCODE
 666              	.LVL51:
1095:.\Generated_Source\PSoC5/cyfitter_cfg.c **** 	CYCONFIGCPYCODE((void CYFAR *)(CYREG_PRT2_DR), (const void CYCODE *)(BS_IOPINS0_2_VAL), 10u);
 667              		.loc 1 1095 0
 668 0090 2448     		ldr	r0, .L37+40
 669 0092 04F5AC61 		add	r1, r4, #1376
 670 0096 0A22     		movs	r2, #10
 671 0098 FFF7FEFF 		bl	CYCONFIGCPYCODE
 672              	.LVL52:
1096:.\Generated_Source\PSoC5/cyfitter_cfg.c **** 	CYCONFIGCPYCODE((void CYFAR *)(CYREG_PRT3_DM0), (const void CYCODE *)(BS_IOPINS0_3_VAL), 8u);
 673              		.loc 1 1096 0
 674 009c 2248     		ldr	r0, .L37+44
 675 009e 04F26C51 		addw	r1, r4, #1388
 676 00a2 0822     		movs	r2, #8
 677 00a4 FFF7FEFF 		bl	CYCONFIGCPYCODE
 678              	.LVL53:
1097:.\Generated_Source\PSoC5/cyfitter_cfg.c **** 	CYCONFIGCPYCODE((void CYFAR *)(CYREG_PRT4_DM0), (const void CYCODE *)(BS_IOPINS0_4_VAL), 8u);
 679              		.loc 1 1097 0
ARM GAS  C:\Users\Nick\AppData\Local\Temp\ccjuUlaQ.s 			page 33


 680 00a8 2048     		ldr	r0, .L37+48
 681 00aa 04F27451 		addw	r1, r4, #1396
 682 00ae 0822     		movs	r2, #8
 683 00b0 FFF7FEFF 		bl	CYCONFIGCPYCODE
 684              	.LVL54:
1098:.\Generated_Source\PSoC5/cyfitter_cfg.c **** 	CYCONFIGCPYCODE((void CYFAR *)(CYREG_PRT5_DM0), (const void CYCODE *)(BS_IOPINS0_5_VAL), 8u);
 685              		.loc 1 1098 0
 686 00b4 1E48     		ldr	r0, .L37+52
 687 00b6 04F27C51 		addw	r1, r4, #1404
 688 00ba 0822     		movs	r2, #8
 689 00bc FFF7FEFF 		bl	CYCONFIGCPYCODE
 690              	.LVL55:
1099:.\Generated_Source\PSoC5/cyfitter_cfg.c **** 	CYCONFIGCPYCODE((void CYFAR *)(CYREG_PRT6_DM0), (const void CYCODE *)(BS_IOPINS0_6_VAL), 8u);
 691              		.loc 1 1099 0
 692 00c0 1C48     		ldr	r0, .L37+56
 693 00c2 04F28451 		addw	r1, r4, #1412
 694 00c6 0822     		movs	r2, #8
 695 00c8 FFF7FEFF 		bl	CYCONFIGCPYCODE
 696              	.LVL56:
1100:.\Generated_Source\PSoC5/cyfitter_cfg.c **** 	/* Switch Boost to the precision bandgap reference from its internal reference */
1101:.\Generated_Source\PSoC5/cyfitter_cfg.c **** 	CY_SET_REG8((void CYXDATA *)CYREG_BOOST_CR2, (CY_GET_REG8((void CYXDATA *)CYREG_BOOST_CR2) | 0x08u
 697              		.loc 1 1101 0
 698 00cc 1A4B     		ldr	r3, .L37+60
 699 00ce 1A78     		ldrb	r2, [r3]	@ zero_extendqisi2
 700 00d0 42F00802 		orr	r2, r2, #8
 701 00d4 1A70     		strb	r2, [r3]
1102:.\Generated_Source\PSoC5/cyfitter_cfg.c **** 
1103:.\Generated_Source\PSoC5/cyfitter_cfg.c **** 	/* Set Flash Cycles based on max possible frequency in case a glitch occurs during ClockSetup(). *
1104:.\Generated_Source\PSoC5/cyfitter_cfg.c **** 	CY_SET_XTND_REG8((void CYFAR *)(CYREG_CACHE_CC_CTL), (((CYDEV_INSTRUCT_CACHE_ENABLED) != 0) ? 0x61
 702              		.loc 1 1104 0
 703 00d6 194C     		ldr	r4, .L37+64
 704 00d8 6123     		movs	r3, #97
 705 00da 2370     		strb	r3, [r4]
1105:.\Generated_Source\PSoC5/cyfitter_cfg.c **** 	/* Setup clocks based on selections from Clock DWR */
1106:.\Generated_Source\PSoC5/cyfitter_cfg.c **** 	ClockSetup();
 706              		.loc 1 1106 0
 707 00dc FFF7FEFF 		bl	ClockSetup
 708              	.LVL57:
1107:.\Generated_Source\PSoC5/cyfitter_cfg.c **** 	/* Set Flash Cycles based on newly configured 24.00MHz Bus Clock. */
1108:.\Generated_Source\PSoC5/cyfitter_cfg.c **** 	CY_SET_XTND_REG8((void CYFAR *)(CYREG_CACHE_CC_CTL), (((CYDEV_INSTRUCT_CACHE_ENABLED) != 0) ? 0x81
 709              		.loc 1 1108 0
 710 00e0 8123     		movs	r3, #129
 711 00e2 2370     		strb	r3, [r4]
1109:.\Generated_Source\PSoC5/cyfitter_cfg.c **** 	CY_SET_XTND_REG8((void CYFAR *)(CYREG_PANTHER_WAITPIPE), 0x01u);
 712              		.loc 1 1109 0
 713 00e4 0122     		movs	r2, #1
 714 00e6 164B     		ldr	r3, .L37+68
 715 00e8 1A70     		strb	r2, [r3]
1110:.\Generated_Source\PSoC5/cyfitter_cfg.c **** 
1111:.\Generated_Source\PSoC5/cyfitter_cfg.c **** 	/* Perform basic analog initialization to defaults */
1112:.\Generated_Source\PSoC5/cyfitter_cfg.c **** 	AnalogSetDefault();
 716              		.loc 1 1112 0
 717 00ea FFF7FEFF 		bl	AnalogSetDefault
 718              	.LVL58:
1113:.\Generated_Source\PSoC5/cyfitter_cfg.c **** 
1114:.\Generated_Source\PSoC5/cyfitter_cfg.c **** 	/* Configure alternate active mode */
1115:.\Generated_Source\PSoC5/cyfitter_cfg.c **** 	CYCONFIGCPY((void CYFAR *)CYDEV_PM_STBY_BASE, (const void CYFAR *)CYDEV_PM_ACT_BASE, 14u);
ARM GAS  C:\Users\Nick\AppData\Local\Temp\ccjuUlaQ.s 			page 34


 719              		.loc 1 1115 0
 720 00ee 1548     		ldr	r0, .L37+72
 721 00f0 2946     		mov	r1, r5
 722 00f2 0E22     		movs	r2, #14
 723 00f4 FFF7FEFF 		bl	CYCONFIGCPY
 724              	.LVL59:
 725 00f8 38BD     		pop	{r3, r4, r5, pc}
 726              	.L38:
 727 00fa 00BF     		.align	2
 728              	.L37:
 729 00fc 10000000 		.word	.LANCHOR0+16
 730 0100 00000000 		.word	.LANCHOR0
 731 0104 00760040 		.word	1073772032
 732 0108 03500140 		.word	1073827843
 733 010c A0430040 		.word	1073759136
 734 0110 C2430040 		.word	1073759170
 735 0114 02510040 		.word	1073762562
 736 0118 C2510040 		.word	1073762754
 737 011c F2510040 		.word	1073762802
 738 0120 12510040 		.word	1073762578
 739 0124 20510040 		.word	1073762592
 740 0128 32510040 		.word	1073762610
 741 012c 42510040 		.word	1073762626
 742 0130 52510040 		.word	1073762642
 743 0134 62510040 		.word	1073762658
 744 0138 22430040 		.word	1073759010
 745 013c 00480040 		.word	1073760256
 746 0140 04000840 		.word	1074266116
 747 0144 B0430040 		.word	1073759152
 748              		.cfi_endproc
 749              	.LFE10:
 750              		.size	cyfitter_cfg, .-cyfitter_cfg
 751              		.global	AMux__maskTable
 752              		.global	AMux__addrTable
 753              		.section	.rodata
 754              		.align	2
 755              		.set	.LANCHOR0,. + 0
 756              		.type	AMux__addrTable, %object
 757              		.size	AMux__addrTable, 12
 758              	AMux__addrTable:
 759 0000 5D510040 		.word	1073762653
 760 0004 1D510040 		.word	1073762589
 761 0008 5D510040 		.word	1073762653
 762              		.type	AMux__maskTable, %object
 763              		.size	AMux__maskTable, 3
 764              	AMux__maskTable:
 765 000c 08       		.byte	8
 766 000d 01       		.byte	1
 767 000e 01       		.byte	1
 768 000f 00       		.space	1
 769              		.type	cfg_memset_list.4910, %object
 770              		.size	cfg_memset_list.4910, 42
 771              	cfg_memset_list.4910:
 772 0010 C8490040 		.word	1073760712
 773 0014 1900     		.short	25
 774 0016 004F0040 		.4byte	1073762048
 775 001a 0C00     		.short	12
ARM GAS  C:\Users\Nick\AppData\Local\Temp\ccjuUlaQ.s 			page 35


 776 001c 00000140 		.word	1073807360
 777 0020 0010     		.short	4096
 778 0022 00140140 		.4byte	1073812480
 779 0026 0008     		.short	2048
 780 0028 00400140 		.word	1073823744
 781 002c 000A     		.short	2560
 782 002e 004C0140 		.4byte	1073826816
 783 0032 0002     		.short	512
 784 0034 00500140 		.word	1073827840
 785 0038 2000     		.short	32
 786 003a 0000     		.space	2
 787              		.type	cy_cfg_addr_table.4904, %object
 788              		.size	cy_cfg_addr_table.4904, 136
 789              	cy_cfg_addr_table.4904:
 790 003c 024F0040 		.word	1073762050
 791 0040 0F520040 		.word	1073762831
 792 0044 015B0040 		.word	1073765121
 793 0048 02640040 		.word	1073767426
 794 004c 01010140 		.word	1073807617
 795 0050 5F020140 		.word	1073807967
 796 0054 33030140 		.word	1073808179
 797 0058 4B040140 		.word	1073808459
 798 005c 36050140 		.word	1073808694
 799 0060 04070140 		.word	1073809156
 800 0064 04090140 		.word	1073809668
 801 0068 120A0140 		.word	1073809938
 802 006c 210B0140 		.word	1073810209
 803 0070 0C0D0140 		.word	1073810700
 804 0074 040E0140 		.word	1073810948
 805 0078 020F0140 		.word	1073811202
 806 007c 03150140 		.word	1073812739
 807 0080 02170140 		.word	1073813250
 808 0084 03190140 		.word	1073813763
 809 0088 051B0140 		.word	1073814277
 810 008c 12400140 		.word	1073823762
 811 0090 18410140 		.word	1073824024
 812 0094 19420140 		.word	1073824281
 813 0098 0E430140 		.word	1073824526
 814 009c 08440140 		.word	1073824776
 815 00a0 11450140 		.word	1073825041
 816 00a4 0D460140 		.word	1073825293
 817 00a8 0B470140 		.word	1073825547
 818 00ac 09480140 		.word	1073825801
 819 00b0 0C490140 		.word	1073826060
 820 00b4 104C0140 		.word	1073826832
 821 00b8 0D4D0140 		.word	1073827085
 822 00bc 03500140 		.word	1073827843
 823 00c0 04510140 		.word	1073828100
 824              		.type	cy_cfg_data_table.4905, %object
 825              		.size	cy_cfg_data_table.4905, 1146
 826              	cy_cfg_data_table.4905:
 827 00c4 01       		.byte	1
 828 00c5 10       		.byte	16
 829 00c6 0A       		.byte	10
 830 00c7 4B       		.byte	75
 831 00c8 00       		.byte	0
 832 00c9 40       		.byte	64
ARM GAS  C:\Users\Nick\AppData\Local\Temp\ccjuUlaQ.s 			page 36


 833 00ca 01       		.byte	1
 834 00cb 40       		.byte	64
 835 00cc 04       		.byte	4
 836 00cd 02       		.byte	2
 837 00ce 10       		.byte	16
 838 00cf 20       		.byte	32
 839 00d0 11       		.byte	17
 840 00d1 20       		.byte	32
 841 00d2 14       		.byte	20
 842 00d3 30       		.byte	48
 843 00d4 20       		.byte	32
 844 00d5 02       		.byte	2
 845 00d6 21       		.byte	33
 846 00d7 01       		.byte	1
 847 00d8 29       		.byte	41
 848 00d9 80       		.byte	-128
 849 00da 30       		.byte	48
 850 00db 10       		.byte	16
 851 00dc 31       		.byte	49
 852 00dd 10       		.byte	16
 853 00de 61       		.byte	97
 854 00df 04       		.byte	4
 855 00e0 64       		.byte	100
 856 00e1 40       		.byte	64
 857 00e2 78       		.byte	120
 858 00e3 08       		.byte	8
 859 00e4 79       		.byte	121
 860 00e5 18       		.byte	24
 861 00e6 27       		.byte	39
 862 00e7 84       		.byte	-124
 863 00e8 83       		.byte	-125
 864 00e9 0F       		.byte	15
 865 00ea 84       		.byte	-124
 866 00eb 0D       		.byte	13
 867 00ec E2       		.byte	-30
 868 00ed 08       		.byte	8
 869 00ee 03       		.byte	3
 870 00ef 07       		.byte	7
 871 00f0 0E       		.byte	14
 872 00f1 01       		.byte	1
 873 00f2 0F       		.byte	15
 874 00f3 07       		.byte	7
 875 00f4 12       		.byte	18
 876 00f5 01       		.byte	1
 877 00f6 13       		.byte	19
 878 00f7 06       		.byte	6
 879 00f8 15       		.byte	21
 880 00f9 01       		.byte	1
 881 00fa 17       		.byte	23
 882 00fb 04       		.byte	4
 883 00fc 1E       		.byte	30
 884 00fd 01       		.byte	1
 885 00fe 25       		.byte	37
 886 00ff 04       		.byte	4
 887 0100 27       		.byte	39
 888 0101 09       		.byte	9
 889 0102 33       		.byte	51
ARM GAS  C:\Users\Nick\AppData\Local\Temp\ccjuUlaQ.s 			page 37


 890 0103 04       		.byte	4
 891 0104 34       		.byte	52
 892 0105 01       		.byte	1
 893 0106 35       		.byte	53
 894 0107 08       		.byte	8
 895 0108 37       		.byte	55
 896 0109 03       		.byte	3
 897 010a 3E       		.byte	62
 898 010b 10       		.byte	16
 899 010c 3F       		.byte	63
 900 010d 04       		.byte	4
 901 010e 40       		.byte	64
 902 010f 25       		.byte	37
 903 0110 42       		.byte	66
 904 0111 03       		.byte	3
 905 0112 49       		.byte	73
 906 0113 FF       		.byte	-1
 907 0114 4A       		.byte	74
 908 0115 FF       		.byte	-1
 909 0116 4B       		.byte	75
 910 0117 FF       		.byte	-1
 911 0118 4F       		.byte	79
 912 0119 01       		.byte	1
 913 011a 50       		.byte	80
 914 011b 18       		.byte	24
 915 011c 58       		.byte	88
 916 011d 04       		.byte	4
 917 011e 59       		.byte	89
 918 011f 04       		.byte	4
 919 0120 5A       		.byte	90
 920 0121 04       		.byte	4
 921 0122 5C       		.byte	92
 922 0123 40       		.byte	64
 923 0124 5D       		.byte	93
 924 0125 04       		.byte	4
 925 0126 5F       		.byte	95
 926 0127 01       		.byte	1
 927 0128 60       		.byte	96
 928 0129 40       		.byte	64
 929 012a 62       		.byte	98
 930 012b 40       		.byte	64
 931 012c 64       		.byte	100
 932 012d 40       		.byte	64
 933 012e 65       		.byte	101
 934 012f 40       		.byte	64
 935 0130 66       		.byte	102
 936 0131 80       		.byte	-128
 937 0132 68       		.byte	104
 938 0133 80       		.byte	-128
 939 0134 6A       		.byte	106
 940 0135 80       		.byte	-128
 941 0136 6C       		.byte	108
 942 0137 80       		.byte	-128
 943 0138 6E       		.byte	110
 944 0139 80       		.byte	-128
 945 013a 80       		.byte	-128
 946 013b 0A       		.byte	10
ARM GAS  C:\Users\Nick\AppData\Local\Temp\ccjuUlaQ.s 			page 38


 947 013c 89       		.byte	-119
 948 013d 19       		.byte	25
 949 013e 8A       		.byte	-118
 950 013f 12       		.byte	18
 951 0140 8B       		.byte	-117
 952 0141 62       		.byte	98
 953 0142 8D       		.byte	-115
 954 0143 2B       		.byte	43
 955 0144 8E       		.byte	-114
 956 0145 01       		.byte	1
 957 0146 8F       		.byte	-113
 958 0147 50       		.byte	80
 959 0148 91       		.byte	-111
 960 0149 2B       		.byte	43
 961 014a 92       		.byte	-110
 962 014b 01       		.byte	1
 963 014c 93       		.byte	-109
 964 014d 50       		.byte	80
 965 014e 95       		.byte	-107
 966 014f 04       		.byte	4
 967 0150 96       		.byte	-106
 968 0151 1E       		.byte	30
 969 0152 97       		.byte	-105
 970 0153 78       		.byte	120
 971 0154 9E       		.byte	-98
 972 0155 1C       		.byte	28
 973 0156 A2       		.byte	-94
 974 0157 01       		.byte	1
 975 0158 A5       		.byte	-91
 976 0159 19       		.byte	25
 977 015a A7       		.byte	-89
 978 015b 62       		.byte	98
 979 015c AA       		.byte	-86
 980 015d 06       		.byte	6
 981 015e AE       		.byte	-82
 982 015f 01       		.byte	1
 983 0160 B1       		.byte	-79
 984 0161 07       		.byte	7
 985 0162 B2       		.byte	-78
 986 0163 1E       		.byte	30
 987 0164 B5       		.byte	-75
 988 0165 78       		.byte	120
 989 0166 B6       		.byte	-74
 990 0167 01       		.byte	1
 991 0168 BA       		.byte	-70
 992 0169 08       		.byte	8
 993 016a BB       		.byte	-69
 994 016b 03       		.byte	3
 995 016c BE       		.byte	-66
 996 016d 40       		.byte	64
 997 016e C0       		.byte	-64
 998 016f 25       		.byte	37
 999 0170 C2       		.byte	-62
 1000 0171 03       		.byte	3
 1001 0172 C5       		.byte	-59
 1002 0173 EC       		.byte	-20
 1003 0174 C7       		.byte	-57
ARM GAS  C:\Users\Nick\AppData\Local\Temp\ccjuUlaQ.s 			page 39


 1004 0175 20       		.byte	32
 1005 0176 C8       		.byte	-56
 1006 0177 23       		.byte	35
 1007 0178 C9       		.byte	-55
 1008 0179 FF       		.byte	-1
 1009 017a CA       		.byte	-54
 1010 017b FF       		.byte	-1
 1011 017c CB       		.byte	-53
 1012 017d FF       		.byte	-1
 1013 017e CD       		.byte	-51
 1014 017f 83       		.byte	-125
 1015 0180 CE       		.byte	-50
 1016 0181 03       		.byte	3
 1017 0182 CF       		.byte	-49
 1018 0183 01       		.byte	1
 1019 0184 D0       		.byte	-48
 1020 0185 18       		.byte	24
 1021 0186 D2       		.byte	-46
 1022 0187 93       		.byte	-109
 1023 0188 D4       		.byte	-44
 1024 0189 03       		.byte	3
 1025 018a D6       		.byte	-42
 1026 018b 04       		.byte	4
 1027 018c D8       		.byte	-40
 1028 018d 04       		.byte	4
 1029 018e D9       		.byte	-39
 1030 018f 04       		.byte	4
 1031 0190 DA       		.byte	-38
 1032 0191 04       		.byte	4
 1033 0192 DB       		.byte	-37
 1034 0193 04       		.byte	4
 1035 0194 DC       		.byte	-36
 1036 0195 44       		.byte	68
 1037 0196 DD       		.byte	-35
 1038 0197 44       		.byte	68
 1039 0198 DF       		.byte	-33
 1040 0199 01       		.byte	1
 1041 019a E0       		.byte	-32
 1042 019b 40       		.byte	64
 1043 019c E2       		.byte	-30
 1044 019d 40       		.byte	64
 1045 019e E4       		.byte	-28
 1046 019f 40       		.byte	64
 1047 01a0 E5       		.byte	-27
 1048 01a1 40       		.byte	64
 1049 01a2 E6       		.byte	-26
 1050 01a3 80       		.byte	-128
 1051 01a4 E8       		.byte	-24
 1052 01a5 80       		.byte	-128
 1053 01a6 EA       		.byte	-22
 1054 01a7 80       		.byte	-128
 1055 01a8 EC       		.byte	-20
 1056 01a9 80       		.byte	-128
 1057 01aa EE       		.byte	-18
 1058 01ab 80       		.byte	-128
 1059 01ac 00       		.byte	0
 1060 01ad 12       		.byte	18
ARM GAS  C:\Users\Nick\AppData\Local\Temp\ccjuUlaQ.s 			page 40


 1061 01ae 02       		.byte	2
 1062 01af 02       		.byte	2
 1063 01b0 07       		.byte	7
 1064 01b1 01       		.byte	1
 1065 01b2 09       		.byte	9
 1066 01b3 08       		.byte	8
 1067 01b4 0A       		.byte	10
 1068 01b5 02       		.byte	2
 1069 01b6 0B       		.byte	11
 1070 01b7 40       		.byte	64
 1071 01b8 0F       		.byte	15
 1072 01b9 41       		.byte	65
 1073 01ba 10       		.byte	16
 1074 01bb 08       		.byte	8
 1075 01bc 11       		.byte	17
 1076 01bd 80       		.byte	-128
 1077 01be 13       		.byte	19
 1078 01bf 01       		.byte	1
 1079 01c0 18       		.byte	24
 1080 01c1 10       		.byte	16
 1081 01c2 19       		.byte	25
 1082 01c3 48       		.byte	72
 1083 01c4 1D       		.byte	29
 1084 01c5 20       		.byte	32
 1085 01c6 22       		.byte	34
 1086 01c7 11       		.byte	17
 1087 01c8 25       		.byte	37
 1088 01c9 48       		.byte	72
 1089 01ca 27       		.byte	39
 1090 01cb 09       		.byte	9
 1091 01cc 29       		.byte	41
 1092 01cd 08       		.byte	8
 1093 01ce 2F       		.byte	47
 1094 01cf 20       		.byte	32
 1095 01d0 31       		.byte	49
 1096 01d1 08       		.byte	8
 1097 01d2 32       		.byte	50
 1098 01d3 01       		.byte	1
 1099 01d4 37       		.byte	55
 1100 01d5 09       		.byte	9
 1101 01d6 39       		.byte	57
 1102 01d7 50       		.byte	80
 1103 01d8 3F       		.byte	63
 1104 01d9 41       		.byte	65
 1105 01da 41       		.byte	65
 1106 01db 28       		.byte	40
 1107 01dc 45       		.byte	69
 1108 01dd 28       		.byte	40
 1109 01de 49       		.byte	73
 1110 01df 05       		.byte	5
 1111 01e0 4A       		.byte	74
 1112 01e1 02       		.byte	2
 1113 01e2 4E       		.byte	78
 1114 01e3 02       		.byte	2
 1115 01e4 52       		.byte	82
 1116 01e5 02       		.byte	2
 1117 01e6 59       		.byte	89
ARM GAS  C:\Users\Nick\AppData\Local\Temp\ccjuUlaQ.s 			page 41


 1118 01e7 45       		.byte	69
 1119 01e8 5A       		.byte	90
 1120 01e9 20       		.byte	32
 1121 01ea 63       		.byte	99
 1122 01eb 80       		.byte	-128
 1123 01ec 68       		.byte	104
 1124 01ed 09       		.byte	9
 1125 01ee 69       		.byte	105
 1126 01ef 50       		.byte	80
 1127 01f0 72       		.byte	114
 1128 01f1 82       		.byte	-126
 1129 01f2 73       		.byte	115
 1130 01f3 41       		.byte	65
 1131 01f4 81       		.byte	-127
 1132 01f5 10       		.byte	16
 1133 01f6 83       		.byte	-125
 1134 01f7 40       		.byte	64
 1135 01f8 C0       		.byte	-64
 1136 01f9 8B       		.byte	-117
 1137 01fa C2       		.byte	-62
 1138 01fb 9D       		.byte	-99
 1139 01fc C4       		.byte	-60
 1140 01fd 0B       		.byte	11
 1141 01fe CA       		.byte	-54
 1142 01ff 42       		.byte	66
 1143 0200 CC       		.byte	-52
 1144 0201 C3       		.byte	-61
 1145 0202 CE       		.byte	-50
 1146 0203 9C       		.byte	-100
 1147 0204 D0       		.byte	-48
 1148 0205 66       		.byte	102
 1149 0206 D2       		.byte	-46
 1150 0207 18       		.byte	24
 1151 0208 D6       		.byte	-42
 1152 0209 0F       		.byte	15
 1153 020a D8       		.byte	-40
 1154 020b 01       		.byte	1
 1155 020c E8       		.byte	-24
 1156 020d 07       		.byte	7
 1157 020e EC       		.byte	-20
 1158 020f 04       		.byte	4
 1159 0210 EE       		.byte	-18
 1160 0211 08       		.byte	8
 1161 0212 02       		.byte	2
 1162 0213 02       		.byte	2
 1163 0214 07       		.byte	7
 1164 0215 01       		.byte	1
 1165 0216 11       		.byte	17
 1166 0217 01       		.byte	1
 1167 0218 1A       		.byte	26
 1168 0219 02       		.byte	2
 1169 021a 2A       		.byte	42
 1170 021b 04       		.byte	4
 1171 021c 2E       		.byte	46
 1172 021d 01       		.byte	1
 1173 021e 30       		.byte	48
 1174 021f 04       		.byte	4
ARM GAS  C:\Users\Nick\AppData\Local\Temp\ccjuUlaQ.s 			page 42


 1175 0220 34       		.byte	52
 1176 0221 02       		.byte	2
 1177 0222 36       		.byte	54
 1178 0223 01       		.byte	1
 1179 0224 37       		.byte	55
 1180 0225 01       		.byte	1
 1181 0226 3E       		.byte	62
 1182 0227 10       		.byte	16
 1183 0228 40       		.byte	64
 1184 0229 10       		.byte	16
 1185 022a 41       		.byte	65
 1186 022b 02       		.byte	2
 1187 022c 49       		.byte	73
 1188 022d FF       		.byte	-1
 1189 022e 4A       		.byte	74
 1190 022f FF       		.byte	-1
 1191 0230 4B       		.byte	75
 1192 0231 FF       		.byte	-1
 1193 0232 4D       		.byte	77
 1194 0233 A0       		.byte	-96
 1195 0234 4F       		.byte	79
 1196 0235 04       		.byte	4
 1197 0236 50       		.byte	80
 1198 0237 18       		.byte	24
 1199 0238 52       		.byte	82
 1200 0239 80       		.byte	-128
 1201 023a 54       		.byte	84
 1202 023b 05       		.byte	5
 1203 023c 58       		.byte	88
 1204 023d 04       		.byte	4
 1205 023e 59       		.byte	89
 1206 023f 04       		.byte	4
 1207 0240 5A       		.byte	90
 1208 0241 04       		.byte	4
 1209 0242 5B       		.byte	91
 1210 0243 04       		.byte	4
 1211 0244 5C       		.byte	92
 1212 0245 22       		.byte	34
 1213 0246 5D       		.byte	93
 1214 0247 22       		.byte	34
 1215 0248 5F       		.byte	95
 1216 0249 01       		.byte	1
 1217 024a 60       		.byte	96
 1218 024b 40       		.byte	64
 1219 024c 62       		.byte	98
 1220 024d C0       		.byte	-64
 1221 024e 64       		.byte	100
 1222 024f 40       		.byte	64
 1223 0250 65       		.byte	101
 1224 0251 40       		.byte	64
 1225 0252 66       		.byte	102
 1226 0253 C0       		.byte	-64
 1227 0254 68       		.byte	104
 1228 0255 C0       		.byte	-64
 1229 0256 6A       		.byte	106
 1230 0257 C0       		.byte	-64
 1231 0258 6C       		.byte	108
ARM GAS  C:\Users\Nick\AppData\Local\Temp\ccjuUlaQ.s 			page 43


 1232 0259 C0       		.byte	-64
 1233 025a 6E       		.byte	110
 1234 025b C0       		.byte	-64
 1235 025c 82       		.byte	-126
 1236 025d 03       		.byte	3
 1237 025e 83       		.byte	-125
 1238 025f 01       		.byte	1
 1239 0260 87       		.byte	-121
 1240 0261 01       		.byte	1
 1241 0262 8E       		.byte	-114
 1242 0263 03       		.byte	3
 1243 0264 92       		.byte	-110
 1244 0265 02       		.byte	2
 1245 0266 9C       		.byte	-100
 1246 0267 01       		.byte	1
 1247 0268 A6       		.byte	-90
 1248 0269 01       		.byte	1
 1249 026a B0       		.byte	-80
 1250 026b 03       		.byte	3
 1251 026c B7       		.byte	-73
 1252 026d 01       		.byte	1
 1253 026e C0       		.byte	-64
 1254 026f 50       		.byte	80
 1255 0270 C1       		.byte	-63
 1256 0271 02       		.byte	2
 1257 0272 C5       		.byte	-59
 1258 0273 D0       		.byte	-48
 1259 0274 C6       		.byte	-58
 1260 0275 20       		.byte	32
 1261 0276 C7       		.byte	-57
 1262 0277 01       		.byte	1
 1263 0278 C8       		.byte	-56
 1264 0279 1A       		.byte	26
 1265 027a C9       		.byte	-55
 1266 027b FF       		.byte	-1
 1267 027c CA       		.byte	-54
 1268 027d FF       		.byte	-1
 1269 027e CB       		.byte	-53
 1270 027f FF       		.byte	-1
 1271 0280 CD       		.byte	-51
 1272 0281 AF       		.byte	-81
 1273 0282 CE       		.byte	-50
 1274 0283 0F       		.byte	15
 1275 0284 CF       		.byte	-49
 1276 0285 04       		.byte	4
 1277 0286 D0       		.byte	-48
 1278 0287 18       		.byte	24
 1279 0288 D8       		.byte	-40
 1280 0289 04       		.byte	4
 1281 028a D9       		.byte	-39
 1282 028b 04       		.byte	4
 1283 028c DA       		.byte	-38
 1284 028d 04       		.byte	4
 1285 028e DB       		.byte	-37
 1286 028f 04       		.byte	4
 1287 0290 DC       		.byte	-36
 1288 0291 24       		.byte	36
ARM GAS  C:\Users\Nick\AppData\Local\Temp\ccjuUlaQ.s 			page 44


 1289 0292 DD       		.byte	-35
 1290 0293 02       		.byte	2
 1291 0294 DF       		.byte	-33
 1292 0295 01       		.byte	1
 1293 0296 E0       		.byte	-32
 1294 0297 40       		.byte	64
 1295 0298 E2       		.byte	-30
 1296 0299 C0       		.byte	-64
 1297 029a E4       		.byte	-28
 1298 029b 40       		.byte	64
 1299 029c E5       		.byte	-27
 1300 029d 40       		.byte	64
 1301 029e E6       		.byte	-26
 1302 029f C0       		.byte	-64
 1303 02a0 E8       		.byte	-24
 1304 02a1 C0       		.byte	-64
 1305 02a2 EA       		.byte	-22
 1306 02a3 C0       		.byte	-64
 1307 02a4 EC       		.byte	-20
 1308 02a5 C0       		.byte	-64
 1309 02a6 EE       		.byte	-18
 1310 02a7 C0       		.byte	-64
 1311 02a8 00       		.byte	0
 1312 02a9 01       		.byte	1
 1313 02aa 06       		.byte	6
 1314 02ab 82       		.byte	-126
 1315 02ac 09       		.byte	9
 1316 02ad 20       		.byte	32
 1317 02ae 0E       		.byte	14
 1318 02af 80       		.byte	-128
 1319 02b0 0F       		.byte	15
 1320 02b1 02       		.byte	2
 1321 02b2 10       		.byte	16
 1322 02b3 02       		.byte	2
 1323 02b4 12       		.byte	18
 1324 02b5 04       		.byte	4
 1325 02b6 17       		.byte	23
 1326 02b7 08       		.byte	8
 1327 02b8 18       		.byte	24
 1328 02b9 01       		.byte	1
 1329 02ba 19       		.byte	25
 1330 02bb 01       		.byte	1
 1331 02bc 1A       		.byte	26
 1332 02bd 06       		.byte	6
 1333 02be 1E       		.byte	30
 1334 02bf 80       		.byte	-128
 1335 02c0 22       		.byte	34
 1336 02c1 40       		.byte	64
 1337 02c2 27       		.byte	39
 1338 02c3 02       		.byte	2
 1339 02c4 31       		.byte	49
 1340 02c5 01       		.byte	1
 1341 02c6 3A       		.byte	58
 1342 02c7 04       		.byte	4
 1343 02c8 3C       		.byte	60
 1344 02c9 01       		.byte	1
 1345 02ca 3F       		.byte	63
ARM GAS  C:\Users\Nick\AppData\Local\Temp\ccjuUlaQ.s 			page 45


 1346 02cb 08       		.byte	8
 1347 02cc 40       		.byte	64
 1348 02cd 01       		.byte	1
 1349 02ce 41       		.byte	65
 1350 02cf 20       		.byte	32
 1351 02d0 45       		.byte	69
 1352 02d1 20       		.byte	32
 1353 02d2 4D       		.byte	77
 1354 02d3 02       		.byte	2
 1355 02d4 4E       		.byte	78
 1356 02d5 01       		.byte	1
 1357 02d6 55       		.byte	85
 1358 02d7 20       		.byte	32
 1359 02d8 56       		.byte	86
 1360 02d9 04       		.byte	4
 1361 02da 57       		.byte	87
 1362 02db 04       		.byte	4
 1363 02dc 59       		.byte	89
 1364 02dd 02       		.byte	2
 1365 02de 5A       		.byte	90
 1366 02df 84       		.byte	-124
 1367 02e0 6C       		.byte	108
 1368 02e1 01       		.byte	1
 1369 02e2 6D       		.byte	109
 1370 02e3 20       		.byte	32
 1371 02e4 6F       		.byte	111
 1372 02e5 90       		.byte	-112
 1373 02e6 70       		.byte	112
 1374 02e7 02       		.byte	2
 1375 02e8 77       		.byte	119
 1376 02e9 05       		.byte	5
 1377 02ea 83       		.byte	-125
 1378 02eb 04       		.byte	4
 1379 02ec 8C       		.byte	-116
 1380 02ed 01       		.byte	1
 1381 02ee 9A       		.byte	-102
 1382 02ef 82       		.byte	-126
 1383 02f0 9B       		.byte	-101
 1384 02f1 08       		.byte	8
 1385 02f2 A3       		.byte	-93
 1386 02f3 01       		.byte	1
 1387 02f4 A5       		.byte	-91
 1388 02f5 10       		.byte	16
 1389 02f6 A7       		.byte	-89
 1390 02f7 80       		.byte	-128
 1391 02f8 AF       		.byte	-81
 1392 02f9 21       		.byte	33
 1393 02fa B7       		.byte	-73
 1394 02fb 80       		.byte	-128
 1395 02fc C0       		.byte	-64
 1396 02fd 98       		.byte	-104
 1397 02fe C2       		.byte	-62
 1398 02ff 92       		.byte	-110
 1399 0300 C4       		.byte	-60
 1400 0301 23       		.byte	35
 1401 0302 CC       		.byte	-52
 1402 0303 01       		.byte	1
ARM GAS  C:\Users\Nick\AppData\Local\Temp\ccjuUlaQ.s 			page 46


 1403 0304 CE       		.byte	-50
 1404 0305 C2       		.byte	-62
 1405 0306 D0       		.byte	-48
 1406 0307 2C       		.byte	44
 1407 0308 D2       		.byte	-46
 1408 0309 10       		.byte	16
 1409 030a D6       		.byte	-42
 1410 030b 0B       		.byte	11
 1411 030c E0       		.byte	-32
 1412 030d 20       		.byte	32
 1413 030e E2       		.byte	-30
 1414 030f 40       		.byte	64
 1415 0310 E6       		.byte	-26
 1416 0311 0C       		.byte	12
 1417 0312 EA       		.byte	-22
 1418 0313 40       		.byte	64
 1419 0314 AF       		.byte	-81
 1420 0315 03       		.byte	3
 1421 0316 B7       		.byte	-73
 1422 0317 10       		.byte	16
 1423 0318 E4       		.byte	-28
 1424 0319 01       		.byte	1
 1425 031a EE       		.byte	-18
 1426 031b 44       		.byte	68
 1427 031c 9D       		.byte	-99
 1428 031d 08       		.byte	8
 1429 031e B5       		.byte	-75
 1430 031f 02       		.byte	2
 1431 0320 E4       		.byte	-28
 1432 0321 01       		.byte	1
 1433 0322 EE       		.byte	-18
 1434 0323 04       		.byte	4
 1435 0324 42       		.byte	66
 1436 0325 01       		.byte	1
 1437 0326 47       		.byte	71
 1438 0327 E0       		.byte	-32
 1439 0328 48       		.byte	72
 1440 0329 20       		.byte	32
 1441 032a 49       		.byte	73
 1442 032b FF       		.byte	-1
 1443 032c 4A       		.byte	74
 1444 032d FF       		.byte	-1
 1445 032e 4B       		.byte	75
 1446 032f FF       		.byte	-1
 1447 0330 4F       		.byte	79
 1448 0331 83       		.byte	-125
 1449 0332 5A       		.byte	90
 1450 0333 04       		.byte	4
 1451 0334 5B       		.byte	91
 1452 0335 04       		.byte	4
 1453 0336 5D       		.byte	93
 1454 0337 08       		.byte	8
 1455 0338 5F       		.byte	95
 1456 0339 11       		.byte	17
 1457 033a 86       		.byte	-122
 1458 033b 01       		.byte	1
 1459 033c AE       		.byte	-82
ARM GAS  C:\Users\Nick\AppData\Local\Temp\ccjuUlaQ.s 			page 47


 1460 033d 02       		.byte	2
 1461 033e B2       		.byte	-78
 1462 033f 01       		.byte	1
 1463 0340 B6       		.byte	-74
 1464 0341 02       		.byte	2
 1465 0342 D8       		.byte	-40
 1466 0343 04       		.byte	4
 1467 0344 DC       		.byte	-36
 1468 0345 08       		.byte	8
 1469 0346 DF       		.byte	-33
 1470 0347 11       		.byte	17
 1471 0348 05       		.byte	5
 1472 0349 08       		.byte	8
 1473 034a 16       		.byte	22
 1474 034b 02       		.byte	2
 1475 034c 1E       		.byte	30
 1476 034d 21       		.byte	33
 1477 034e 40       		.byte	64
 1478 034f 02       		.byte	2
 1479 0350 50       		.byte	80
 1480 0351 01       		.byte	1
 1481 0352 59       		.byte	89
 1482 0353 02       		.byte	2
 1483 0354 5B       		.byte	91
 1484 0355 94       		.byte	-108
 1485 0356 60       		.byte	96
 1486 0357 08       		.byte	8
 1487 0358 61       		.byte	97
 1488 0359 82       		.byte	-126
 1489 035a 62       		.byte	98
 1490 035b 04       		.byte	4
 1491 035c 79       		.byte	121
 1492 035d 20       		.byte	32
 1493 035e 7F       		.byte	127
 1494 035f 08       		.byte	8
 1495 0360 80       		.byte	-128
 1496 0361 01       		.byte	1
 1497 0362 86       		.byte	-122
 1498 0363 10       		.byte	16
 1499 0364 8B       		.byte	-117
 1500 0365 08       		.byte	8
 1501 0366 91       		.byte	-111
 1502 0367 20       		.byte	32
 1503 0368 96       		.byte	-106
 1504 0369 01       		.byte	1
 1505 036a 98       		.byte	-104
 1506 036b 0A       		.byte	10
 1507 036c 99       		.byte	-103
 1508 036d 02       		.byte	2
 1509 036e 9A       		.byte	-102
 1510 036f 06       		.byte	6
 1511 0370 9B       		.byte	-101
 1512 0371 94       		.byte	-108
 1513 0372 A1       		.byte	-95
 1514 0373 80       		.byte	-128
 1515 0374 AD       		.byte	-83
 1516 0375 10       		.byte	16
ARM GAS  C:\Users\Nick\AppData\Local\Temp\ccjuUlaQ.s 			page 48


 1517 0376 B0       		.byte	-80
 1518 0377 02       		.byte	2
 1519 0378 B4       		.byte	-76
 1520 0379 08       		.byte	8
 1521 037a C0       		.byte	-64
 1522 037b 20       		.byte	32
 1523 037c C4       		.byte	-60
 1524 037d 80       		.byte	-128
 1525 037e D0       		.byte	-48
 1526 037f 08       		.byte	8
 1527 0380 D6       		.byte	-42
 1528 0381 0F       		.byte	15
 1529 0382 D8       		.byte	-40
 1530 0383 0F       		.byte	15
 1531 0384 DE       		.byte	-34
 1532 0385 24       		.byte	36
 1533 0386 E0       		.byte	-32
 1534 0387 20       		.byte	32
 1535 0388 EA       		.byte	-22
 1536 0389 02       		.byte	2
 1537 038a 96       		.byte	-106
 1538 038b 01       		.byte	1
 1539 038c 99       		.byte	-103
 1540 038d 02       		.byte	2
 1541 038e 9A       		.byte	-102
 1542 038f 06       		.byte	6
 1543 0390 9B       		.byte	-101
 1544 0391 94       		.byte	-108
 1545 0392 A1       		.byte	-95
 1546 0393 80       		.byte	-128
 1547 0394 A9       		.byte	-87
 1548 0395 02       		.byte	2
 1549 0396 AB       		.byte	-85
 1550 0397 14       		.byte	20
 1551 0398 AD       		.byte	-83
 1552 0399 80       		.byte	-128
 1553 039a AF       		.byte	-81
 1554 039b A0       		.byte	-96
 1555 039c B2       		.byte	-78
 1556 039d 02       		.byte	2
 1557 039e B6       		.byte	-74
 1558 039f 04       		.byte	4
 1559 03a0 EE       		.byte	-18
 1560 03a1 02       		.byte	2
 1561 03a2 B8       		.byte	-72
 1562 03a3 20       		.byte	32
 1563 03a4 BE       		.byte	-66
 1564 03a5 10       		.byte	16
 1565 03a6 D8       		.byte	-40
 1566 03a7 04       		.byte	4
 1567 03a8 DF       		.byte	-33
 1568 03a9 01       		.byte	1
 1569 03aa 1F       		.byte	31
 1570 03ab 20       		.byte	32
 1571 03ac 86       		.byte	-122
 1572 03ad 01       		.byte	1
 1573 03ae E4       		.byte	-28
ARM GAS  C:\Users\Nick\AppData\Local\Temp\ccjuUlaQ.s 			page 49


 1574 03af 02       		.byte	2
 1575 03b0 E6       		.byte	-26
 1576 03b1 80       		.byte	-128
 1577 03b2 EA       		.byte	-22
 1578 03b3 01       		.byte	1
 1579 03b4 E4       		.byte	-28
 1580 03b5 40       		.byte	64
 1581 03b6 E8       		.byte	-24
 1582 03b7 10       		.byte	16
 1583 03b8 9D       		.byte	-99
 1584 03b9 08       		.byte	8
 1585 03ba E4       		.byte	-28
 1586 03bb 40       		.byte	64
 1587 03bc E8       		.byte	-24
 1588 03bd 10       		.byte	16
 1589 03be 89       		.byte	-119
 1590 03bf 08       		.byte	8
 1591 03c0 9D       		.byte	-99
 1592 03c1 08       		.byte	8
 1593 03c2 E4       		.byte	-28
 1594 03c3 02       		.byte	2
 1595 03c4 E6       		.byte	-26
 1596 03c5 80       		.byte	-128
 1597 03c6 EA       		.byte	-22
 1598 03c7 01       		.byte	1
 1599 03c8 0A       		.byte	10
 1600 03c9 10       		.byte	16
 1601 03ca 0B       		.byte	11
 1602 03cb 02       		.byte	2
 1603 03cc 0E       		.byte	14
 1604 03cd 40       		.byte	64
 1605 03ce 0F       		.byte	15
 1606 03cf 04       		.byte	4
 1607 03d0 30       		.byte	48
 1608 03d1 02       		.byte	2
 1609 03d2 33       		.byte	51
 1610 03d3 80       		.byte	-128
 1611 03d4 35       		.byte	53
 1612 03d5 80       		.byte	-128
 1613 03d6 36       		.byte	54
 1614 03d7 08       		.byte	8
 1615 03d8 38       		.byte	56
 1616 03d9 40       		.byte	64
 1617 03da 3D       		.byte	61
 1618 03db 40       		.byte	64
 1619 03dc 54       		.byte	84
 1620 03dd 20       		.byte	32
 1621 03de 59       		.byte	89
 1622 03df 10       		.byte	16
 1623 03e0 85       		.byte	-123
 1624 03e1 80       		.byte	-128
 1625 03e2 C2       		.byte	-62
 1626 03e3 F0       		.byte	-16
 1627 03e4 CC       		.byte	-52
 1628 03e5 F0       		.byte	-16
 1629 03e6 CE       		.byte	-50
 1630 03e7 30       		.byte	48
ARM GAS  C:\Users\Nick\AppData\Local\Temp\ccjuUlaQ.s 			page 50


 1631 03e8 D4       		.byte	-44
 1632 03e9 C0       		.byte	-64
 1633 03ea E2       		.byte	-30
 1634 03eb 10       		.byte	16
 1635 03ec 05       		.byte	5
 1636 03ed 08       		.byte	8
 1637 03ee 53       		.byte	83
 1638 03ef 08       		.byte	8
 1639 03f0 59       		.byte	89
 1640 03f1 02       		.byte	2
 1641 03f2 66       		.byte	102
 1642 03f3 20       		.byte	32
 1643 03f4 80       		.byte	-128
 1644 03f5 20       		.byte	32
 1645 03f6 82       		.byte	-126
 1646 03f7 08       		.byte	8
 1647 03f8 94       		.byte	-108
 1648 03f9 40       		.byte	64
 1649 03fa 95       		.byte	-107
 1650 03fb 40       		.byte	64
 1651 03fc 9D       		.byte	-99
 1652 03fd 10       		.byte	16
 1653 03fe A3       		.byte	-93
 1654 03ff 01       		.byte	1
 1655 0400 A4       		.byte	-92
 1656 0401 22       		.byte	34
 1657 0402 A6       		.byte	-90
 1658 0403 08       		.byte	8
 1659 0404 A7       		.byte	-89
 1660 0405 80       		.byte	-128
 1661 0406 AA       		.byte	-86
 1662 0407 50       		.byte	80
 1663 0408 AB       		.byte	-85
 1664 0409 01       		.byte	1
 1665 040a AF       		.byte	-81
 1666 040b 05       		.byte	5
 1667 040c C0       		.byte	-64
 1668 040d 20       		.byte	32
 1669 040e D4       		.byte	-44
 1670 040f 20       		.byte	32
 1671 0410 D6       		.byte	-42
 1672 0411 40       		.byte	64
 1673 0412 D8       		.byte	-40
 1674 0413 80       		.byte	-128
 1675 0414 E2       		.byte	-30
 1676 0415 A0       		.byte	-96
 1677 0416 E8       		.byte	-24
 1678 0417 E0       		.byte	-32
 1679 0418 EC       		.byte	-20
 1680 0419 20       		.byte	32
 1681 041a EE       		.byte	-18
 1682 041b 10       		.byte	16
 1683 041c 10       		.byte	16
 1684 041d 10       		.byte	16
 1685 041e 3E       		.byte	62
 1686 041f 10       		.byte	16
 1687 0420 50       		.byte	80
ARM GAS  C:\Users\Nick\AppData\Local\Temp\ccjuUlaQ.s 			page 51


 1688 0421 20       		.byte	32
 1689 0422 63       		.byte	99
 1690 0423 02       		.byte	2
 1691 0424 81       		.byte	-127
 1692 0425 40       		.byte	64
 1693 0426 83       		.byte	-125
 1694 0427 20       		.byte	32
 1695 0428 87       		.byte	-121
 1696 0429 80       		.byte	-128
 1697 042a 88       		.byte	-120
 1698 042b 10       		.byte	16
 1699 042c 8D       		.byte	-115
 1700 042d 10       		.byte	16
 1701 042e 94       		.byte	-108
 1702 042f 40       		.byte	64
 1703 0430 95       		.byte	-107
 1704 0431 40       		.byte	64
 1705 0432 9D       		.byte	-99
 1706 0433 10       		.byte	16
 1707 0434 9E       		.byte	-98
 1708 0435 20       		.byte	32
 1709 0436 A3       		.byte	-93
 1710 0437 01       		.byte	1
 1711 0438 A4       		.byte	-92
 1712 0439 02       		.byte	2
 1713 043a A7       		.byte	-89
 1714 043b 88       		.byte	-120
 1715 043c AD       		.byte	-83
 1716 043d 08       		.byte	8
 1717 043e B5       		.byte	-75
 1718 043f 02       		.byte	2
 1719 0440 C4       		.byte	-60
 1720 0441 10       		.byte	16
 1721 0442 CE       		.byte	-50
 1722 0443 20       		.byte	32
 1723 0444 D4       		.byte	-44
 1724 0445 20       		.byte	32
 1725 0446 D6       		.byte	-42
 1726 0447 40       		.byte	64
 1727 0448 E2       		.byte	-30
 1728 0449 80       		.byte	-128
 1729 044a E6       		.byte	-26
 1730 044b 30       		.byte	48
 1731 044c EC       		.byte	-20
 1732 044d 10       		.byte	16
 1733 044e 18       		.byte	24
 1734 044f 10       		.byte	16
 1735 0450 19       		.byte	25
 1736 0451 04       		.byte	4
 1737 0452 81       		.byte	-127
 1738 0453 04       		.byte	4
 1739 0454 96       		.byte	-106
 1740 0455 10       		.byte	16
 1741 0456 9B       		.byte	-101
 1742 0457 20       		.byte	32
 1743 0458 A4       		.byte	-92
 1744 0459 02       		.byte	2
ARM GAS  C:\Users\Nick\AppData\Local\Temp\ccjuUlaQ.s 			page 52


 1745 045a A8       		.byte	-88
 1746 045b 40       		.byte	64
 1747 045c AC       		.byte	-84
 1748 045d 20       		.byte	32
 1749 045e AF       		.byte	-81
 1750 045f 08       		.byte	8
 1751 0460 B6       		.byte	-74
 1752 0461 20       		.byte	32
 1753 0462 C6       		.byte	-58
 1754 0463 10       		.byte	16
 1755 0464 E4       		.byte	-28
 1756 0465 80       		.byte	-128
 1757 0466 EA       		.byte	-22
 1758 0467 40       		.byte	64
 1759 0468 EE       		.byte	-18
 1760 0469 60       		.byte	96
 1761 046a 00       		.byte	0
 1762 046b 08       		.byte	8
 1763 046c 01       		.byte	1
 1764 046d 40       		.byte	64
 1765 046e 07       		.byte	7
 1766 046f 84       		.byte	-124
 1767 0470 08       		.byte	8
 1768 0471 08       		.byte	8
 1769 0472 65       		.byte	101
 1770 0473 20       		.byte	32
 1771 0474 C0       		.byte	-64
 1772 0475 0F       		.byte	15
 1773 0476 C2       		.byte	-62
 1774 0477 08       		.byte	8
 1775 0478 D8       		.byte	-40
 1776 0479 01       		.byte	1
 1777 047a 00       		.byte	0
 1778 047b 08       		.byte	8
 1779 047c 08       		.byte	8
 1780 047d 01       		.byte	1
 1781 047e 0D       		.byte	13
 1782 047f 02       		.byte	2
 1783 0480 5B       		.byte	91
 1784 0481 08       		.byte	8
 1785 0482 66       		.byte	102
 1786 0483 20       		.byte	32
 1787 0484 91       		.byte	-111
 1788 0485 40       		.byte	64
 1789 0486 9B       		.byte	-101
 1790 0487 80       		.byte	-128
 1791 0488 9D       		.byte	-99
 1792 0489 20       		.byte	32
 1793 048a AC       		.byte	-84
 1794 048b 04       		.byte	4
 1795 048c B0       		.byte	-80
 1796 048d 08       		.byte	8
 1797 048e B7       		.byte	-73
 1798 048f 04       		.byte	4
 1799 0490 C0       		.byte	-64
 1800 0491 08       		.byte	8
 1801 0492 C2       		.byte	-62
ARM GAS  C:\Users\Nick\AppData\Local\Temp\ccjuUlaQ.s 			page 53


 1802 0493 0C       		.byte	12
 1803 0494 D6       		.byte	-42
 1804 0495 02       		.byte	2
 1805 0496 D8       		.byte	-40
 1806 0497 01       		.byte	1
 1807 0498 EA       		.byte	-22
 1808 0499 01       		.byte	1
 1809 049a EE       		.byte	-18
 1810 049b 08       		.byte	8
 1811 049c 04       		.byte	4
 1812 049d 01       		.byte	1
 1813 049e 1B       		.byte	27
 1814 049f 04       		.byte	4
 1815 04a0 98       		.byte	-104
 1816 04a1 01       		.byte	1
 1817 04a2 9D       		.byte	-99
 1818 04a3 20       		.byte	32
 1819 04a4 9E       		.byte	-98
 1820 04a5 20       		.byte	32
 1821 04a6 9F       		.byte	-97
 1822 04a7 08       		.byte	8
 1823 04a8 A1       		.byte	-95
 1824 04a9 10       		.byte	16
 1825 04aa AF       		.byte	-81
 1826 04ab 80       		.byte	-128
 1827 04ac B0       		.byte	-80
 1828 04ad 04       		.byte	4
 1829 04ae B5       		.byte	-75
 1830 04af 52       		.byte	82
 1831 04b0 C0       		.byte	-64
 1832 04b1 04       		.byte	4
 1833 04b2 C6       		.byte	-58
 1834 04b3 08       		.byte	8
 1835 04b4 EA       		.byte	-22
 1836 04b5 06       		.byte	6
 1837 04b6 46       		.byte	70
 1838 04b7 08       		.byte	8
 1839 04b8 81       		.byte	-127
 1840 04b9 20       		.byte	32
 1841 04ba 98       		.byte	-104
 1842 04bb 01       		.byte	1
 1843 04bc 9D       		.byte	-99
 1844 04bd 20       		.byte	32
 1845 04be 9E       		.byte	-98
 1846 04bf 20       		.byte	32
 1847 04c0 9F       		.byte	-97
 1848 04c1 08       		.byte	8
 1849 04c2 A1       		.byte	-95
 1850 04c3 10       		.byte	16
 1851 04c4 AB       		.byte	-85
 1852 04c5 04       		.byte	4
 1853 04c6 B4       		.byte	-76
 1854 04c7 01       		.byte	1
 1855 04c8 D0       		.byte	-48
 1856 04c9 04       		.byte	4
 1857 04ca EE       		.byte	-18
 1858 04cb 08       		.byte	8
ARM GAS  C:\Users\Nick\AppData\Local\Temp\ccjuUlaQ.s 			page 54


 1859 04cc 24       		.byte	36
 1860 04cd 04       		.byte	4
 1861 04ce 5F       		.byte	95
 1862 04cf 20       		.byte	32
 1863 04d0 8C       		.byte	-116
 1864 04d1 04       		.byte	4
 1865 04d2 96       		.byte	-106
 1866 04d3 10       		.byte	16
 1867 04d4 9B       		.byte	-101
 1868 04d5 20       		.byte	32
 1869 04d6 A4       		.byte	-92
 1870 04d7 02       		.byte	2
 1871 04d8 B4       		.byte	-76
 1872 04d9 10       		.byte	16
 1873 04da C8       		.byte	-56
 1874 04db 20       		.byte	32
 1875 04dc D6       		.byte	-42
 1876 04dd 20       		.byte	32
 1877 04de 1A       		.byte	26
 1878 04df 02       		.byte	2
 1879 04e0 21       		.byte	33
 1880 04e1 40       		.byte	64
 1881 04e2 79       		.byte	121
 1882 04e3 80       		.byte	-128
 1883 04e4 86       		.byte	-122
 1884 04e5 01       		.byte	1
 1885 04e6 88       		.byte	-120
 1886 04e7 02       		.byte	2
 1887 04e8 A4       		.byte	-92
 1888 04e9 02       		.byte	2
 1889 04ea AA       		.byte	-86
 1890 04eb 10       		.byte	16
 1891 04ec C6       		.byte	-58
 1892 04ed 40       		.byte	64
 1893 04ee C8       		.byte	-56
 1894 04ef 10       		.byte	16
 1895 04f0 DC       		.byte	-36
 1896 04f1 80       		.byte	-128
 1897 04f2 E4       		.byte	-28
 1898 04f3 40       		.byte	64
 1899 04f4 EA       		.byte	-22
 1900 04f5 80       		.byte	-128
 1901 04f6 13       		.byte	19
 1902 04f7 28       		.byte	40
 1903 04f8 16       		.byte	22
 1904 04f9 20       		.byte	32
 1905 04fa 70       		.byte	112
 1906 04fb 02       		.byte	2
 1907 04fc 78       		.byte	120
 1908 04fd 01       		.byte	1
 1909 04fe 7D       		.byte	125
 1910 04ff 20       		.byte	32
 1911 0500 8C       		.byte	-116
 1912 0501 02       		.byte	2
 1913 0502 98       		.byte	-104
 1914 0503 81       		.byte	-127
 1915 0504 9E       		.byte	-98
ARM GAS  C:\Users\Nick\AppData\Local\Temp\ccjuUlaQ.s 			page 55


 1916 0505 28       		.byte	40
 1917 0506 9F       		.byte	-97
 1918 0507 08       		.byte	8
 1919 0508 A1       		.byte	-95
 1920 0509 10       		.byte	16
 1921 050a B4       		.byte	-76
 1922 050b 80       		.byte	-128
 1923 050c C4       		.byte	-60
 1924 050d 0E       		.byte	14
 1925 050e DC       		.byte	-36
 1926 050f 01       		.byte	1
 1927 0510 DE       		.byte	-34
 1928 0511 03       		.byte	3
 1929 0512 E4       		.byte	-28
 1930 0513 02       		.byte	2
 1931 0514 E8       		.byte	-24
 1932 0515 08       		.byte	8
 1933 0516 0C       		.byte	12
 1934 0517 40       		.byte	64
 1935 0518 10       		.byte	16
 1936 0519 80       		.byte	-128
 1937 051a 60       		.byte	96
 1938 051b 80       		.byte	-128
 1939 051c 86       		.byte	-122
 1940 051d 08       		.byte	8
 1941 051e 88       		.byte	-120
 1942 051f C0       		.byte	-64
 1943 0520 98       		.byte	-104
 1944 0521 80       		.byte	-128
 1945 0522 9E       		.byte	-98
 1946 0523 08       		.byte	8
 1947 0524 AB       		.byte	-85
 1948 0525 20       		.byte	32
 1949 0526 C2       		.byte	-62
 1950 0527 01       		.byte	1
 1951 0528 C4       		.byte	-60
 1952 0529 08       		.byte	8
 1953 052a D8       		.byte	-40
 1954 052b 02       		.byte	2
 1955 052c E2       		.byte	-30
 1956 052d 01       		.byte	1
 1957 052e E6       		.byte	-26
 1958 052f 01       		.byte	1
 1959 0530 00       		.byte	0
 1960 0531 14       		.byte	20
 1961 0532 08       		.byte	8
 1962 0533 10       		.byte	16
 1963 0534 0A       		.byte	10
 1964 0535 14       		.byte	20
 1965 0536 00       		.byte	0
 1966 0537 FF       		.byte	-1
 1967 0538 01       		.byte	1
 1968 0539 03       		.byte	3
 1969 053a 03       		.byte	3
 1970 053b C0       		.byte	-64
 1971 053c 10       		.byte	16
 1972 053d 01       		.byte	1
ARM GAS  C:\Users\Nick\AppData\Local\Temp\ccjuUlaQ.s 			page 56


 1973 053e 0000     		.space	2
 1974              		.type	BS_IOPINS0_0_VAL.4895, %object
 1975              		.size	BS_IOPINS0_0_VAL.4895, 8
 1976              	BS_IOPINS0_0_VAL.4895:
 1977 0540 02       		.byte	2
 1978 0541 C5       		.byte	-59
 1979 0542 C5       		.byte	-59
 1980 0543 00       		.byte	0
 1981 0544 C4       		.byte	-60
 1982 0545 00       		.byte	0
 1983 0546 00       		.byte	0
 1984 0547 00       		.byte	0
 1985              		.type	BS_IOPINS0_7_VAL.4896, %object
 1986              		.size	BS_IOPINS0_7_VAL.4896, 8
 1987              	BS_IOPINS0_7_VAL.4896:
 1988 0548 40       		.byte	64
 1989 0549 8F       		.byte	-113
 1990 054a 8F       		.byte	-113
 1991 054b 00       		.byte	0
 1992 054c 0C       		.byte	12
 1993 054d 00       		.byte	0
 1994 054e 00       		.byte	0
 1995 054f 00       		.byte	0
 1996              		.type	BS_IOPINS0_8_VAL.4897, %object
 1997              		.size	BS_IOPINS0_8_VAL.4897, 8
 1998              	BS_IOPINS0_8_VAL.4897:
 1999 0550 20       		.byte	32
 2000 0551 18       		.byte	24
 2001 0552 18       		.byte	24
 2002 0553 00       		.byte	0
 2003 0554 18       		.byte	24
 2004 0555 00       		.byte	0
 2005 0556 00       		.byte	0
 2006 0557 00       		.byte	0
 2007              		.type	BS_IOPINS0_1_VAL.4898, %object
 2008              		.size	BS_IOPINS0_1_VAL.4898, 8
 2009              	BS_IOPINS0_1_VAL.4898:
 2010 0558 00       		.byte	0
 2011 0559 00       		.byte	0
 2012 055a 00       		.byte	0
 2013 055b 00       		.byte	0
 2014 055c 00       		.byte	0
 2015 055d 00       		.byte	0
 2016 055e 01       		.byte	1
 2017 055f 00       		.byte	0
 2018              		.type	BS_IOPINS0_2_VAL.4899, %object
 2019              		.size	BS_IOPINS0_2_VAL.4899, 10
 2020              	BS_IOPINS0_2_VAL.4899:
 2021 0560 30       		.byte	48
 2022 0561 00       		.byte	0
 2023 0562 05       		.byte	5
 2024 0563 0A       		.byte	10
 2025 0564 3A       		.byte	58
 2026 0565 00       		.byte	0
 2027 0566 30       		.byte	48
 2028 0567 00       		.byte	0
 2029 0568 00       		.byte	0
ARM GAS  C:\Users\Nick\AppData\Local\Temp\ccjuUlaQ.s 			page 57


 2030 0569 00       		.byte	0
 2031 056a 0000     		.space	2
 2032              		.type	BS_IOPINS0_3_VAL.4900, %object
 2033              		.size	BS_IOPINS0_3_VAL.4900, 8
 2034              	BS_IOPINS0_3_VAL.4900:
 2035 056c 00       		.byte	0
 2036 056d F0       		.byte	-16
 2037 056e F0       		.byte	-16
 2038 056f 00       		.byte	0
 2039 0570 00       		.byte	0
 2040 0571 00       		.byte	0
 2041 0572 00       		.byte	0
 2042 0573 00       		.byte	0
 2043              		.type	BS_IOPINS0_4_VAL.4901, %object
 2044              		.size	BS_IOPINS0_4_VAL.4901, 8
 2045              	BS_IOPINS0_4_VAL.4901:
 2046 0574 F0       		.byte	-16
 2047 0575 03       		.byte	3
 2048 0576 03       		.byte	3
 2049 0577 00       		.byte	0
 2050 0578 03       		.byte	3
 2051 0579 00       		.byte	0
 2052 057a 00       		.byte	0
 2053 057b 01       		.byte	1
 2054              		.type	BS_IOPINS0_5_VAL.4902, %object
 2055              		.size	BS_IOPINS0_5_VAL.4902, 8
 2056              	BS_IOPINS0_5_VAL.4902:
 2057 057c 80       		.byte	-128
 2058 057d F0       		.byte	-16
 2059 057e 70       		.byte	112
 2060 057f 00       		.byte	0
 2061 0580 80       		.byte	-128
 2062 0581 00       		.byte	0
 2063 0582 09       		.byte	9
 2064 0583 00       		.byte	0
 2065              		.type	BS_IOPINS0_6_VAL.4903, %object
 2066              		.size	BS_IOPINS0_6_VAL.4903, 8
 2067              	BS_IOPINS0_6_VAL.4903:
 2068 0584 1F       		.byte	31
 2069 0585 10       		.byte	16
 2070 0586 00       		.byte	0
 2071 0587 00       		.byte	0
 2072 0588 10       		.byte	16
 2073 0589 00       		.byte	0
 2074 058a 00       		.byte	0
 2075 058b 00       		.byte	0
 2076              		.text
 2077              	.Letext0:
 2078              		.file 2 "c:\\program files (x86)\\cypress\\psoc creator\\3.2\\psoc creator\\import\\gnu\\arm\\4.8.
 2079              		.file 3 ".\\Generated_Source\\PSoC5\\cytypes.h"
 2080              		.file 4 ".\\Generated_Source\\PSoC5\\CyLib.h"