ARM GAS  C:\Users\Nick\AppData\Local\Temp\ccsUcbpH.s 			page 1


   1              		.syntax unified
   2              		.cpu cortex-m3
   3              		.fpu softvfp
   4              		.eabi_attribute 20, 1
   5              		.eabi_attribute 21, 1
   6              		.eabi_attribute 23, 3
   7              		.eabi_attribute 24, 1
   8              		.eabi_attribute 25, 1
   9              		.eabi_attribute 26, 1
  10              		.eabi_attribute 30, 1
  11              		.eabi_attribute 34, 1
  12              		.eabi_attribute 18, 4
  13              		.thumb
  14              		.file	"CyFlash.c"
  15              		.text
  16              	.Ltext0:
  17              		.cfi_sections	.debug_frame
  18              		.section	.text.CyFlashGetSpcAlgorithm,"ax",%progbits
  19              		.align	2
  20              		.thumb
  21              		.thumb_func
  22              		.type	CyFlashGetSpcAlgorithm, %function
  23              	CyFlashGetSpcAlgorithm:
  24              	.LFB3:
  25              		.file 1 ".\\Generated_Source\\PSoC5\\CyFlash.c"
   1:.\Generated_Source\PSoC5/CyFlash.c **** /*******************************************************************************
   2:.\Generated_Source\PSoC5/CyFlash.c **** * File Name: CyFlash.c
   3:.\Generated_Source\PSoC5/CyFlash.c **** * Version 5.10
   4:.\Generated_Source\PSoC5/CyFlash.c **** *
   5:.\Generated_Source\PSoC5/CyFlash.c **** *  Description:
   6:.\Generated_Source\PSoC5/CyFlash.c **** *   Provides an API for the FLASH/EEPROM.
   7:.\Generated_Source\PSoC5/CyFlash.c **** *
   8:.\Generated_Source\PSoC5/CyFlash.c **** *  Note:
   9:.\Generated_Source\PSoC5/CyFlash.c **** *   This code is endian agnostic.
  10:.\Generated_Source\PSoC5/CyFlash.c **** *
  11:.\Generated_Source\PSoC5/CyFlash.c **** *  Note:
  12:.\Generated_Source\PSoC5/CyFlash.c **** *   Documentation of the API's in this file is located in the
  13:.\Generated_Source\PSoC5/CyFlash.c **** *   System Reference Guide provided with PSoC Creator.
  14:.\Generated_Source\PSoC5/CyFlash.c **** *
  15:.\Generated_Source\PSoC5/CyFlash.c **** ********************************************************************************
  16:.\Generated_Source\PSoC5/CyFlash.c **** * Copyright 2008-2015, Cypress Semiconductor Corporation. All rights reserved.
  17:.\Generated_Source\PSoC5/CyFlash.c **** * You may use this file only in accordance with the license, terms, conditions,
  18:.\Generated_Source\PSoC5/CyFlash.c **** * disclaimers, and limitations in the end user license agreement accompanying
  19:.\Generated_Source\PSoC5/CyFlash.c **** * the software package with which this file was provided.
  20:.\Generated_Source\PSoC5/CyFlash.c **** *******************************************************************************/
  21:.\Generated_Source\PSoC5/CyFlash.c **** 
  22:.\Generated_Source\PSoC5/CyFlash.c **** #include "CyFlash.h"
  23:.\Generated_Source\PSoC5/CyFlash.c **** 
  24:.\Generated_Source\PSoC5/CyFlash.c **** /*  The number of EEPROM arrays */
  25:.\Generated_Source\PSoC5/CyFlash.c **** #define CY_FLASH_EEPROM_NUMBER_ARRAYS                 (1u)
  26:.\Generated_Source\PSoC5/CyFlash.c **** 
  27:.\Generated_Source\PSoC5/CyFlash.c **** 
  28:.\Generated_Source\PSoC5/CyFlash.c **** /*******************************************************************************
  29:.\Generated_Source\PSoC5/CyFlash.c **** * Holds the die temperature, updated by CySetTemp(). Used for flash writing.
  30:.\Generated_Source\PSoC5/CyFlash.c **** * The first byte is the sign of the temperature (0 = negative, 1 = positive).
  31:.\Generated_Source\PSoC5/CyFlash.c **** * The second byte is the magnitude.
  32:.\Generated_Source\PSoC5/CyFlash.c **** *******************************************************************************/
ARM GAS  C:\Users\Nick\AppData\Local\Temp\ccsUcbpH.s 			page 2


  33:.\Generated_Source\PSoC5/CyFlash.c **** uint8 dieTemperature[CY_FLASH_DIE_TEMP_DATA_SIZE];
  34:.\Generated_Source\PSoC5/CyFlash.c **** 
  35:.\Generated_Source\PSoC5/CyFlash.c **** #if(CYDEV_ECC_ENABLE == 0)
  36:.\Generated_Source\PSoC5/CyFlash.c ****     static uint8 * rowBuffer = 0;
  37:.\Generated_Source\PSoC5/CyFlash.c **** #endif  /* (CYDEV_ECC_ENABLE == 0) */
  38:.\Generated_Source\PSoC5/CyFlash.c **** 
  39:.\Generated_Source\PSoC5/CyFlash.c **** 
  40:.\Generated_Source\PSoC5/CyFlash.c **** static cystatus CySetTempInt(void);
  41:.\Generated_Source\PSoC5/CyFlash.c **** static cystatus CyFlashGetSpcAlgorithm(void);
  42:.\Generated_Source\PSoC5/CyFlash.c **** 
  43:.\Generated_Source\PSoC5/CyFlash.c **** 
  44:.\Generated_Source\PSoC5/CyFlash.c **** /*******************************************************************************
  45:.\Generated_Source\PSoC5/CyFlash.c **** * Function Name: CyFlash_Start
  46:.\Generated_Source\PSoC5/CyFlash.c **** ********************************************************************************
  47:.\Generated_Source\PSoC5/CyFlash.c **** *
  48:.\Generated_Source\PSoC5/CyFlash.c **** * Summary:
  49:.\Generated_Source\PSoC5/CyFlash.c **** *  Enable the Flash.
  50:.\Generated_Source\PSoC5/CyFlash.c **** *
  51:.\Generated_Source\PSoC5/CyFlash.c **** * Parameters:
  52:.\Generated_Source\PSoC5/CyFlash.c **** *  None
  53:.\Generated_Source\PSoC5/CyFlash.c **** *
  54:.\Generated_Source\PSoC5/CyFlash.c **** * Return:
  55:.\Generated_Source\PSoC5/CyFlash.c **** *  None
  56:.\Generated_Source\PSoC5/CyFlash.c **** *
  57:.\Generated_Source\PSoC5/CyFlash.c **** *******************************************************************************/
  58:.\Generated_Source\PSoC5/CyFlash.c **** void CyFlash_Start(void) 
  59:.\Generated_Source\PSoC5/CyFlash.c **** {
  60:.\Generated_Source\PSoC5/CyFlash.c ****     uint8 interruptState;
  61:.\Generated_Source\PSoC5/CyFlash.c **** 
  62:.\Generated_Source\PSoC5/CyFlash.c ****     interruptState = CyEnterCriticalSection();
  63:.\Generated_Source\PSoC5/CyFlash.c **** 
  64:.\Generated_Source\PSoC5/CyFlash.c **** 
  65:.\Generated_Source\PSoC5/CyFlash.c ****     /***************************************************************************
  66:.\Generated_Source\PSoC5/CyFlash.c ****     * Enable SPC clock. This also internally enables the 36MHz IMO, since this
  67:.\Generated_Source\PSoC5/CyFlash.c ****     * is required for the SPC to function.
  68:.\Generated_Source\PSoC5/CyFlash.c ****     ***************************************************************************/
  69:.\Generated_Source\PSoC5/CyFlash.c ****     CY_FLASH_PM_ACT_CFG0_REG    |= CY_FLASH_PM_ACT_CFG0_EN_CLK_SPC;
  70:.\Generated_Source\PSoC5/CyFlash.c ****     CY_FLASH_PM_ALTACT_CFG0_REG |= CY_FLASH_PM_ALTACT_CFG0_EN_CLK_SPC;
  71:.\Generated_Source\PSoC5/CyFlash.c **** 
  72:.\Generated_Source\PSoC5/CyFlash.c **** 
  73:.\Generated_Source\PSoC5/CyFlash.c ****     /***************************************************************************
  74:.\Generated_Source\PSoC5/CyFlash.c ****     * The wake count defines the number of Bus Clock cycles it takes for the
  75:.\Generated_Source\PSoC5/CyFlash.c ****     * flash or eeprom to wake up from a low power mode independent of the chip
  76:.\Generated_Source\PSoC5/CyFlash.c ****     * power mode. Wake up time for these blocks is 5 us.
  77:.\Generated_Source\PSoC5/CyFlash.c ****     * The granularity of this register is 2 Bus Clock cycles, so a value of 0x1E
  78:.\Generated_Source\PSoC5/CyFlash.c ****     * (30d) defines the wake up time as 60 cycles of the Bus Clock.
  79:.\Generated_Source\PSoC5/CyFlash.c ****     * This register needs to be written with a value dependent on the Bus Clock
  80:.\Generated_Source\PSoC5/CyFlash.c ****     * frequency so that the duration of the cycles is equal to or greater than
  81:.\Generated_Source\PSoC5/CyFlash.c ****     * the 5 us delay required.
  82:.\Generated_Source\PSoC5/CyFlash.c ****     ***************************************************************************/
  83:.\Generated_Source\PSoC5/CyFlash.c ****     CY_FLASH_SPC_FM_EE_WAKE_CNT_REG = CY_FLASH_SPC_FM_EE_WAKE_CNT_80MHZ;
  84:.\Generated_Source\PSoC5/CyFlash.c **** 
  85:.\Generated_Source\PSoC5/CyFlash.c **** 
  86:.\Generated_Source\PSoC5/CyFlash.c ****     /***************************************************************************
  87:.\Generated_Source\PSoC5/CyFlash.c ****     * Enable flash. Active flash macros consume current, but re-enabling a
  88:.\Generated_Source\PSoC5/CyFlash.c ****     * disabled flash macro takes 5us. If the CPU attempts to fetch out of the
  89:.\Generated_Source\PSoC5/CyFlash.c ****     * macro during that time, it will be stalled. This bit allows the flash to
ARM GAS  C:\Users\Nick\AppData\Local\Temp\ccsUcbpH.s 			page 3


  90:.\Generated_Source\PSoC5/CyFlash.c ****     * be enabled even if the CPU is disabled, which allows a quicker return to
  91:.\Generated_Source\PSoC5/CyFlash.c ****     * code execution.
  92:.\Generated_Source\PSoC5/CyFlash.c ****     ***************************************************************************/
  93:.\Generated_Source\PSoC5/CyFlash.c ****     CY_FLASH_PM_ACT_CFG12_REG    |= CY_FLASH_PM_ACT_CFG12_EN_FM;
  94:.\Generated_Source\PSoC5/CyFlash.c ****     CY_FLASH_PM_ALTACT_CFG12_REG |= CY_FLASH_PM_ALTACT_CFG12_EN_FM;
  95:.\Generated_Source\PSoC5/CyFlash.c **** 
  96:.\Generated_Source\PSoC5/CyFlash.c ****     while(0u == (CY_FLASH_SPC_FM_EE_CR_REG & CY_FLASH_EE_EE_AWAKE))
  97:.\Generated_Source\PSoC5/CyFlash.c ****     {
  98:.\Generated_Source\PSoC5/CyFlash.c ****         /* Non-zero status denotes that the EEPROM/Flash is awake & powered. */
  99:.\Generated_Source\PSoC5/CyFlash.c ****     }
 100:.\Generated_Source\PSoC5/CyFlash.c **** 
 101:.\Generated_Source\PSoC5/CyFlash.c ****     CyExitCriticalSection(interruptState);
 102:.\Generated_Source\PSoC5/CyFlash.c **** }
 103:.\Generated_Source\PSoC5/CyFlash.c **** 
 104:.\Generated_Source\PSoC5/CyFlash.c **** 
 105:.\Generated_Source\PSoC5/CyFlash.c **** /*******************************************************************************
 106:.\Generated_Source\PSoC5/CyFlash.c **** * Function Name: CyFlash_Stop
 107:.\Generated_Source\PSoC5/CyFlash.c **** ********************************************************************************
 108:.\Generated_Source\PSoC5/CyFlash.c **** *
 109:.\Generated_Source\PSoC5/CyFlash.c **** * Summary:
 110:.\Generated_Source\PSoC5/CyFlash.c **** *  Disable the Flash.
 111:.\Generated_Source\PSoC5/CyFlash.c **** *
 112:.\Generated_Source\PSoC5/CyFlash.c **** * Parameters:
 113:.\Generated_Source\PSoC5/CyFlash.c **** *  None
 114:.\Generated_Source\PSoC5/CyFlash.c **** *
 115:.\Generated_Source\PSoC5/CyFlash.c **** * Return:
 116:.\Generated_Source\PSoC5/CyFlash.c **** *  None
 117:.\Generated_Source\PSoC5/CyFlash.c **** *
 118:.\Generated_Source\PSoC5/CyFlash.c **** * Side Effects:
 119:.\Generated_Source\PSoC5/CyFlash.c **** *  This setting is ignored as long as the CPU is currently running.  This will
 120:.\Generated_Source\PSoC5/CyFlash.c **** *  only take effect when the CPU is later disabled.
 121:.\Generated_Source\PSoC5/CyFlash.c **** *
 122:.\Generated_Source\PSoC5/CyFlash.c **** *******************************************************************************/
 123:.\Generated_Source\PSoC5/CyFlash.c **** void CyFlash_Stop(void) 
 124:.\Generated_Source\PSoC5/CyFlash.c **** {
 125:.\Generated_Source\PSoC5/CyFlash.c ****     uint8 interruptState;
 126:.\Generated_Source\PSoC5/CyFlash.c **** 
 127:.\Generated_Source\PSoC5/CyFlash.c ****     interruptState = CyEnterCriticalSection();
 128:.\Generated_Source\PSoC5/CyFlash.c **** 
 129:.\Generated_Source\PSoC5/CyFlash.c ****     CY_FLASH_PM_ACT_CFG12_REG    &= ((uint8)(~CY_FLASH_PM_ACT_CFG12_EN_FM));
 130:.\Generated_Source\PSoC5/CyFlash.c ****     CY_FLASH_PM_ALTACT_CFG12_REG &= ((uint8)(~CY_FLASH_PM_ALTACT_CFG12_EN_FM));
 131:.\Generated_Source\PSoC5/CyFlash.c **** 
 132:.\Generated_Source\PSoC5/CyFlash.c ****     CyExitCriticalSection(interruptState);
 133:.\Generated_Source\PSoC5/CyFlash.c **** }
 134:.\Generated_Source\PSoC5/CyFlash.c **** 
 135:.\Generated_Source\PSoC5/CyFlash.c **** 
 136:.\Generated_Source\PSoC5/CyFlash.c **** /*******************************************************************************
 137:.\Generated_Source\PSoC5/CyFlash.c **** * Function Name: CySetTempInt
 138:.\Generated_Source\PSoC5/CyFlash.c **** ********************************************************************************
 139:.\Generated_Source\PSoC5/CyFlash.c **** *
 140:.\Generated_Source\PSoC5/CyFlash.c **** * Summary:
 141:.\Generated_Source\PSoC5/CyFlash.c **** *  Sends a command to the SPC to read the die temperature. Sets a global value
 142:.\Generated_Source\PSoC5/CyFlash.c **** *  used by the Write function. This function must be called once before
 143:.\Generated_Source\PSoC5/CyFlash.c **** *  executing a series of Flash writing functions.
 144:.\Generated_Source\PSoC5/CyFlash.c **** *
 145:.\Generated_Source\PSoC5/CyFlash.c **** * Parameters:
 146:.\Generated_Source\PSoC5/CyFlash.c **** *  None
ARM GAS  C:\Users\Nick\AppData\Local\Temp\ccsUcbpH.s 			page 4


 147:.\Generated_Source\PSoC5/CyFlash.c **** *
 148:.\Generated_Source\PSoC5/CyFlash.c **** * Return:
 149:.\Generated_Source\PSoC5/CyFlash.c **** *  status:
 150:.\Generated_Source\PSoC5/CyFlash.c **** *   CYRET_SUCCESS - if successful
 151:.\Generated_Source\PSoC5/CyFlash.c **** *   CYRET_LOCKED  - if Flash writing already in use
 152:.\Generated_Source\PSoC5/CyFlash.c **** *   CYRET_UNKNOWN - if there was an SPC error
 153:.\Generated_Source\PSoC5/CyFlash.c **** *
 154:.\Generated_Source\PSoC5/CyFlash.c **** *******************************************************************************/
 155:.\Generated_Source\PSoC5/CyFlash.c **** static cystatus CySetTempInt(void) 
 156:.\Generated_Source\PSoC5/CyFlash.c **** {
 157:.\Generated_Source\PSoC5/CyFlash.c ****     cystatus status;
 158:.\Generated_Source\PSoC5/CyFlash.c **** 
 159:.\Generated_Source\PSoC5/CyFlash.c ****     /* Make sure SPC is powered */
 160:.\Generated_Source\PSoC5/CyFlash.c ****     CySpcStart();
 161:.\Generated_Source\PSoC5/CyFlash.c **** 
 162:.\Generated_Source\PSoC5/CyFlash.c ****     /* Plan for failure. */
 163:.\Generated_Source\PSoC5/CyFlash.c ****     status = CYRET_UNKNOWN;
 164:.\Generated_Source\PSoC5/CyFlash.c **** 
 165:.\Generated_Source\PSoC5/CyFlash.c ****     if(CySpcLock() == CYRET_SUCCESS)
 166:.\Generated_Source\PSoC5/CyFlash.c ****     {
 167:.\Generated_Source\PSoC5/CyFlash.c ****         /* Write the command. */
 168:.\Generated_Source\PSoC5/CyFlash.c ****         if(CYRET_STARTED == CySpcGetTemp(CY_TEMP_NUMBER_OF_SAMPLES))
 169:.\Generated_Source\PSoC5/CyFlash.c ****         {
 170:.\Generated_Source\PSoC5/CyFlash.c ****             do
 171:.\Generated_Source\PSoC5/CyFlash.c ****             {
 172:.\Generated_Source\PSoC5/CyFlash.c ****                 if(CySpcReadData(dieTemperature, CY_FLASH_DIE_TEMP_DATA_SIZE) == CY_FLASH_DIE_TEMP_
 173:.\Generated_Source\PSoC5/CyFlash.c ****                 {
 174:.\Generated_Source\PSoC5/CyFlash.c ****                     status = CYRET_SUCCESS;
 175:.\Generated_Source\PSoC5/CyFlash.c **** 
 176:.\Generated_Source\PSoC5/CyFlash.c ****                     while(CY_SPC_BUSY)
 177:.\Generated_Source\PSoC5/CyFlash.c ****                     {
 178:.\Generated_Source\PSoC5/CyFlash.c ****                         /* Spin until idle. */
 179:.\Generated_Source\PSoC5/CyFlash.c ****                         CyDelayUs(1u);
 180:.\Generated_Source\PSoC5/CyFlash.c ****                     }
 181:.\Generated_Source\PSoC5/CyFlash.c ****                     break;
 182:.\Generated_Source\PSoC5/CyFlash.c ****                 }
 183:.\Generated_Source\PSoC5/CyFlash.c **** 
 184:.\Generated_Source\PSoC5/CyFlash.c ****             } while(CY_SPC_BUSY);
 185:.\Generated_Source\PSoC5/CyFlash.c ****         }
 186:.\Generated_Source\PSoC5/CyFlash.c **** 
 187:.\Generated_Source\PSoC5/CyFlash.c ****         CySpcUnlock();
 188:.\Generated_Source\PSoC5/CyFlash.c ****     }
 189:.\Generated_Source\PSoC5/CyFlash.c ****     else
 190:.\Generated_Source\PSoC5/CyFlash.c ****     {
 191:.\Generated_Source\PSoC5/CyFlash.c ****         status = CYRET_LOCKED;
 192:.\Generated_Source\PSoC5/CyFlash.c ****     }
 193:.\Generated_Source\PSoC5/CyFlash.c **** 
 194:.\Generated_Source\PSoC5/CyFlash.c ****     return (status);
 195:.\Generated_Source\PSoC5/CyFlash.c **** }
 196:.\Generated_Source\PSoC5/CyFlash.c **** 
 197:.\Generated_Source\PSoC5/CyFlash.c **** 
 198:.\Generated_Source\PSoC5/CyFlash.c **** /*******************************************************************************
 199:.\Generated_Source\PSoC5/CyFlash.c **** * Function Name: CyFlashGetSpcAlgorithm
 200:.\Generated_Source\PSoC5/CyFlash.c **** ********************************************************************************
 201:.\Generated_Source\PSoC5/CyFlash.c **** *
 202:.\Generated_Source\PSoC5/CyFlash.c **** * Summary:
 203:.\Generated_Source\PSoC5/CyFlash.c **** *  Sends a command to the SPC to download code into RAM.
ARM GAS  C:\Users\Nick\AppData\Local\Temp\ccsUcbpH.s 			page 5


 204:.\Generated_Source\PSoC5/CyFlash.c **** *
 205:.\Generated_Source\PSoC5/CyFlash.c **** * Parameters:
 206:.\Generated_Source\PSoC5/CyFlash.c **** *  None
 207:.\Generated_Source\PSoC5/CyFlash.c **** *
 208:.\Generated_Source\PSoC5/CyFlash.c **** * Return:
 209:.\Generated_Source\PSoC5/CyFlash.c **** *  status:
 210:.\Generated_Source\PSoC5/CyFlash.c **** *   CYRET_SUCCESS - if successful
 211:.\Generated_Source\PSoC5/CyFlash.c **** *   CYRET_LOCKED  - if Flash writing already in use
 212:.\Generated_Source\PSoC5/CyFlash.c **** *   CYRET_UNKNOWN - if there was an SPC error
 213:.\Generated_Source\PSoC5/CyFlash.c **** *
 214:.\Generated_Source\PSoC5/CyFlash.c **** *******************************************************************************/
 215:.\Generated_Source\PSoC5/CyFlash.c **** static cystatus CyFlashGetSpcAlgorithm(void) 
 216:.\Generated_Source\PSoC5/CyFlash.c **** {
  26              		.loc 1 216 0
  27              		.cfi_startproc
  28              		@ args = 0, pretend = 0, frame = 0
  29              		@ frame_needed = 0, uses_anonymous_args = 0
  30 0000 70B5     		push	{r4, r5, r6, lr}
  31              		.cfi_def_cfa_offset 16
  32              		.cfi_offset 4, -16
  33              		.cfi_offset 5, -12
  34              		.cfi_offset 6, -8
  35              		.cfi_offset 14, -4
 217:.\Generated_Source\PSoC5/CyFlash.c ****     cystatus status;
 218:.\Generated_Source\PSoC5/CyFlash.c **** 
 219:.\Generated_Source\PSoC5/CyFlash.c ****     /* Make sure SPC is powered */
 220:.\Generated_Source\PSoC5/CyFlash.c ****     CySpcStart();
  36              		.loc 1 220 0
  37 0002 FFF7FEFF 		bl	CySpcStart
  38              	.LVL0:
 221:.\Generated_Source\PSoC5/CyFlash.c **** 
 222:.\Generated_Source\PSoC5/CyFlash.c ****     if(CySpcLock() == CYRET_SUCCESS)
  39              		.loc 1 222 0
  40 0006 FFF7FEFF 		bl	CySpcLock
  41              	.LVL1:
  42 000a E0B9     		cbnz	r0, .L6
 223:.\Generated_Source\PSoC5/CyFlash.c ****     {
 224:.\Generated_Source\PSoC5/CyFlash.c ****         status = CySpcGetAlgorithm();
  43              		.loc 1 224 0
  44 000c FFF7FEFF 		bl	CySpcGetAlgorithm
  45              	.LVL2:
  46 0010 0446     		mov	r4, r0
  47              	.LVL3:
 225:.\Generated_Source\PSoC5/CyFlash.c **** 
 226:.\Generated_Source\PSoC5/CyFlash.c ****         if(CYRET_STARTED == status)
  48              		.loc 1 226 0
  49 0012 0728     		cmp	r0, #7
  50 0014 14D1     		bne	.L4
  51 0016 03E0     		b	.L3
  52              	.LVL4:
  53              	.L5:
 227:.\Generated_Source\PSoC5/CyFlash.c ****         {
 228:.\Generated_Source\PSoC5/CyFlash.c ****             while(CY_SPC_BUSY)
 229:.\Generated_Source\PSoC5/CyFlash.c ****             {
 230:.\Generated_Source\PSoC5/CyFlash.c ****                 /* Spin until idle. */
 231:.\Generated_Source\PSoC5/CyFlash.c ****                 CyDelayUs(1u);
  54              		.loc 1 231 0
ARM GAS  C:\Users\Nick\AppData\Local\Temp\ccsUcbpH.s 			page 6


  55 0018 3046     		mov	r0, r6
  56 001a FFF7FEFF 		bl	CyDelayUs
  57              	.LVL5:
  58 001e 01E0     		b	.L8
  59              	.LVL6:
  60              	.L3:
 228:.\Generated_Source\PSoC5/CyFlash.c ****             while(CY_SPC_BUSY)
  61              		.loc 1 228 0 discriminator 1
  62 0020 0A4D     		ldr	r5, .L9
  63              		.loc 1 231 0 discriminator 1
  64 0022 0126     		movs	r6, #1
  65              	.LVL7:
  66              	.L8:
 228:.\Generated_Source\PSoC5/CyFlash.c ****             while(CY_SPC_BUSY)
  67              		.loc 1 228 0 discriminator 1
  68 0024 2B78     		ldrb	r3, [r5]	@ zero_extendqisi2
  69 0026 13F0020F 		tst	r3, #2
  70 002a F5D0     		beq	.L5
 232:.\Generated_Source\PSoC5/CyFlash.c ****             }
 233:.\Generated_Source\PSoC5/CyFlash.c **** 
 234:.\Generated_Source\PSoC5/CyFlash.c ****             if(CY_SPC_STATUS_SUCCESS == CY_SPC_READ_STATUS)
  71              		.loc 1 234 0
  72 002c 074B     		ldr	r3, .L9
  73 002e 1B78     		ldrb	r3, [r3]	@ zero_extendqisi2
  74 0030 13F0020F 		tst	r3, #2
  75 0034 04D0     		beq	.L4
  76              		.loc 1 234 0 is_stmt 0 discriminator 1
  77 0036 054B     		ldr	r3, .L9
  78 0038 1B78     		ldrb	r3, [r3]	@ zero_extendqisi2
  79 003a 9B08     		lsrs	r3, r3, #2
  80 003c 00D1     		bne	.L4
 235:.\Generated_Source\PSoC5/CyFlash.c ****             {
 236:.\Generated_Source\PSoC5/CyFlash.c ****                 status = CYRET_SUCCESS;
  81              		.loc 1 236 0 is_stmt 1
  82 003e 0024     		movs	r4, #0
  83              	.LVL8:
  84              	.L4:
 237:.\Generated_Source\PSoC5/CyFlash.c ****             }
 238:.\Generated_Source\PSoC5/CyFlash.c ****         }
 239:.\Generated_Source\PSoC5/CyFlash.c ****         CySpcUnlock();
  85              		.loc 1 239 0
  86 0040 FFF7FEFF 		bl	CySpcUnlock
  87              	.LVL9:
  88 0044 00E0     		b	.L2
  89              	.LVL10:
  90              	.L6:
 240:.\Generated_Source\PSoC5/CyFlash.c ****     }
 241:.\Generated_Source\PSoC5/CyFlash.c ****     else
 242:.\Generated_Source\PSoC5/CyFlash.c ****     {
 243:.\Generated_Source\PSoC5/CyFlash.c ****         status = CYRET_LOCKED;
  91              		.loc 1 243 0
  92 0046 0424     		movs	r4, #4
  93              	.L2:
  94              	.LVL11:
 244:.\Generated_Source\PSoC5/CyFlash.c ****     }
 245:.\Generated_Source\PSoC5/CyFlash.c **** 
 246:.\Generated_Source\PSoC5/CyFlash.c ****     return (status);
ARM GAS  C:\Users\Nick\AppData\Local\Temp\ccsUcbpH.s 			page 7


 247:.\Generated_Source\PSoC5/CyFlash.c **** }
  95              		.loc 1 247 0
  96 0048 2046     		mov	r0, r4
  97 004a 70BD     		pop	{r4, r5, r6, pc}
  98              	.LVL12:
  99              	.L10:
 100              		.align	2
 101              	.L9:
 102 004c 22470040 		.word	1073760034
 103              		.cfi_endproc
 104              	.LFE3:
 105              		.size	CyFlashGetSpcAlgorithm, .-CyFlashGetSpcAlgorithm
 106              		.section	.text.CySetTempInt,"ax",%progbits
 107              		.align	2
 108              		.thumb
 109              		.thumb_func
 110              		.type	CySetTempInt, %function
 111              	CySetTempInt:
 112              	.LFB2:
 156:.\Generated_Source\PSoC5/CyFlash.c **** {
 113              		.loc 1 156 0
 114              		.cfi_startproc
 115              		@ args = 0, pretend = 0, frame = 0
 116              		@ frame_needed = 0, uses_anonymous_args = 0
 117 0000 70B5     		push	{r4, r5, r6, lr}
 118              		.cfi_def_cfa_offset 16
 119              		.cfi_offset 4, -16
 120              		.cfi_offset 5, -12
 121              		.cfi_offset 6, -8
 122              		.cfi_offset 14, -4
 160:.\Generated_Source\PSoC5/CyFlash.c ****     CySpcStart();
 123              		.loc 1 160 0
 124 0002 FFF7FEFF 		bl	CySpcStart
 125              	.LVL13:
 165:.\Generated_Source\PSoC5/CyFlash.c ****     if(CySpcLock() == CYRET_SUCCESS)
 126              		.loc 1 165 0
 127 0006 FFF7FEFF 		bl	CySpcLock
 128              	.LVL14:
 129 000a 30BB     		cbnz	r0, .L18
 168:.\Generated_Source\PSoC5/CyFlash.c ****         if(CYRET_STARTED == CySpcGetTemp(CY_TEMP_NUMBER_OF_SAMPLES))
 130              		.loc 1 168 0
 131 000c 0120     		movs	r0, #1
 132 000e FFF7FEFF 		bl	CySpcGetTemp
 133              	.LVL15:
 134 0012 0728     		cmp	r0, #7
 135 0014 1CD1     		bne	.L19
 172:.\Generated_Source\PSoC5/CyFlash.c ****                 if(CySpcReadData(dieTemperature, CY_FLASH_DIE_TEMP_DATA_SIZE) == CY_FLASH_DIE_TEMP_
 136              		.loc 1 172 0
 137 0016 124D     		ldr	r5, .L24
 138 0018 0224     		movs	r4, #2
 184:.\Generated_Source\PSoC5/CyFlash.c ****             } while(CY_SPC_BUSY);
 139              		.loc 1 184 0
 140 001a 124E     		ldr	r6, .L24+4
 141              	.L20:
 172:.\Generated_Source\PSoC5/CyFlash.c ****                 if(CySpcReadData(dieTemperature, CY_FLASH_DIE_TEMP_DATA_SIZE) == CY_FLASH_DIE_TEMP_
 142              		.loc 1 172 0
 143 001c 2846     		mov	r0, r5
ARM GAS  C:\Users\Nick\AppData\Local\Temp\ccsUcbpH.s 			page 8


 144 001e 2146     		mov	r1, r4
 145 0020 FFF7FEFF 		bl	CySpcReadData
 146              	.LVL16:
 147 0024 0228     		cmp	r0, #2
 148 0026 0CD1     		bne	.L22
 149 0028 03E0     		b	.L14
 150              	.L16:
 179:.\Generated_Source\PSoC5/CyFlash.c ****                         CyDelayUs(1u);
 151              		.loc 1 179 0
 152 002a 2846     		mov	r0, r5
 153 002c FFF7FEFF 		bl	CyDelayUs
 154              	.LVL17:
 155 0030 01E0     		b	.L23
 156              	.L14:
 176:.\Generated_Source\PSoC5/CyFlash.c ****                     while(CY_SPC_BUSY)
 157              		.loc 1 176 0 discriminator 1
 158 0032 0C4C     		ldr	r4, .L24+4
 179:.\Generated_Source\PSoC5/CyFlash.c ****                         CyDelayUs(1u);
 159              		.loc 1 179 0 discriminator 1
 160 0034 0125     		movs	r5, #1
 161              	.L23:
 176:.\Generated_Source\PSoC5/CyFlash.c ****                     while(CY_SPC_BUSY)
 162              		.loc 1 176 0 discriminator 1
 163 0036 2378     		ldrb	r3, [r4]	@ zero_extendqisi2
 164 0038 13F0020F 		tst	r3, #2
 165 003c F5D0     		beq	.L16
 174:.\Generated_Source\PSoC5/CyFlash.c ****                     status = CYRET_SUCCESS;
 166              		.loc 1 174 0
 167 003e 0024     		movs	r4, #0
 168 0040 08E0     		b	.L13
 169              	.L22:
 184:.\Generated_Source\PSoC5/CyFlash.c ****             } while(CY_SPC_BUSY);
 170              		.loc 1 184 0
 171 0042 3378     		ldrb	r3, [r6]	@ zero_extendqisi2
 172 0044 13F0020F 		tst	r3, #2
 173 0048 E8D0     		beq	.L20
 163:.\Generated_Source\PSoC5/CyFlash.c ****     status = CYRET_UNKNOWN;
 174              		.loc 1 163 0
 175 004a 4FF0FF34 		mov	r4, #-1
 176 004e 01E0     		b	.L13
 177              	.L19:
 178 0050 4FF0FF34 		mov	r4, #-1
 179              	.L13:
 180              	.LVL18:
 187:.\Generated_Source\PSoC5/CyFlash.c ****         CySpcUnlock();
 181              		.loc 1 187 0
 182 0054 FFF7FEFF 		bl	CySpcUnlock
 183              	.LVL19:
 184 0058 00E0     		b	.L12
 185              	.LVL20:
 186              	.L18:
 191:.\Generated_Source\PSoC5/CyFlash.c ****         status = CYRET_LOCKED;
 187              		.loc 1 191 0
 188 005a 0424     		movs	r4, #4
 189              	.LVL21:
 190              	.L12:
 195:.\Generated_Source\PSoC5/CyFlash.c **** }
ARM GAS  C:\Users\Nick\AppData\Local\Temp\ccsUcbpH.s 			page 9


 191              		.loc 1 195 0
 192 005c 2046     		mov	r0, r4
 193 005e 70BD     		pop	{r4, r5, r6, pc}
 194              	.LVL22:
 195              	.L25:
 196              		.align	2
 197              	.L24:
 198 0060 00000000 		.word	dieTemperature
 199 0064 22470040 		.word	1073760034
 200              		.cfi_endproc
 201              	.LFE2:
 202              		.size	CySetTempInt, .-CySetTempInt
 203              		.section	.text.CyFlash_Start,"ax",%progbits
 204              		.align	2
 205              		.global	CyFlash_Start
 206              		.thumb
 207              		.thumb_func
 208              		.type	CyFlash_Start, %function
 209              	CyFlash_Start:
 210              	.LFB0:
  59:.\Generated_Source\PSoC5/CyFlash.c **** {
 211              		.loc 1 59 0
 212              		.cfi_startproc
 213              		@ args = 0, pretend = 0, frame = 0
 214              		@ frame_needed = 0, uses_anonymous_args = 0
 215 0000 08B5     		push	{r3, lr}
 216              		.cfi_def_cfa_offset 8
 217              		.cfi_offset 3, -8
 218              		.cfi_offset 14, -4
  62:.\Generated_Source\PSoC5/CyFlash.c ****     interruptState = CyEnterCriticalSection();
 219              		.loc 1 62 0
 220 0002 FFF7FEFF 		bl	CyEnterCriticalSection
 221              	.LVL23:
  69:.\Generated_Source\PSoC5/CyFlash.c ****     CY_FLASH_PM_ACT_CFG0_REG    |= CY_FLASH_PM_ACT_CFG0_EN_CLK_SPC;
 222              		.loc 1 69 0
 223 0006 104B     		ldr	r3, .L29
 224 0008 1A78     		ldrb	r2, [r3]	@ zero_extendqisi2
 225 000a 42F00802 		orr	r2, r2, #8
 226 000e 1A70     		strb	r2, [r3]
  70:.\Generated_Source\PSoC5/CyFlash.c ****     CY_FLASH_PM_ALTACT_CFG0_REG |= CY_FLASH_PM_ALTACT_CFG0_EN_CLK_SPC;
 227              		.loc 1 70 0
 228 0010 1033     		adds	r3, r3, #16
 229 0012 1A78     		ldrb	r2, [r3]	@ zero_extendqisi2
 230 0014 42F00802 		orr	r2, r2, #8
 231 0018 1A70     		strb	r2, [r3]
  83:.\Generated_Source\PSoC5/CyFlash.c ****     CY_FLASH_SPC_FM_EE_WAKE_CNT_REG = CY_FLASH_SPC_FM_EE_WAKE_CNT_80MHZ;
 232              		.loc 1 83 0
 233 001a C822     		movs	r2, #200
 234 001c 03F25133 		addw	r3, r3, #849
 235 0020 1A70     		strb	r2, [r3]
  93:.\Generated_Source\PSoC5/CyFlash.c ****     CY_FLASH_PM_ACT_CFG12_REG    |= CY_FLASH_PM_ACT_CFG12_EN_FM;
 236              		.loc 1 93 0
 237 0022 A3F25533 		subw	r3, r3, #853
 238 0026 1A78     		ldrb	r2, [r3]	@ zero_extendqisi2
 239 0028 42F00F02 		orr	r2, r2, #15
 240 002c 1A70     		strb	r2, [r3]
  94:.\Generated_Source\PSoC5/CyFlash.c ****     CY_FLASH_PM_ALTACT_CFG12_REG |= CY_FLASH_PM_ALTACT_CFG12_EN_FM;
ARM GAS  C:\Users\Nick\AppData\Local\Temp\ccsUcbpH.s 			page 10


 241              		.loc 1 94 0
 242 002e 1033     		adds	r3, r3, #16
 243 0030 1A78     		ldrb	r2, [r3]	@ zero_extendqisi2
 244 0032 42F00F02 		orr	r2, r2, #15
 245 0036 1A70     		strb	r2, [r3]
  96:.\Generated_Source\PSoC5/CyFlash.c ****     while(0u == (CY_FLASH_SPC_FM_EE_CR_REG & CY_FLASH_EE_EE_AWAKE))
 246              		.loc 1 96 0
 247 0038 044A     		ldr	r2, .L29+4
 248              	.L27:
  96:.\Generated_Source\PSoC5/CyFlash.c ****     while(0u == (CY_FLASH_SPC_FM_EE_CR_REG & CY_FLASH_EE_EE_AWAKE))
 249              		.loc 1 96 0 is_stmt 0 discriminator 1
 250 003a 1378     		ldrb	r3, [r2]	@ zero_extendqisi2
 251 003c 13F0200F 		tst	r3, #32
 252 0040 FBD0     		beq	.L27
 101:.\Generated_Source\PSoC5/CyFlash.c ****     CyExitCriticalSection(interruptState);
 253              		.loc 1 101 0 is_stmt 1
 254 0042 FFF7FEFF 		bl	CyExitCriticalSection
 255              	.LVL24:
 256 0046 08BD     		pop	{r3, pc}
 257              	.L30:
 258              		.align	2
 259              	.L29:
 260 0048 A0430040 		.word	1073759136
 261 004c 00470040 		.word	1073760000
 262              		.cfi_endproc
 263              	.LFE0:
 264              		.size	CyFlash_Start, .-CyFlash_Start
 265              		.section	.text.CyFlash_Stop,"ax",%progbits
 266              		.align	2
 267              		.global	CyFlash_Stop
 268              		.thumb
 269              		.thumb_func
 270              		.type	CyFlash_Stop, %function
 271              	CyFlash_Stop:
 272              	.LFB1:
 124:.\Generated_Source\PSoC5/CyFlash.c **** {
 273              		.loc 1 124 0
 274              		.cfi_startproc
 275              		@ args = 0, pretend = 0, frame = 0
 276              		@ frame_needed = 0, uses_anonymous_args = 0
 277 0000 08B5     		push	{r3, lr}
 278              		.cfi_def_cfa_offset 8
 279              		.cfi_offset 3, -8
 280              		.cfi_offset 14, -4
 127:.\Generated_Source\PSoC5/CyFlash.c ****     interruptState = CyEnterCriticalSection();
 281              		.loc 1 127 0
 282 0002 FFF7FEFF 		bl	CyEnterCriticalSection
 283              	.LVL25:
 129:.\Generated_Source\PSoC5/CyFlash.c ****     CY_FLASH_PM_ACT_CFG12_REG    &= ((uint8)(~CY_FLASH_PM_ACT_CFG12_EN_FM));
 284              		.loc 1 129 0
 285 0006 064B     		ldr	r3, .L32
 286 0008 1A78     		ldrb	r2, [r3]	@ zero_extendqisi2
 287 000a 02F0F002 		and	r2, r2, #240
 288 000e 1A70     		strb	r2, [r3]
 130:.\Generated_Source\PSoC5/CyFlash.c ****     CY_FLASH_PM_ALTACT_CFG12_REG &= ((uint8)(~CY_FLASH_PM_ALTACT_CFG12_EN_FM));
 289              		.loc 1 130 0
 290 0010 1033     		adds	r3, r3, #16
ARM GAS  C:\Users\Nick\AppData\Local\Temp\ccsUcbpH.s 			page 11


 291 0012 1A78     		ldrb	r2, [r3]	@ zero_extendqisi2
 292 0014 02F0F002 		and	r2, r2, #240
 293 0018 1A70     		strb	r2, [r3]
 132:.\Generated_Source\PSoC5/CyFlash.c ****     CyExitCriticalSection(interruptState);
 294              		.loc 1 132 0
 295 001a FFF7FEFF 		bl	CyExitCriticalSection
 296              	.LVL26:
 297 001e 08BD     		pop	{r3, pc}
 298              	.L33:
 299              		.align	2
 300              	.L32:
 301 0020 AC430040 		.word	1073759148
 302              		.cfi_endproc
 303              	.LFE1:
 304              		.size	CyFlash_Stop, .-CyFlash_Stop
 305              		.section	.text.CySetTemp,"ax",%progbits
 306              		.align	2
 307              		.global	CySetTemp
 308              		.thumb
 309              		.thumb_func
 310              		.type	CySetTemp, %function
 311              	CySetTemp:
 312              	.LFB4:
 248:.\Generated_Source\PSoC5/CyFlash.c **** 
 249:.\Generated_Source\PSoC5/CyFlash.c **** 
 250:.\Generated_Source\PSoC5/CyFlash.c **** /*******************************************************************************
 251:.\Generated_Source\PSoC5/CyFlash.c **** * Function Name: CySetTemp
 252:.\Generated_Source\PSoC5/CyFlash.c **** ********************************************************************************
 253:.\Generated_Source\PSoC5/CyFlash.c **** *
 254:.\Generated_Source\PSoC5/CyFlash.c **** * Summary:
 255:.\Generated_Source\PSoC5/CyFlash.c **** *  This is a wraparound for CySetTempInt(). It is used to return the second
 256:.\Generated_Source\PSoC5/CyFlash.c **** *  successful read of the temperature value.
 257:.\Generated_Source\PSoC5/CyFlash.c **** *
 258:.\Generated_Source\PSoC5/CyFlash.c **** * Parameters:
 259:.\Generated_Source\PSoC5/CyFlash.c **** *  None
 260:.\Generated_Source\PSoC5/CyFlash.c **** *
 261:.\Generated_Source\PSoC5/CyFlash.c **** * Return:
 262:.\Generated_Source\PSoC5/CyFlash.c **** *  status:
 263:.\Generated_Source\PSoC5/CyFlash.c **** *   CYRET_SUCCESS if successful.
 264:.\Generated_Source\PSoC5/CyFlash.c **** *   CYRET_LOCKED  if Flash writing already in use
 265:.\Generated_Source\PSoC5/CyFlash.c **** *   CYRET_UNKNOWN if there was an SPC error.
 266:.\Generated_Source\PSoC5/CyFlash.c **** *
 267:.\Generated_Source\PSoC5/CyFlash.c **** *  uint8 dieTemperature[2]:
 268:.\Generated_Source\PSoC5/CyFlash.c **** *   Holds the die temperature for the flash writing algorithm. The first byte is
 269:.\Generated_Source\PSoC5/CyFlash.c **** *   the sign of the temperature (0 = negative, 1 = positive). The second byte is
 270:.\Generated_Source\PSoC5/CyFlash.c **** *   the magnitude.
 271:.\Generated_Source\PSoC5/CyFlash.c **** *
 272:.\Generated_Source\PSoC5/CyFlash.c **** *******************************************************************************/
 273:.\Generated_Source\PSoC5/CyFlash.c **** cystatus CySetTemp(void) 
 274:.\Generated_Source\PSoC5/CyFlash.c **** {
 313              		.loc 1 274 0
 314              		.cfi_startproc
 315              		@ args = 0, pretend = 0, frame = 0
 316              		@ frame_needed = 0, uses_anonymous_args = 0
 317 0000 08B5     		push	{r3, lr}
 318              		.cfi_def_cfa_offset 8
 319              		.cfi_offset 3, -8
ARM GAS  C:\Users\Nick\AppData\Local\Temp\ccsUcbpH.s 			page 12


 320              		.cfi_offset 14, -4
 275:.\Generated_Source\PSoC5/CyFlash.c ****     cystatus status = CyFlashGetSpcAlgorithm();
 321              		.loc 1 275 0
 322 0002 FFF7FEFF 		bl	CyFlashGetSpcAlgorithm
 323              	.LVL27:
 276:.\Generated_Source\PSoC5/CyFlash.c **** 
 277:.\Generated_Source\PSoC5/CyFlash.c ****     if(status == CYRET_SUCCESS)
 324              		.loc 1 277 0
 325 0006 0346     		mov	r3, r0
 326 0008 10B9     		cbnz	r0, .L35
 278:.\Generated_Source\PSoC5/CyFlash.c ****     {
 279:.\Generated_Source\PSoC5/CyFlash.c ****         status = CySetTempInt();
 327              		.loc 1 279 0
 328 000a FFF7FEFF 		bl	CySetTempInt
 329              	.LVL28:
 330 000e 0346     		mov	r3, r0
 331              	.LVL29:
 332              	.L35:
 280:.\Generated_Source\PSoC5/CyFlash.c ****     }
 281:.\Generated_Source\PSoC5/CyFlash.c **** 
 282:.\Generated_Source\PSoC5/CyFlash.c ****     return (status);
 283:.\Generated_Source\PSoC5/CyFlash.c **** }
 333              		.loc 1 283 0
 334 0010 1846     		mov	r0, r3
 335 0012 08BD     		pop	{r3, pc}
 336              		.cfi_endproc
 337              	.LFE4:
 338              		.size	CySetTemp, .-CySetTemp
 339              		.section	.text.CySetFlashEEBuffer,"ax",%progbits
 340              		.align	2
 341              		.global	CySetFlashEEBuffer
 342              		.thumb
 343              		.thumb_func
 344              		.type	CySetFlashEEBuffer, %function
 345              	CySetFlashEEBuffer:
 346              	.LFB5:
 284:.\Generated_Source\PSoC5/CyFlash.c **** 
 285:.\Generated_Source\PSoC5/CyFlash.c **** 
 286:.\Generated_Source\PSoC5/CyFlash.c **** /*******************************************************************************
 287:.\Generated_Source\PSoC5/CyFlash.c **** * Function Name: CySetFlashEEBuffer
 288:.\Generated_Source\PSoC5/CyFlash.c **** ********************************************************************************
 289:.\Generated_Source\PSoC5/CyFlash.c **** *
 290:.\Generated_Source\PSoC5/CyFlash.c **** * Summary:
 291:.\Generated_Source\PSoC5/CyFlash.c **** *  Sets the user supplied temporary buffer to store SPC data while performing
 292:.\Generated_Source\PSoC5/CyFlash.c **** *  Flash and EEPROM commands. This buffer is only necessary when the Flash ECC
 293:.\Generated_Source\PSoC5/CyFlash.c **** *  is disabled.
 294:.\Generated_Source\PSoC5/CyFlash.c **** *
 295:.\Generated_Source\PSoC5/CyFlash.c **** * Parameters:
 296:.\Generated_Source\PSoC5/CyFlash.c **** *  buffer:
 297:.\Generated_Source\PSoC5/CyFlash.c **** *   The address of a block of memory to store temporary memory. The size of the
 298:.\Generated_Source\PSoC5/CyFlash.c **** *   block of memory is CYDEV_FLS_ROW_SIZE + CYDEV_ECC_ROW_SIZE.
 299:.\Generated_Source\PSoC5/CyFlash.c **** *
 300:.\Generated_Source\PSoC5/CyFlash.c **** * Return:
 301:.\Generated_Source\PSoC5/CyFlash.c **** *  status:
 302:.\Generated_Source\PSoC5/CyFlash.c **** *   CYRET_SUCCESS if successful.
 303:.\Generated_Source\PSoC5/CyFlash.c **** *   CYRET_BAD_PARAM if the buffer is NULL
 304:.\Generated_Source\PSoC5/CyFlash.c **** *
ARM GAS  C:\Users\Nick\AppData\Local\Temp\ccsUcbpH.s 			page 13


 305:.\Generated_Source\PSoC5/CyFlash.c **** *******************************************************************************/
 306:.\Generated_Source\PSoC5/CyFlash.c **** cystatus CySetFlashEEBuffer(uint8 * buffer) 
 307:.\Generated_Source\PSoC5/CyFlash.c **** {
 347              		.loc 1 307 0
 348              		.cfi_startproc
 349              		@ args = 0, pretend = 0, frame = 0
 350              		@ frame_needed = 0, uses_anonymous_args = 0
 351              	.LVL30:
 352 0000 08B5     		push	{r3, lr}
 353              		.cfi_def_cfa_offset 8
 354              		.cfi_offset 3, -8
 355              		.cfi_offset 14, -4
 356              	.LVL31:
 308:.\Generated_Source\PSoC5/CyFlash.c ****     cystatus status = CYRET_SUCCESS;
 309:.\Generated_Source\PSoC5/CyFlash.c **** 
 310:.\Generated_Source\PSoC5/CyFlash.c ****     CySpcStart();
 357              		.loc 1 310 0
 358 0002 FFF7FEFF 		bl	CySpcStart
 359              	.LVL32:
 311:.\Generated_Source\PSoC5/CyFlash.c **** 
 312:.\Generated_Source\PSoC5/CyFlash.c ****     #if(CYDEV_ECC_ENABLE == 0)
 313:.\Generated_Source\PSoC5/CyFlash.c **** 
 314:.\Generated_Source\PSoC5/CyFlash.c ****         if(NULL == buffer)
 315:.\Generated_Source\PSoC5/CyFlash.c ****         {
 316:.\Generated_Source\PSoC5/CyFlash.c ****             rowBuffer = rowBuffer;
 317:.\Generated_Source\PSoC5/CyFlash.c ****             status = CYRET_BAD_PARAM;
 318:.\Generated_Source\PSoC5/CyFlash.c ****         }
 319:.\Generated_Source\PSoC5/CyFlash.c ****         else if(CySpcLock() != CYRET_SUCCESS)
 320:.\Generated_Source\PSoC5/CyFlash.c ****         {
 321:.\Generated_Source\PSoC5/CyFlash.c ****             rowBuffer = rowBuffer;
 322:.\Generated_Source\PSoC5/CyFlash.c ****             status = CYRET_LOCKED;
 323:.\Generated_Source\PSoC5/CyFlash.c ****         }
 324:.\Generated_Source\PSoC5/CyFlash.c ****         else
 325:.\Generated_Source\PSoC5/CyFlash.c ****         {
 326:.\Generated_Source\PSoC5/CyFlash.c ****             rowBuffer = buffer;
 327:.\Generated_Source\PSoC5/CyFlash.c ****             CySpcUnlock();
 328:.\Generated_Source\PSoC5/CyFlash.c ****         }
 329:.\Generated_Source\PSoC5/CyFlash.c **** 
 330:.\Generated_Source\PSoC5/CyFlash.c ****     #else
 331:.\Generated_Source\PSoC5/CyFlash.c **** 
 332:.\Generated_Source\PSoC5/CyFlash.c ****         /* To suppress warning */
 333:.\Generated_Source\PSoC5/CyFlash.c ****         buffer = buffer;
 334:.\Generated_Source\PSoC5/CyFlash.c **** 
 335:.\Generated_Source\PSoC5/CyFlash.c ****     #endif  /* (CYDEV_ECC_ENABLE == 0u) */
 336:.\Generated_Source\PSoC5/CyFlash.c **** 
 337:.\Generated_Source\PSoC5/CyFlash.c ****     return(status);
 338:.\Generated_Source\PSoC5/CyFlash.c **** }
 360              		.loc 1 338 0
 361 0006 0020     		movs	r0, #0
 362 0008 08BD     		pop	{r3, pc}
 363              		.cfi_endproc
 364              	.LFE5:
 365              		.size	CySetFlashEEBuffer, .-CySetFlashEEBuffer
 366 000a 00BF     		.section	.text.CyWriteRowFull,"ax",%progbits
 367              		.align	2
 368              		.global	CyWriteRowFull
 369              		.thumb
ARM GAS  C:\Users\Nick\AppData\Local\Temp\ccsUcbpH.s 			page 14


 370              		.thumb_func
 371              		.type	CyWriteRowFull, %function
 372              	CyWriteRowFull:
 373              	.LFB7:
 339:.\Generated_Source\PSoC5/CyFlash.c **** 
 340:.\Generated_Source\PSoC5/CyFlash.c **** 
 341:.\Generated_Source\PSoC5/CyFlash.c **** /*******************************************************************************
 342:.\Generated_Source\PSoC5/CyFlash.c **** * Function Name: CyWriteRowData
 343:.\Generated_Source\PSoC5/CyFlash.c **** ********************************************************************************
 344:.\Generated_Source\PSoC5/CyFlash.c **** *
 345:.\Generated_Source\PSoC5/CyFlash.c **** * Summary:
 346:.\Generated_Source\PSoC5/CyFlash.c **** *  Sends a command to the SPC to load and program a row of data in
 347:.\Generated_Source\PSoC5/CyFlash.c **** *  Flash or EEPROM.
 348:.\Generated_Source\PSoC5/CyFlash.c **** *
 349:.\Generated_Source\PSoC5/CyFlash.c **** * Parameters:
 350:.\Generated_Source\PSoC5/CyFlash.c **** *  arrayID:    ID of the array to write.
 351:.\Generated_Source\PSoC5/CyFlash.c **** *   The type of write, Flash or EEPROM, is determined from the array ID.
 352:.\Generated_Source\PSoC5/CyFlash.c **** *   The arrays in the part are sequential starting at the first ID for the
 353:.\Generated_Source\PSoC5/CyFlash.c **** *   specific memory type. The array ID for the Flash memory lasts from 0x00 to
 354:.\Generated_Source\PSoC5/CyFlash.c **** *   0x3F and for the EEPROM memory it lasts from 0x40 to 0x7F.
 355:.\Generated_Source\PSoC5/CyFlash.c **** *  rowAddress: rowAddress of flash row to program.
 356:.\Generated_Source\PSoC5/CyFlash.c **** *  rowData:    Array of bytes to write.
 357:.\Generated_Source\PSoC5/CyFlash.c **** *
 358:.\Generated_Source\PSoC5/CyFlash.c **** * Return:
 359:.\Generated_Source\PSoC5/CyFlash.c **** *  status:
 360:.\Generated_Source\PSoC5/CyFlash.c **** *   CYRET_SUCCESS if successful.
 361:.\Generated_Source\PSoC5/CyFlash.c **** *   CYRET_LOCKED if the SPC is already in use.
 362:.\Generated_Source\PSoC5/CyFlash.c **** *   CYRET_CANCELED if command not accepted
 363:.\Generated_Source\PSoC5/CyFlash.c **** *   CYRET_UNKNOWN if there was an SPC error.
 364:.\Generated_Source\PSoC5/CyFlash.c **** *
 365:.\Generated_Source\PSoC5/CyFlash.c **** *******************************************************************************/
 366:.\Generated_Source\PSoC5/CyFlash.c **** cystatus CyWriteRowData(uint8 arrayId, uint16 rowAddress, const uint8 * rowData) 
 367:.\Generated_Source\PSoC5/CyFlash.c **** {
 368:.\Generated_Source\PSoC5/CyFlash.c ****     uint16 rowSize;
 369:.\Generated_Source\PSoC5/CyFlash.c ****     cystatus status;
 370:.\Generated_Source\PSoC5/CyFlash.c **** 
 371:.\Generated_Source\PSoC5/CyFlash.c ****     rowSize = (arrayId > CY_SPC_LAST_FLASH_ARRAYID) ? CYDEV_EEPROM_ROW_SIZE : CYDEV_FLS_ROW_SIZE;
 372:.\Generated_Source\PSoC5/CyFlash.c ****     status = CyWriteRowFull(arrayId, rowAddress, rowData, rowSize);
 373:.\Generated_Source\PSoC5/CyFlash.c **** 
 374:.\Generated_Source\PSoC5/CyFlash.c ****     return(status);
 375:.\Generated_Source\PSoC5/CyFlash.c **** }
 376:.\Generated_Source\PSoC5/CyFlash.c **** 
 377:.\Generated_Source\PSoC5/CyFlash.c **** 
 378:.\Generated_Source\PSoC5/CyFlash.c **** /*******************************************************************
 379:.\Generated_Source\PSoC5/CyFlash.c **** * If "Enable Error Correcting Code (ECC)" and "Store Configuration
 380:.\Generated_Source\PSoC5/CyFlash.c **** * Data in ECC" DWR options are disabled, ECC section is available
 381:.\Generated_Source\PSoC5/CyFlash.c **** * for user data.
 382:.\Generated_Source\PSoC5/CyFlash.c **** *******************************************************************/
 383:.\Generated_Source\PSoC5/CyFlash.c **** #if ((CYDEV_ECC_ENABLE == 0u) && (CYDEV_CONFIGURATION_ECC == 0u))
 384:.\Generated_Source\PSoC5/CyFlash.c **** 
 385:.\Generated_Source\PSoC5/CyFlash.c ****     /*******************************************************************************
 386:.\Generated_Source\PSoC5/CyFlash.c ****     * Function Name: CyWriteRowConfig
 387:.\Generated_Source\PSoC5/CyFlash.c ****     ********************************************************************************
 388:.\Generated_Source\PSoC5/CyFlash.c ****     *
 389:.\Generated_Source\PSoC5/CyFlash.c ****     * Summary:
 390:.\Generated_Source\PSoC5/CyFlash.c ****     *  Sends a command to the SPC to load and program a row of config data in the
 391:.\Generated_Source\PSoC5/CyFlash.c ****     *  Flash. This function is only valid for Flash array IDs (not for EEPROM).
ARM GAS  C:\Users\Nick\AppData\Local\Temp\ccsUcbpH.s 			page 15


 392:.\Generated_Source\PSoC5/CyFlash.c ****     *
 393:.\Generated_Source\PSoC5/CyFlash.c ****     * Parameters:
 394:.\Generated_Source\PSoC5/CyFlash.c ****     *  arrayId:      ID of the array to write
 395:.\Generated_Source\PSoC5/CyFlash.c ****     *   The arrays in the part are sequential starting at the first ID for the
 396:.\Generated_Source\PSoC5/CyFlash.c ****     *   specific memory type. The array ID for the Flash memory lasts
 397:.\Generated_Source\PSoC5/CyFlash.c ****     *   from 0x00 to 0x3F.
 398:.\Generated_Source\PSoC5/CyFlash.c ****     *  rowAddress:   The address of the sector to erase.
 399:.\Generated_Source\PSoC5/CyFlash.c ****     *  rowECC:       The array of bytes to write.
 400:.\Generated_Source\PSoC5/CyFlash.c ****     *
 401:.\Generated_Source\PSoC5/CyFlash.c ****     * Return:
 402:.\Generated_Source\PSoC5/CyFlash.c ****     *  status:
 403:.\Generated_Source\PSoC5/CyFlash.c ****     *   CYRET_SUCCESS if successful.
 404:.\Generated_Source\PSoC5/CyFlash.c ****     *   CYRET_LOCKED if the SPC is already in use.
 405:.\Generated_Source\PSoC5/CyFlash.c ****     *   CYRET_CANCELED if command not accepted
 406:.\Generated_Source\PSoC5/CyFlash.c ****     *   CYRET_UNKNOWN if there was an SPC error.
 407:.\Generated_Source\PSoC5/CyFlash.c ****     *
 408:.\Generated_Source\PSoC5/CyFlash.c ****     *******************************************************************************/
 409:.\Generated_Source\PSoC5/CyFlash.c ****     cystatus CyWriteRowConfig(uint8 arrayId, uint16 rowAddress, const uint8 * rowECC)\
 410:.\Generated_Source\PSoC5/CyFlash.c ****     
 411:.\Generated_Source\PSoC5/CyFlash.c ****     {
 412:.\Generated_Source\PSoC5/CyFlash.c ****         cystatus status;
 413:.\Generated_Source\PSoC5/CyFlash.c **** 
 414:.\Generated_Source\PSoC5/CyFlash.c ****         status = CyWriteRowFull(arrayId, rowAddress, rowECC, CYDEV_ECC_ROW_SIZE);
 415:.\Generated_Source\PSoC5/CyFlash.c **** 
 416:.\Generated_Source\PSoC5/CyFlash.c ****         return (status);
 417:.\Generated_Source\PSoC5/CyFlash.c ****     }
 418:.\Generated_Source\PSoC5/CyFlash.c **** 
 419:.\Generated_Source\PSoC5/CyFlash.c **** #endif  /* ((CYDEV_ECC_ENABLE == 0u) && (CYDEV_CONFIGURATION_ECC == 0u)) */
 420:.\Generated_Source\PSoC5/CyFlash.c **** 
 421:.\Generated_Source\PSoC5/CyFlash.c **** 
 422:.\Generated_Source\PSoC5/CyFlash.c **** 
 423:.\Generated_Source\PSoC5/CyFlash.c **** /*******************************************************************************
 424:.\Generated_Source\PSoC5/CyFlash.c **** * Function Name: CyWriteRowFull
 425:.\Generated_Source\PSoC5/CyFlash.c **** ********************************************************************************
 426:.\Generated_Source\PSoC5/CyFlash.c **** * Summary:
 427:.\Generated_Source\PSoC5/CyFlash.c **** *  Sends a command to the SPC to load and program a row of data in the Flash.
 428:.\Generated_Source\PSoC5/CyFlash.c **** *  rowData array is expected to contain Flash and ECC data if needed.
 429:.\Generated_Source\PSoC5/CyFlash.c **** *
 430:.\Generated_Source\PSoC5/CyFlash.c **** * Parameters:
 431:.\Generated_Source\PSoC5/CyFlash.c **** *  arrayId:    FLASH or EEPROM array id.
 432:.\Generated_Source\PSoC5/CyFlash.c **** *  rowData:    Pointer to a row of data to write.
 433:.\Generated_Source\PSoC5/CyFlash.c **** *  rowNumber:  Zero based number of the row.
 434:.\Generated_Source\PSoC5/CyFlash.c **** *  rowSize:    Size of the row.
 435:.\Generated_Source\PSoC5/CyFlash.c **** *
 436:.\Generated_Source\PSoC5/CyFlash.c **** * Return:
 437:.\Generated_Source\PSoC5/CyFlash.c **** *  CYRET_SUCCESS if successful.
 438:.\Generated_Source\PSoC5/CyFlash.c **** *  CYRET_LOCKED if the SPC is already in use.
 439:.\Generated_Source\PSoC5/CyFlash.c **** *  CYRET_CANCELED if command not accepted
 440:.\Generated_Source\PSoC5/CyFlash.c **** *  CYRET_UNKNOWN if there was an SPC error.
 441:.\Generated_Source\PSoC5/CyFlash.c **** *
 442:.\Generated_Source\PSoC5/CyFlash.c **** *******************************************************************************/
 443:.\Generated_Source\PSoC5/CyFlash.c **** cystatus CyWriteRowFull(uint8 arrayId, uint16 rowNumber, const uint8* rowData, uint16 rowSize) \
 444:.\Generated_Source\PSoC5/CyFlash.c ****         
 445:.\Generated_Source\PSoC5/CyFlash.c **** {
 374              		.loc 1 445 0
 375              		.cfi_startproc
 376              		@ args = 0, pretend = 0, frame = 0
ARM GAS  C:\Users\Nick\AppData\Local\Temp\ccsUcbpH.s 			page 16


 377              		@ frame_needed = 0, uses_anonymous_args = 0
 378              	.LVL33:
 379 0000 2DE9F041 		push	{r4, r5, r6, r7, r8, lr}
 380              		.cfi_def_cfa_offset 24
 381              		.cfi_offset 4, -24
 382              		.cfi_offset 5, -20
 383              		.cfi_offset 6, -16
 384              		.cfi_offset 7, -12
 385              		.cfi_offset 8, -8
 386              		.cfi_offset 14, -4
 387 0004 0546     		mov	r5, r0
 388 0006 0E46     		mov	r6, r1
 389 0008 1746     		mov	r7, r2
 390 000a 9846     		mov	r8, r3
 391              	.LVL34:
 446:.\Generated_Source\PSoC5/CyFlash.c ****     cystatus status = CYRET_SUCCESS;
 447:.\Generated_Source\PSoC5/CyFlash.c **** 
 448:.\Generated_Source\PSoC5/CyFlash.c ****     if((arrayId <=  CY_SPC_LAST_FLASH_ARRAYID) && (arrayId > (CY_FLASH_NUMBER_ARRAYS  + CY_SPC_FIRS
 392              		.loc 1 448 0
 393 000c 421F     		subs	r2, r0, #5
 394              	.LVL35:
 395 000e D2B2     		uxtb	r2, r2
 396 0010 3A2A     		cmp	r2, #58
 397 0012 01D9     		bls	.L52
 446:.\Generated_Source\PSoC5/CyFlash.c ****     cystatus status = CYRET_SUCCESS;
 398              		.loc 1 446 0
 399 0014 0024     		movs	r4, #0
 400 0016 00E0     		b	.L38
 401              	.L52:
 449:.\Generated_Source\PSoC5/CyFlash.c ****     {
 450:.\Generated_Source\PSoC5/CyFlash.c ****         status = CYRET_BAD_PARAM;
 402              		.loc 1 450 0
 403 0018 0124     		movs	r4, #1
 404              	.L38:
 405              	.LVL36:
 451:.\Generated_Source\PSoC5/CyFlash.c ****     }
 452:.\Generated_Source\PSoC5/CyFlash.c **** 
 453:.\Generated_Source\PSoC5/CyFlash.c ****     if(arrayId > CY_SPC_LAST_EE_ARRAYID)
 406              		.loc 1 453 0
 407 001a 15F0800F 		tst	r5, #128
 408 001e 00D0     		beq	.L39
 454:.\Generated_Source\PSoC5/CyFlash.c ****     {
 455:.\Generated_Source\PSoC5/CyFlash.c ****         status = CYRET_BAD_PARAM;
 409              		.loc 1 455 0
 410 0020 0124     		movs	r4, #1
 411              	.LVL37:
 412              	.L39:
 456:.\Generated_Source\PSoC5/CyFlash.c ****     }
 457:.\Generated_Source\PSoC5/CyFlash.c **** 
 458:.\Generated_Source\PSoC5/CyFlash.c ****     if((arrayId >= CY_SPC_FIRST_EE_ARRAYID) && (arrayId > (CY_FLASH_EEPROM_NUMBER_ARRAYS + CY_SPC_F
 413              		.loc 1 458 0
 414 0022 412D     		cmp	r5, #65
 415 0024 00D9     		bls	.L40
 459:.\Generated_Source\PSoC5/CyFlash.c ****     {
 460:.\Generated_Source\PSoC5/CyFlash.c ****         status = CYRET_BAD_PARAM;
 416              		.loc 1 460 0
 417 0026 0124     		movs	r4, #1
ARM GAS  C:\Users\Nick\AppData\Local\Temp\ccsUcbpH.s 			page 17


 418              	.LVL38:
 419              	.L40:
 461:.\Generated_Source\PSoC5/CyFlash.c ****     }
 462:.\Generated_Source\PSoC5/CyFlash.c **** 
 463:.\Generated_Source\PSoC5/CyFlash.c ****     if(arrayId <=  CY_SPC_LAST_FLASH_ARRAYID)
 420              		.loc 1 463 0
 421 0028 3F2D     		cmp	r5, #63
 422 002a 03D8     		bhi	.L41
 464:.\Generated_Source\PSoC5/CyFlash.c ****     {
 465:.\Generated_Source\PSoC5/CyFlash.c ****         /* Flash */
 466:.\Generated_Source\PSoC5/CyFlash.c ****         if(rowNumber > (CY_FLASH_NUMBER_ROWS/CY_FLASH_NUMBER_ARRAYS))
 423              		.loc 1 466 0
 424 002c B6F5807F 		cmp	r6, #256
 425 0030 07D8     		bhi	.L55
 426 0032 09E0     		b	.L42
 427              	.L41:
 467:.\Generated_Source\PSoC5/CyFlash.c ****         {
 468:.\Generated_Source\PSoC5/CyFlash.c ****             status = CYRET_BAD_PARAM;
 469:.\Generated_Source\PSoC5/CyFlash.c ****         }
 470:.\Generated_Source\PSoC5/CyFlash.c ****     }
 471:.\Generated_Source\PSoC5/CyFlash.c ****     else
 472:.\Generated_Source\PSoC5/CyFlash.c ****     {
 473:.\Generated_Source\PSoC5/CyFlash.c ****         /* EEPROM */
 474:.\Generated_Source\PSoC5/CyFlash.c ****         if(rowNumber > (CY_EEPROM_NUMBER_ROWS/CY_FLASH_EEPROM_NUMBER_ARRAYS))
 428              		.loc 1 474 0
 429 0034 802E     		cmp	r6, #128
 430 0036 00D9     		bls	.L43
 475:.\Generated_Source\PSoC5/CyFlash.c ****         {
 476:.\Generated_Source\PSoC5/CyFlash.c ****             status = CYRET_BAD_PARAM;
 431              		.loc 1 476 0
 432 0038 0124     		movs	r4, #1
 433              	.LVL39:
 434              	.L43:
 477:.\Generated_Source\PSoC5/CyFlash.c ****         }
 478:.\Generated_Source\PSoC5/CyFlash.c **** 
 479:.\Generated_Source\PSoC5/CyFlash.c ****         if(CY_EEPROM_SIZEOF_ROW != rowSize)
 435              		.loc 1 479 0
 436 003a B8F1100F 		cmp	r8, #16
 437 003e 02D1     		bne	.L57
 438 0040 02E0     		b	.L42
 439              	.L55:
 468:.\Generated_Source\PSoC5/CyFlash.c ****             status = CYRET_BAD_PARAM;
 440              		.loc 1 468 0
 441 0042 0124     		movs	r4, #1
 442              	.LVL40:
 443 0044 00E0     		b	.L42
 444              	.LVL41:
 445              	.L57:
 480:.\Generated_Source\PSoC5/CyFlash.c ****         {
 481:.\Generated_Source\PSoC5/CyFlash.c ****             status = CYRET_BAD_PARAM;
 446              		.loc 1 481 0
 447 0046 0124     		movs	r4, #1
 448              	.LVL42:
 449              	.L42:
 482:.\Generated_Source\PSoC5/CyFlash.c ****         }
 483:.\Generated_Source\PSoC5/CyFlash.c ****     }
 484:.\Generated_Source\PSoC5/CyFlash.c **** 
ARM GAS  C:\Users\Nick\AppData\Local\Temp\ccsUcbpH.s 			page 18


 485:.\Generated_Source\PSoC5/CyFlash.c ****     if(rowData == NULL)
 450              		.loc 1 485 0
 451 0048 07B9     		cbnz	r7, .L44
 486:.\Generated_Source\PSoC5/CyFlash.c ****     {
 487:.\Generated_Source\PSoC5/CyFlash.c ****         status = CYRET_BAD_PARAM;
 452              		.loc 1 487 0
 453 004a 0124     		movs	r4, #1
 454              	.LVL43:
 455              	.L44:
 488:.\Generated_Source\PSoC5/CyFlash.c ****     }
 489:.\Generated_Source\PSoC5/CyFlash.c **** 
 490:.\Generated_Source\PSoC5/CyFlash.c **** 
 491:.\Generated_Source\PSoC5/CyFlash.c ****     if(status == CYRET_SUCCESS)
 456              		.loc 1 491 0
 457 004c 002C     		cmp	r4, #0
 458 004e 51D1     		bne	.L45
 492:.\Generated_Source\PSoC5/CyFlash.c ****     {
 493:.\Generated_Source\PSoC5/CyFlash.c ****         if(CySpcLock() == CYRET_SUCCESS)
 459              		.loc 1 493 0
 460 0050 FFF7FEFF 		bl	CySpcLock
 461              	.LVL44:
 462 0054 0028     		cmp	r0, #0
 463 0056 4CD1     		bne	.L59
 494:.\Generated_Source\PSoC5/CyFlash.c ****         {
 495:.\Generated_Source\PSoC5/CyFlash.c ****             /* Load row data into SPC internal latch */
 496:.\Generated_Source\PSoC5/CyFlash.c ****             status = CySpcLoadRowFull(arrayId, rowNumber, rowData, rowSize);
 464              		.loc 1 496 0
 465 0058 2846     		mov	r0, r5
 466 005a 3146     		mov	r1, r6
 467 005c 3A46     		mov	r2, r7
 468 005e 4346     		mov	r3, r8
 469 0060 FFF7FEFF 		bl	CySpcLoadRowFull
 470              	.LVL45:
 471 0064 0746     		mov	r7, r0
 472              	.LVL46:
 497:.\Generated_Source\PSoC5/CyFlash.c **** 
 498:.\Generated_Source\PSoC5/CyFlash.c ****             if(CYRET_STARTED == status)
 473              		.loc 1 498 0
 474 0066 0728     		cmp	r0, #7
 475 0068 3FD1     		bne	.L47
 476 006a 03E0     		b	.L46
 477              	.LVL47:
 478              	.L48:
 499:.\Generated_Source\PSoC5/CyFlash.c ****             {
 500:.\Generated_Source\PSoC5/CyFlash.c ****                 while(CY_SPC_BUSY)
 501:.\Generated_Source\PSoC5/CyFlash.c ****                 {
 502:.\Generated_Source\PSoC5/CyFlash.c ****                     /* Wait for SPC to finish and get SPC status */
 503:.\Generated_Source\PSoC5/CyFlash.c ****                     CyDelayUs(1u);
 479              		.loc 1 503 0
 480 006c 4046     		mov	r0, r8
 481 006e FFF7FEFF 		bl	CyDelayUs
 482              	.LVL48:
 483 0072 02E0     		b	.L63
 484              	.LVL49:
 485              	.L46:
 500:.\Generated_Source\PSoC5/CyFlash.c ****                 while(CY_SPC_BUSY)
 486              		.loc 1 500 0 discriminator 1
ARM GAS  C:\Users\Nick\AppData\Local\Temp\ccsUcbpH.s 			page 19


 487 0074 214F     		ldr	r7, .L65
 488              		.loc 1 503 0 discriminator 1
 489 0076 4FF00108 		mov	r8, #1
 490              	.LVL50:
 491              	.L63:
 500:.\Generated_Source\PSoC5/CyFlash.c ****                 while(CY_SPC_BUSY)
 492              		.loc 1 500 0 discriminator 1
 493 007a 3B78     		ldrb	r3, [r7]	@ zero_extendqisi2
 494 007c 13F0020F 		tst	r3, #2
 495 0080 F4D0     		beq	.L48
 504:.\Generated_Source\PSoC5/CyFlash.c ****                 }
 505:.\Generated_Source\PSoC5/CyFlash.c **** 
 506:.\Generated_Source\PSoC5/CyFlash.c ****                 /* Hide SPC status */
 507:.\Generated_Source\PSoC5/CyFlash.c ****                 if(CY_SPC_STATUS_SUCCESS == CY_SPC_READ_STATUS)
 496              		.loc 1 507 0
 497 0082 1E4B     		ldr	r3, .L65
 498 0084 1B78     		ldrb	r3, [r3]	@ zero_extendqisi2
 499 0086 13F0020F 		tst	r3, #2
 500 008a 06D0     		beq	.L60
 501              		.loc 1 507 0 is_stmt 0 discriminator 1
 502 008c 1B4B     		ldr	r3, .L65
 503 008e 1B78     		ldrb	r3, [r3]	@ zero_extendqisi2
 504 0090 9B08     		lsrs	r3, r3, #2
 505 0092 05D0     		beq	.L61
 508:.\Generated_Source\PSoC5/CyFlash.c ****                 {
 509:.\Generated_Source\PSoC5/CyFlash.c ****                     status = CYRET_SUCCESS;
 510:.\Generated_Source\PSoC5/CyFlash.c ****                 }
 511:.\Generated_Source\PSoC5/CyFlash.c ****                 else
 512:.\Generated_Source\PSoC5/CyFlash.c ****                 {
 513:.\Generated_Source\PSoC5/CyFlash.c ****                     status = CYRET_UNKNOWN;
 506              		.loc 1 513 0 is_stmt 1
 507 0094 4FF0FF37 		mov	r7, #-1
 508 0098 03E0     		b	.L49
 509              	.L60:
 510 009a 4FF0FF37 		mov	r7, #-1
 511 009e 00E0     		b	.L49
 512              	.L61:
 509:.\Generated_Source\PSoC5/CyFlash.c ****                     status = CYRET_SUCCESS;
 513              		.loc 1 509 0
 514 00a0 2746     		mov	r7, r4
 515              	.L49:
 516              	.LVL51:
 514:.\Generated_Source\PSoC5/CyFlash.c ****                 }
 515:.\Generated_Source\PSoC5/CyFlash.c **** 
 516:.\Generated_Source\PSoC5/CyFlash.c ****                 if(CYRET_SUCCESS == status)
 517              		.loc 1 516 0
 518 00a2 17BB     		cbnz	r7, .L47
 517:.\Generated_Source\PSoC5/CyFlash.c ****                 {
 518:.\Generated_Source\PSoC5/CyFlash.c ****                     /* Erase and program flash with data from SPC interval latch */
 519:.\Generated_Source\PSoC5/CyFlash.c ****                     status = CySpcWriteRow(arrayId, rowNumber, dieTemperature[0u], dieTemperature[1
 519              		.loc 1 519 0
 520 00a4 164B     		ldr	r3, .L65+4
 521 00a6 2846     		mov	r0, r5
 522 00a8 3146     		mov	r1, r6
 523 00aa 1A78     		ldrb	r2, [r3]	@ zero_extendqisi2
 524 00ac 5B78     		ldrb	r3, [r3, #1]	@ zero_extendqisi2
 525 00ae FFF7FEFF 		bl	CySpcWriteRow
ARM GAS  C:\Users\Nick\AppData\Local\Temp\ccsUcbpH.s 			page 20


 526              	.LVL52:
 520:.\Generated_Source\PSoC5/CyFlash.c **** 
 521:.\Generated_Source\PSoC5/CyFlash.c ****                     if(CYRET_STARTED == status)
 527              		.loc 1 521 0
 528 00b2 0728     		cmp	r0, #7
 529 00b4 05D0     		beq	.L50
 519:.\Generated_Source\PSoC5/CyFlash.c ****                     status = CySpcWriteRow(arrayId, rowNumber, dieTemperature[0u], dieTemperature[1
 530              		.loc 1 519 0
 531 00b6 0746     		mov	r7, r0
 532 00b8 17E0     		b	.L47
 533              	.LVL53:
 534              	.L51:
 522:.\Generated_Source\PSoC5/CyFlash.c ****                     {
 523:.\Generated_Source\PSoC5/CyFlash.c ****                         while(CY_SPC_BUSY)
 524:.\Generated_Source\PSoC5/CyFlash.c ****                         {
 525:.\Generated_Source\PSoC5/CyFlash.c ****                             /* Wait for SPC to finish and get SPC status */
 526:.\Generated_Source\PSoC5/CyFlash.c ****                             CyDelayUs(1u);
 535              		.loc 1 526 0
 536 00ba 2846     		mov	r0, r5
 537 00bc FFF7FEFF 		bl	CyDelayUs
 538              	.LVL54:
 539 00c0 01E0     		b	.L64
 540              	.LVL55:
 541              	.L50:
 523:.\Generated_Source\PSoC5/CyFlash.c ****                         while(CY_SPC_BUSY)
 542              		.loc 1 523 0 discriminator 1
 543 00c2 0E4C     		ldr	r4, .L65
 544              		.loc 1 526 0 discriminator 1
 545 00c4 0125     		movs	r5, #1
 546              	.LVL56:
 547              	.L64:
 523:.\Generated_Source\PSoC5/CyFlash.c ****                         while(CY_SPC_BUSY)
 548              		.loc 1 523 0 discriminator 1
 549 00c6 2378     		ldrb	r3, [r4]	@ zero_extendqisi2
 550 00c8 13F0020F 		tst	r3, #2
 551 00cc F5D0     		beq	.L51
 527:.\Generated_Source\PSoC5/CyFlash.c ****                         }
 528:.\Generated_Source\PSoC5/CyFlash.c **** 
 529:.\Generated_Source\PSoC5/CyFlash.c ****                         /* Hide SPC status */
 530:.\Generated_Source\PSoC5/CyFlash.c ****                         if(CY_SPC_STATUS_SUCCESS == CY_SPC_READ_STATUS)
 552              		.loc 1 530 0
 553 00ce 0B4B     		ldr	r3, .L65
 554 00d0 1B78     		ldrb	r3, [r3]	@ zero_extendqisi2
 555 00d2 13F0020F 		tst	r3, #2
 556 00d6 06D0     		beq	.L62
 557              		.loc 1 530 0 is_stmt 0 discriminator 1
 558 00d8 084B     		ldr	r3, .L65
 559 00da 1B78     		ldrb	r3, [r3]	@ zero_extendqisi2
 560 00dc 9B08     		lsrs	r3, r3, #2
 561 00de 04D0     		beq	.L47
 531:.\Generated_Source\PSoC5/CyFlash.c ****                         {
 532:.\Generated_Source\PSoC5/CyFlash.c ****                             status = CYRET_SUCCESS;
 533:.\Generated_Source\PSoC5/CyFlash.c ****                         }
 534:.\Generated_Source\PSoC5/CyFlash.c ****                         else
 535:.\Generated_Source\PSoC5/CyFlash.c ****                         {
 536:.\Generated_Source\PSoC5/CyFlash.c ****                             status = CYRET_UNKNOWN;
 562              		.loc 1 536 0 is_stmt 1
ARM GAS  C:\Users\Nick\AppData\Local\Temp\ccsUcbpH.s 			page 21


 563 00e0 4FF0FF37 		mov	r7, #-1
 564 00e4 01E0     		b	.L47
 565              	.L62:
 566 00e6 4FF0FF37 		mov	r7, #-1
 567              	.L47:
 568              	.LVL57:
 537:.\Generated_Source\PSoC5/CyFlash.c ****                         }
 538:.\Generated_Source\PSoC5/CyFlash.c ****                     }
 539:.\Generated_Source\PSoC5/CyFlash.c ****                 }
 540:.\Generated_Source\PSoC5/CyFlash.c ****             }
 541:.\Generated_Source\PSoC5/CyFlash.c ****             CySpcUnlock();
 569              		.loc 1 541 0
 570 00ea FFF7FEFF 		bl	CySpcUnlock
 571              	.LVL58:
 572 00ee 3C46     		mov	r4, r7
 573 00f0 00E0     		b	.L45
 574              	.LVL59:
 575              	.L59:
 542:.\Generated_Source\PSoC5/CyFlash.c ****         }   /* if(CySpcLock() == CYRET_SUCCESS) */
 543:.\Generated_Source\PSoC5/CyFlash.c ****         else
 544:.\Generated_Source\PSoC5/CyFlash.c ****         {
 545:.\Generated_Source\PSoC5/CyFlash.c ****             status = CYRET_LOCKED;
 576              		.loc 1 545 0
 577 00f2 0424     		movs	r4, #4
 578              	.LVL60:
 579              	.L45:
 546:.\Generated_Source\PSoC5/CyFlash.c ****         }
 547:.\Generated_Source\PSoC5/CyFlash.c ****     }
 548:.\Generated_Source\PSoC5/CyFlash.c **** 
 549:.\Generated_Source\PSoC5/CyFlash.c ****     return(status);
 550:.\Generated_Source\PSoC5/CyFlash.c **** }
 580              		.loc 1 550 0
 581 00f4 2046     		mov	r0, r4
 582 00f6 BDE8F081 		pop	{r4, r5, r6, r7, r8, pc}
 583              	.LVL61:
 584              	.L66:
 585 00fa 00BF     		.align	2
 586              	.L65:
 587 00fc 22470040 		.word	1073760034
 588 0100 00000000 		.word	dieTemperature
 589              		.cfi_endproc
 590              	.LFE7:
 591              		.size	CyWriteRowFull, .-CyWriteRowFull
 592              		.section	.text.CyWriteRowData,"ax",%progbits
 593              		.align	2
 594              		.global	CyWriteRowData
 595              		.thumb
 596              		.thumb_func
 597              		.type	CyWriteRowData, %function
 598              	CyWriteRowData:
 599              	.LFB6:
 367:.\Generated_Source\PSoC5/CyFlash.c **** {
 600              		.loc 1 367 0
 601              		.cfi_startproc
 602              		@ args = 0, pretend = 0, frame = 0
 603              		@ frame_needed = 0, uses_anonymous_args = 0
 604              	.LVL62:
ARM GAS  C:\Users\Nick\AppData\Local\Temp\ccsUcbpH.s 			page 22


 605 0000 08B5     		push	{r3, lr}
 606              		.cfi_def_cfa_offset 8
 607              		.cfi_offset 3, -8
 608              		.cfi_offset 14, -4
 371:.\Generated_Source\PSoC5/CyFlash.c ****     rowSize = (arrayId > CY_SPC_LAST_FLASH_ARRAYID) ? CYDEV_EEPROM_ROW_SIZE : CYDEV_FLS_ROW_SIZE;
 609              		.loc 1 371 0
 610 0002 3F28     		cmp	r0, #63
 611 0004 01D9     		bls	.L69
 612 0006 1023     		movs	r3, #16
 613 0008 01E0     		b	.L68
 614              	.L69:
 615 000a 4FF48073 		mov	r3, #256
 616              	.L68:
 617              	.LVL63:
 372:.\Generated_Source\PSoC5/CyFlash.c ****     status = CyWriteRowFull(arrayId, rowAddress, rowData, rowSize);
 618              		.loc 1 372 0 discriminator 3
 619 000e FFF7FEFF 		bl	CyWriteRowFull
 620              	.LVL64:
 375:.\Generated_Source\PSoC5/CyFlash.c **** }
 621              		.loc 1 375 0 discriminator 3
 622 0012 08BD     		pop	{r3, pc}
 623              		.cfi_endproc
 624              	.LFE6:
 625              		.size	CyWriteRowData, .-CyWriteRowData
 626              		.section	.text.CyFlash_SetWaitCycles,"ax",%progbits
 627              		.align	2
 628              		.global	CyFlash_SetWaitCycles
 629              		.thumb
 630              		.thumb_func
 631              		.type	CyFlash_SetWaitCycles, %function
 632              	CyFlash_SetWaitCycles:
 633              	.LFB8:
 551:.\Generated_Source\PSoC5/CyFlash.c **** 
 552:.\Generated_Source\PSoC5/CyFlash.c **** 
 553:.\Generated_Source\PSoC5/CyFlash.c **** /*******************************************************************************
 554:.\Generated_Source\PSoC5/CyFlash.c **** * Function Name: CyFlash_SetWaitCycles
 555:.\Generated_Source\PSoC5/CyFlash.c **** ********************************************************************************
 556:.\Generated_Source\PSoC5/CyFlash.c **** *
 557:.\Generated_Source\PSoC5/CyFlash.c **** * Summary:
 558:.\Generated_Source\PSoC5/CyFlash.c **** *  Sets the number of clock cycles the cache will wait before it samples data
 559:.\Generated_Source\PSoC5/CyFlash.c **** *  coming back from the Flash. This function must be called before increasing
 560:.\Generated_Source\PSoC5/CyFlash.c **** *  the CPU clock frequency. It can optionally be called after lowering the CPU
 561:.\Generated_Source\PSoC5/CyFlash.c **** *  clock frequency in order to improve the CPU performance.
 562:.\Generated_Source\PSoC5/CyFlash.c **** *
 563:.\Generated_Source\PSoC5/CyFlash.c **** * Parameters:
 564:.\Generated_Source\PSoC5/CyFlash.c **** *  uint8 freq:
 565:.\Generated_Source\PSoC5/CyFlash.c **** *   Frequency of operation in Megahertz.
 566:.\Generated_Source\PSoC5/CyFlash.c **** *
 567:.\Generated_Source\PSoC5/CyFlash.c **** * Return:
 568:.\Generated_Source\PSoC5/CyFlash.c **** *  None
 569:.\Generated_Source\PSoC5/CyFlash.c **** *
 570:.\Generated_Source\PSoC5/CyFlash.c **** *******************************************************************************/
 571:.\Generated_Source\PSoC5/CyFlash.c **** void CyFlash_SetWaitCycles(uint8 freq) 
 572:.\Generated_Source\PSoC5/CyFlash.c **** {
 634              		.loc 1 572 0
 635              		.cfi_startproc
 636              		@ args = 0, pretend = 0, frame = 0
ARM GAS  C:\Users\Nick\AppData\Local\Temp\ccsUcbpH.s 			page 23


 637              		@ frame_needed = 0, uses_anonymous_args = 0
 638              	.LVL65:
 639 0000 38B5     		push	{r3, r4, r5, lr}
 640              		.cfi_def_cfa_offset 16
 641              		.cfi_offset 3, -16
 642              		.cfi_offset 4, -12
 643              		.cfi_offset 5, -8
 644              		.cfi_offset 14, -4
 645 0002 0446     		mov	r4, r0
 573:.\Generated_Source\PSoC5/CyFlash.c ****     uint8 interruptState;
 574:.\Generated_Source\PSoC5/CyFlash.c **** 
 575:.\Generated_Source\PSoC5/CyFlash.c ****     /* Save current global interrupt enable and disable it */
 576:.\Generated_Source\PSoC5/CyFlash.c ****     interruptState = CyEnterCriticalSection();
 646              		.loc 1 576 0
 647 0004 FFF7FEFF 		bl	CyEnterCriticalSection
 648              	.LVL66:
 649 0008 0546     		mov	r5, r0
 650              	.LVL67:
 577:.\Generated_Source\PSoC5/CyFlash.c **** 
 578:.\Generated_Source\PSoC5/CyFlash.c ****     /***************************************************************************
 579:.\Generated_Source\PSoC5/CyFlash.c ****     * The number of clock cycles the cache will wait before it samples data
 580:.\Generated_Source\PSoC5/CyFlash.c ****     * coming back from the Flash must be equal or greater to to the CPU frequency
 581:.\Generated_Source\PSoC5/CyFlash.c ****     * outlined in clock cycles.
 582:.\Generated_Source\PSoC5/CyFlash.c ****     ***************************************************************************/
 583:.\Generated_Source\PSoC5/CyFlash.c **** 
 584:.\Generated_Source\PSoC5/CyFlash.c ****     if (freq < CY_FLASH_CACHE_WS_1_FREQ_MAX)
 651              		.loc 1 584 0
 652 000a 0F2C     		cmp	r4, #15
 653 000c 07D8     		bhi	.L71
 585:.\Generated_Source\PSoC5/CyFlash.c ****     {
 586:.\Generated_Source\PSoC5/CyFlash.c ****         CY_FLASH_CONTROL_REG = (CY_FLASH_CONTROL_REG & (uint8)(~CY_FLASH_CACHE_WS_VALUE_MASK)) |
 654              		.loc 1 586 0
 655 000e 1A4B     		ldr	r3, .L77
 656 0010 1A78     		ldrb	r2, [r3]	@ zero_extendqisi2
 657 0012 02F01F02 		and	r2, r2, #31
 658 0016 42F04002 		orr	r2, r2, #64
 659 001a 1A70     		strb	r2, [r3]
 660 001c 28E0     		b	.L72
 661              	.L71:
 587:.\Generated_Source\PSoC5/CyFlash.c ****                                     CY_FLASH_CACHE_WS_1_VALUE_MASK;
 588:.\Generated_Source\PSoC5/CyFlash.c ****     }
 589:.\Generated_Source\PSoC5/CyFlash.c ****     else if (freq < CY_FLASH_CACHE_WS_2_FREQ_MAX)
 662              		.loc 1 589 0
 663 001e 202C     		cmp	r4, #32
 664 0020 07D8     		bhi	.L73
 590:.\Generated_Source\PSoC5/CyFlash.c ****     {
 591:.\Generated_Source\PSoC5/CyFlash.c ****         CY_FLASH_CONTROL_REG = (CY_FLASH_CONTROL_REG & (uint8)(~CY_FLASH_CACHE_WS_VALUE_MASK)) |
 665              		.loc 1 591 0
 666 0022 154B     		ldr	r3, .L77
 667 0024 1A78     		ldrb	r2, [r3]	@ zero_extendqisi2
 668 0026 02F01F02 		and	r2, r2, #31
 669 002a 42F08002 		orr	r2, r2, #128
 670 002e 1A70     		strb	r2, [r3]
 671 0030 1EE0     		b	.L72
 672              	.L73:
 592:.\Generated_Source\PSoC5/CyFlash.c ****                                     CY_FLASH_CACHE_WS_2_VALUE_MASK;
 593:.\Generated_Source\PSoC5/CyFlash.c ****     }
ARM GAS  C:\Users\Nick\AppData\Local\Temp\ccsUcbpH.s 			page 24


 594:.\Generated_Source\PSoC5/CyFlash.c ****     else if (freq < CY_FLASH_CACHE_WS_3_FREQ_MAX)
 673              		.loc 1 594 0
 674 0032 312C     		cmp	r4, #49
 675 0034 07D8     		bhi	.L74
 595:.\Generated_Source\PSoC5/CyFlash.c ****     {
 596:.\Generated_Source\PSoC5/CyFlash.c ****         CY_FLASH_CONTROL_REG = (CY_FLASH_CONTROL_REG & (uint8)(~CY_FLASH_CACHE_WS_VALUE_MASK)) |
 676              		.loc 1 596 0
 677 0036 104B     		ldr	r3, .L77
 678 0038 1A78     		ldrb	r2, [r3]	@ zero_extendqisi2
 679 003a 02F01F02 		and	r2, r2, #31
 680 003e 42F0C002 		orr	r2, r2, #192
 681 0042 1A70     		strb	r2, [r3]
 682 0044 14E0     		b	.L72
 683              	.L74:
 597:.\Generated_Source\PSoC5/CyFlash.c ****                                     CY_FLASH_CACHE_WS_3_VALUE_MASK;
 598:.\Generated_Source\PSoC5/CyFlash.c ****     }
 599:.\Generated_Source\PSoC5/CyFlash.c **** #if (CY_PSOC5)
 600:.\Generated_Source\PSoC5/CyFlash.c ****     else if (freq < CY_FLASH_CACHE_WS_4_FREQ_MAX)
 684              		.loc 1 600 0
 685 0046 422C     		cmp	r4, #66
 686 0048 05D8     		bhi	.L75
 601:.\Generated_Source\PSoC5/CyFlash.c ****     {
 602:.\Generated_Source\PSoC5/CyFlash.c ****         CY_FLASH_CONTROL_REG = (CY_FLASH_CONTROL_REG & (uint8)(~CY_FLASH_CACHE_WS_VALUE_MASK)) |
 687              		.loc 1 602 0
 688 004a 0B4B     		ldr	r3, .L77
 689 004c 1A78     		ldrb	r2, [r3]	@ zero_extendqisi2
 690 004e 02F01F02 		and	r2, r2, #31
 691 0052 1A70     		strb	r2, [r3]
 692 0054 0CE0     		b	.L72
 693              	.L75:
 603:.\Generated_Source\PSoC5/CyFlash.c ****                                     CY_FLASH_CACHE_WS_4_VALUE_MASK;
 604:.\Generated_Source\PSoC5/CyFlash.c ****     }
 605:.\Generated_Source\PSoC5/CyFlash.c ****     else if (freq <= CY_FLASH_CACHE_WS_5_FREQ_MAX)
 694              		.loc 1 605 0
 695 0056 532C     		cmp	r4, #83
 696 0058 07D8     		bhi	.L76
 606:.\Generated_Source\PSoC5/CyFlash.c ****     {
 607:.\Generated_Source\PSoC5/CyFlash.c ****         CY_FLASH_CONTROL_REG = (CY_FLASH_CONTROL_REG & (uint8)(~CY_FLASH_CACHE_WS_VALUE_MASK)) |
 697              		.loc 1 607 0
 698 005a 074B     		ldr	r3, .L77
 699 005c 1A78     		ldrb	r2, [r3]	@ zero_extendqisi2
 700 005e 02F01F02 		and	r2, r2, #31
 701 0062 42F02002 		orr	r2, r2, #32
 702 0066 1A70     		strb	r2, [r3]
 703 0068 02E0     		b	.L72
 704              	.L76:
 608:.\Generated_Source\PSoC5/CyFlash.c ****                                     CY_FLASH_CACHE_WS_5_VALUE_MASK;
 609:.\Generated_Source\PSoC5/CyFlash.c ****     }
 610:.\Generated_Source\PSoC5/CyFlash.c **** #endif  /* (CY_PSOC5) */
 611:.\Generated_Source\PSoC5/CyFlash.c ****     else
 612:.\Generated_Source\PSoC5/CyFlash.c ****     {
 613:.\Generated_Source\PSoC5/CyFlash.c ****         /* Halt CPU in debug mode if frequency is invalid */
 614:.\Generated_Source\PSoC5/CyFlash.c ****         CYASSERT(0u != 0u);
 705              		.loc 1 614 0 discriminator 1
 706 006a 0020     		movs	r0, #0
 707              	.LVL68:
 708 006c FFF7FEFF 		bl	CyHalt
ARM GAS  C:\Users\Nick\AppData\Local\Temp\ccsUcbpH.s 			page 25


 709              	.LVL69:
 710              	.L72:
 615:.\Generated_Source\PSoC5/CyFlash.c ****     }
 616:.\Generated_Source\PSoC5/CyFlash.c **** 
 617:.\Generated_Source\PSoC5/CyFlash.c ****     /* Restore global interrupt enable state */
 618:.\Generated_Source\PSoC5/CyFlash.c ****     CyExitCriticalSection(interruptState);
 711              		.loc 1 618 0
 712 0070 2846     		mov	r0, r5
 713 0072 FFF7FEFF 		bl	CyExitCriticalSection
 714              	.LVL70:
 715 0076 38BD     		pop	{r3, r4, r5, pc}
 716              	.LVL71:
 717              	.L78:
 718              		.align	2
 719              	.L77:
 720 0078 00480040 		.word	1073760256
 721              		.cfi_endproc
 722              	.LFE8:
 723              		.size	CyFlash_SetWaitCycles, .-CyFlash_SetWaitCycles
 724              		.section	.text.CyEEPROM_Start,"ax",%progbits
 725              		.align	2
 726              		.global	CyEEPROM_Start
 727              		.thumb
 728              		.thumb_func
 729              		.type	CyEEPROM_Start, %function
 730              	CyEEPROM_Start:
 731              	.LFB9:
 619:.\Generated_Source\PSoC5/CyFlash.c **** }
 620:.\Generated_Source\PSoC5/CyFlash.c **** 
 621:.\Generated_Source\PSoC5/CyFlash.c **** 
 622:.\Generated_Source\PSoC5/CyFlash.c **** /*******************************************************************************
 623:.\Generated_Source\PSoC5/CyFlash.c **** * Function Name: CyEEPROM_Start
 624:.\Generated_Source\PSoC5/CyFlash.c **** ********************************************************************************
 625:.\Generated_Source\PSoC5/CyFlash.c **** *
 626:.\Generated_Source\PSoC5/CyFlash.c **** * Summary:
 627:.\Generated_Source\PSoC5/CyFlash.c **** *  Enable the EEPROM.
 628:.\Generated_Source\PSoC5/CyFlash.c **** *
 629:.\Generated_Source\PSoC5/CyFlash.c **** * Parameters:
 630:.\Generated_Source\PSoC5/CyFlash.c **** *  None
 631:.\Generated_Source\PSoC5/CyFlash.c **** *
 632:.\Generated_Source\PSoC5/CyFlash.c **** * Return:
 633:.\Generated_Source\PSoC5/CyFlash.c **** *  None
 634:.\Generated_Source\PSoC5/CyFlash.c **** *
 635:.\Generated_Source\PSoC5/CyFlash.c **** *******************************************************************************/
 636:.\Generated_Source\PSoC5/CyFlash.c **** void CyEEPROM_Start(void) 
 637:.\Generated_Source\PSoC5/CyFlash.c **** {
 732              		.loc 1 637 0
 733              		.cfi_startproc
 734              		@ args = 0, pretend = 0, frame = 0
 735              		@ frame_needed = 0, uses_anonymous_args = 0
 736 0000 08B5     		push	{r3, lr}
 737              		.cfi_def_cfa_offset 8
 738              		.cfi_offset 3, -8
 739              		.cfi_offset 14, -4
 638:.\Generated_Source\PSoC5/CyFlash.c ****     uint8 interruptState;
 639:.\Generated_Source\PSoC5/CyFlash.c **** 
 640:.\Generated_Source\PSoC5/CyFlash.c ****     interruptState = CyEnterCriticalSection();
ARM GAS  C:\Users\Nick\AppData\Local\Temp\ccsUcbpH.s 			page 26


 740              		.loc 1 640 0
 741 0002 FFF7FEFF 		bl	CyEnterCriticalSection
 742              	.LVL72:
 641:.\Generated_Source\PSoC5/CyFlash.c **** 
 642:.\Generated_Source\PSoC5/CyFlash.c **** 
 643:.\Generated_Source\PSoC5/CyFlash.c ****     /***************************************************************************
 644:.\Generated_Source\PSoC5/CyFlash.c ****     * Enable SPC clock. This also internally enables the 36MHz IMO, since this
 645:.\Generated_Source\PSoC5/CyFlash.c ****     * is required for the SPC to function.
 646:.\Generated_Source\PSoC5/CyFlash.c ****     ***************************************************************************/
 647:.\Generated_Source\PSoC5/CyFlash.c ****     CY_FLASH_PM_ACT_CFG0_REG    |= CY_FLASH_PM_ACT_CFG0_EN_CLK_SPC;
 743              		.loc 1 647 0
 744 0006 104B     		ldr	r3, .L82
 745 0008 1A78     		ldrb	r2, [r3]	@ zero_extendqisi2
 746 000a 42F00802 		orr	r2, r2, #8
 747 000e 1A70     		strb	r2, [r3]
 648:.\Generated_Source\PSoC5/CyFlash.c ****     CY_FLASH_PM_ALTACT_CFG0_REG |= CY_FLASH_PM_ALTACT_CFG0_EN_CLK_SPC;
 748              		.loc 1 648 0
 749 0010 1033     		adds	r3, r3, #16
 750 0012 1A78     		ldrb	r2, [r3]	@ zero_extendqisi2
 751 0014 42F00802 		orr	r2, r2, #8
 752 0018 1A70     		strb	r2, [r3]
 649:.\Generated_Source\PSoC5/CyFlash.c **** 
 650:.\Generated_Source\PSoC5/CyFlash.c **** 
 651:.\Generated_Source\PSoC5/CyFlash.c ****     /***************************************************************************
 652:.\Generated_Source\PSoC5/CyFlash.c ****     * The wake count defines the number of Bus Clock cycles it takes for the
 653:.\Generated_Source\PSoC5/CyFlash.c ****     * flash or EEPROM to wake up from a low power mode independent of the chip
 654:.\Generated_Source\PSoC5/CyFlash.c ****     * power mode. Wake up time for these blocks is 5 us.
 655:.\Generated_Source\PSoC5/CyFlash.c ****     * The granularity of this register is 2 Bus Clock cycles, so a value of 0x1E
 656:.\Generated_Source\PSoC5/CyFlash.c ****     * (30d) defines the wake up time as 60 cycles of the Bus Clock.
 657:.\Generated_Source\PSoC5/CyFlash.c ****     * This register needs to be written with a value dependent on the Bus Clock
 658:.\Generated_Source\PSoC5/CyFlash.c ****     * frequency so that the duration of the cycles is equal to or greater than
 659:.\Generated_Source\PSoC5/CyFlash.c ****     * the 5 us delay required.
 660:.\Generated_Source\PSoC5/CyFlash.c ****     ***************************************************************************/
 661:.\Generated_Source\PSoC5/CyFlash.c ****     CY_FLASH_SPC_FM_EE_WAKE_CNT_REG = CY_FLASH_SPC_FM_EE_WAKE_CNT_80MHZ;
 753              		.loc 1 661 0
 754 001a C822     		movs	r2, #200
 755 001c 03F25133 		addw	r3, r3, #849
 756 0020 1A70     		strb	r2, [r3]
 662:.\Generated_Source\PSoC5/CyFlash.c **** 
 663:.\Generated_Source\PSoC5/CyFlash.c **** 
 664:.\Generated_Source\PSoC5/CyFlash.c ****     /***************************************************************************
 665:.\Generated_Source\PSoC5/CyFlash.c ****     * Enable EEPROM. Re-enabling an EEPROM macro takes 5us. During this time,
 666:.\Generated_Source\PSoC5/CyFlash.c ****     * the EE will not acknowledge a PHUB request.
 667:.\Generated_Source\PSoC5/CyFlash.c ****     ***************************************************************************/
 668:.\Generated_Source\PSoC5/CyFlash.c ****     CY_FLASH_PM_ACT_CFG12_REG    |= CY_FLASH_PM_ACT_CFG12_EN_EE;
 757              		.loc 1 668 0
 758 0022 A3F25533 		subw	r3, r3, #853
 759 0026 1A78     		ldrb	r2, [r3]	@ zero_extendqisi2
 760 0028 42F01002 		orr	r2, r2, #16
 761 002c 1A70     		strb	r2, [r3]
 669:.\Generated_Source\PSoC5/CyFlash.c ****     CY_FLASH_PM_ALTACT_CFG12_REG |= CY_FLASH_PM_ALTACT_CFG12_EN_EE;
 762              		.loc 1 669 0
 763 002e 1033     		adds	r3, r3, #16
 764 0030 1A78     		ldrb	r2, [r3]	@ zero_extendqisi2
 765 0032 42F01002 		orr	r2, r2, #16
 766 0036 1A70     		strb	r2, [r3]
 670:.\Generated_Source\PSoC5/CyFlash.c **** 
ARM GAS  C:\Users\Nick\AppData\Local\Temp\ccsUcbpH.s 			page 27


 671:.\Generated_Source\PSoC5/CyFlash.c ****     while(0u == (CY_FLASH_SPC_FM_EE_CR_REG & CY_FLASH_EE_EE_AWAKE))
 767              		.loc 1 671 0
 768 0038 044A     		ldr	r2, .L82+4
 769              	.L80:
 770              		.loc 1 671 0 is_stmt 0 discriminator 1
 771 003a 1378     		ldrb	r3, [r2]	@ zero_extendqisi2
 772 003c 13F0200F 		tst	r3, #32
 773 0040 FBD0     		beq	.L80
 672:.\Generated_Source\PSoC5/CyFlash.c ****     {
 673:.\Generated_Source\PSoC5/CyFlash.c ****         /* Non-zero status denotes that the EEPROM/Flash is awake & powered. */
 674:.\Generated_Source\PSoC5/CyFlash.c ****     }
 675:.\Generated_Source\PSoC5/CyFlash.c **** 
 676:.\Generated_Source\PSoC5/CyFlash.c ****     CyExitCriticalSection(interruptState);
 774              		.loc 1 676 0 is_stmt 1
 775 0042 FFF7FEFF 		bl	CyExitCriticalSection
 776              	.LVL73:
 777 0046 08BD     		pop	{r3, pc}
 778              	.L83:
 779              		.align	2
 780              	.L82:
 781 0048 A0430040 		.word	1073759136
 782 004c 00470040 		.word	1073760000
 783              		.cfi_endproc
 784              	.LFE9:
 785              		.size	CyEEPROM_Start, .-CyEEPROM_Start
 786              		.section	.text.CyEEPROM_Stop,"ax",%progbits
 787              		.align	2
 788              		.global	CyEEPROM_Stop
 789              		.thumb
 790              		.thumb_func
 791              		.type	CyEEPROM_Stop, %function
 792              	CyEEPROM_Stop:
 793              	.LFB10:
 677:.\Generated_Source\PSoC5/CyFlash.c **** }
 678:.\Generated_Source\PSoC5/CyFlash.c **** 
 679:.\Generated_Source\PSoC5/CyFlash.c **** 
 680:.\Generated_Source\PSoC5/CyFlash.c **** /*******************************************************************************
 681:.\Generated_Source\PSoC5/CyFlash.c **** * Function Name: CyEEPROM_Stop
 682:.\Generated_Source\PSoC5/CyFlash.c **** ********************************************************************************
 683:.\Generated_Source\PSoC5/CyFlash.c **** *
 684:.\Generated_Source\PSoC5/CyFlash.c **** * Summary:
 685:.\Generated_Source\PSoC5/CyFlash.c **** *  Disable the EEPROM.
 686:.\Generated_Source\PSoC5/CyFlash.c **** *
 687:.\Generated_Source\PSoC5/CyFlash.c **** * Parameters:
 688:.\Generated_Source\PSoC5/CyFlash.c **** *  None
 689:.\Generated_Source\PSoC5/CyFlash.c **** *
 690:.\Generated_Source\PSoC5/CyFlash.c **** * Return:
 691:.\Generated_Source\PSoC5/CyFlash.c **** *  None
 692:.\Generated_Source\PSoC5/CyFlash.c **** *
 693:.\Generated_Source\PSoC5/CyFlash.c **** *******************************************************************************/
 694:.\Generated_Source\PSoC5/CyFlash.c **** void CyEEPROM_Stop (void) 
 695:.\Generated_Source\PSoC5/CyFlash.c **** {
 794              		.loc 1 695 0
 795              		.cfi_startproc
 796              		@ args = 0, pretend = 0, frame = 0
 797              		@ frame_needed = 0, uses_anonymous_args = 0
 798 0000 08B5     		push	{r3, lr}
ARM GAS  C:\Users\Nick\AppData\Local\Temp\ccsUcbpH.s 			page 28


 799              		.cfi_def_cfa_offset 8
 800              		.cfi_offset 3, -8
 801              		.cfi_offset 14, -4
 696:.\Generated_Source\PSoC5/CyFlash.c ****     uint8 interruptState;
 697:.\Generated_Source\PSoC5/CyFlash.c **** 
 698:.\Generated_Source\PSoC5/CyFlash.c ****     interruptState = CyEnterCriticalSection();
 802              		.loc 1 698 0
 803 0002 FFF7FEFF 		bl	CyEnterCriticalSection
 804              	.LVL74:
 699:.\Generated_Source\PSoC5/CyFlash.c **** 
 700:.\Generated_Source\PSoC5/CyFlash.c ****     CY_FLASH_PM_ACT_CFG12_REG    &= ((uint8)(~CY_FLASH_PM_ACT_CFG12_EN_EE));
 805              		.loc 1 700 0
 806 0006 064B     		ldr	r3, .L85
 807 0008 1A78     		ldrb	r2, [r3]	@ zero_extendqisi2
 808 000a 02F0EF02 		and	r2, r2, #239
 809 000e 1A70     		strb	r2, [r3]
 701:.\Generated_Source\PSoC5/CyFlash.c ****     CY_FLASH_PM_ALTACT_CFG12_REG &= ((uint8)(~CY_FLASH_PM_ALTACT_CFG12_EN_EE));
 810              		.loc 1 701 0
 811 0010 1033     		adds	r3, r3, #16
 812 0012 1A78     		ldrb	r2, [r3]	@ zero_extendqisi2
 813 0014 02F0EF02 		and	r2, r2, #239
 814 0018 1A70     		strb	r2, [r3]
 702:.\Generated_Source\PSoC5/CyFlash.c **** 
 703:.\Generated_Source\PSoC5/CyFlash.c ****     CyExitCriticalSection(interruptState);
 815              		.loc 1 703 0
 816 001a FFF7FEFF 		bl	CyExitCriticalSection
 817              	.LVL75:
 818 001e 08BD     		pop	{r3, pc}
 819              	.L86:
 820              		.align	2
 821              	.L85:
 822 0020 AC430040 		.word	1073759148
 823              		.cfi_endproc
 824              	.LFE10:
 825              		.size	CyEEPROM_Stop, .-CyEEPROM_Stop
 826              		.section	.text.CyEEPROM_ReadReserve,"ax",%progbits
 827              		.align	2
 828              		.global	CyEEPROM_ReadReserve
 829              		.thumb
 830              		.thumb_func
 831              		.type	CyEEPROM_ReadReserve, %function
 832              	CyEEPROM_ReadReserve:
 833              	.LFB11:
 704:.\Generated_Source\PSoC5/CyFlash.c **** }
 705:.\Generated_Source\PSoC5/CyFlash.c **** 
 706:.\Generated_Source\PSoC5/CyFlash.c **** 
 707:.\Generated_Source\PSoC5/CyFlash.c **** /*******************************************************************************
 708:.\Generated_Source\PSoC5/CyFlash.c **** * Function Name: CyEEPROM_ReadReserve
 709:.\Generated_Source\PSoC5/CyFlash.c **** ********************************************************************************
 710:.\Generated_Source\PSoC5/CyFlash.c **** *
 711:.\Generated_Source\PSoC5/CyFlash.c **** * Summary:
 712:.\Generated_Source\PSoC5/CyFlash.c **** *  Request access to the EEPROM for reading and wait until access is available.
 713:.\Generated_Source\PSoC5/CyFlash.c **** *
 714:.\Generated_Source\PSoC5/CyFlash.c **** * Parameters:
 715:.\Generated_Source\PSoC5/CyFlash.c **** *  None
 716:.\Generated_Source\PSoC5/CyFlash.c **** *
 717:.\Generated_Source\PSoC5/CyFlash.c **** * Return:
ARM GAS  C:\Users\Nick\AppData\Local\Temp\ccsUcbpH.s 			page 29


 718:.\Generated_Source\PSoC5/CyFlash.c **** *  None
 719:.\Generated_Source\PSoC5/CyFlash.c **** *
 720:.\Generated_Source\PSoC5/CyFlash.c **** *******************************************************************************/
 721:.\Generated_Source\PSoC5/CyFlash.c **** void CyEEPROM_ReadReserve(void) 
 722:.\Generated_Source\PSoC5/CyFlash.c **** {
 834              		.loc 1 722 0
 835              		.cfi_startproc
 836              		@ args = 0, pretend = 0, frame = 0
 837              		@ frame_needed = 0, uses_anonymous_args = 0
 838              		@ link register save eliminated.
 723:.\Generated_Source\PSoC5/CyFlash.c ****     /* Make request for PHUB to have access */
 724:.\Generated_Source\PSoC5/CyFlash.c ****     CY_FLASH_EE_SCR_REG |= CY_FLASH_EE_SCR_AHB_EE_REQ;
 839              		.loc 1 724 0
 840 0000 054B     		ldr	r3, .L90
 841 0002 1A78     		ldrb	r2, [r3]	@ zero_extendqisi2
 842 0004 42F00102 		orr	r2, r2, #1
 843 0008 1A70     		strb	r2, [r3]
 725:.\Generated_Source\PSoC5/CyFlash.c **** 
 726:.\Generated_Source\PSoC5/CyFlash.c ****     while (0u == (CY_FLASH_EE_SCR_REG & CY_FLASH_EE_SCR_AHB_EE_ACK))
 844              		.loc 1 726 0
 845 000a 1A46     		mov	r2, r3
 846              	.L88:
 847              		.loc 1 726 0 is_stmt 0 discriminator 1
 848 000c 1378     		ldrb	r3, [r2]	@ zero_extendqisi2
 849 000e 13F0020F 		tst	r3, #2
 850 0012 FBD0     		beq	.L88
 727:.\Generated_Source\PSoC5/CyFlash.c ****     {
 728:.\Generated_Source\PSoC5/CyFlash.c ****         /* Wait for acknowledgment from PHUB */
 729:.\Generated_Source\PSoC5/CyFlash.c ****     }
 730:.\Generated_Source\PSoC5/CyFlash.c **** }
 851              		.loc 1 730 0 is_stmt 1
 852 0014 7047     		bx	lr
 853              	.L91:
 854 0016 00BF     		.align	2
 855              	.L90:
 856 0018 02470040 		.word	1073760002
 857              		.cfi_endproc
 858              	.LFE11:
 859              		.size	CyEEPROM_ReadReserve, .-CyEEPROM_ReadReserve
 860              		.section	.text.CyEEPROM_ReadRelease,"ax",%progbits
 861              		.align	2
 862              		.global	CyEEPROM_ReadRelease
 863              		.thumb
 864              		.thumb_func
 865              		.type	CyEEPROM_ReadRelease, %function
 866              	CyEEPROM_ReadRelease:
 867              	.LFB12:
 731:.\Generated_Source\PSoC5/CyFlash.c **** 
 732:.\Generated_Source\PSoC5/CyFlash.c **** 
 733:.\Generated_Source\PSoC5/CyFlash.c **** /*******************************************************************************
 734:.\Generated_Source\PSoC5/CyFlash.c **** * Function Name: CyEEPROM_ReadRelease
 735:.\Generated_Source\PSoC5/CyFlash.c **** ********************************************************************************
 736:.\Generated_Source\PSoC5/CyFlash.c **** *
 737:.\Generated_Source\PSoC5/CyFlash.c **** * Summary:
 738:.\Generated_Source\PSoC5/CyFlash.c **** *  Release the read reservation of the EEPROM.
 739:.\Generated_Source\PSoC5/CyFlash.c **** *
 740:.\Generated_Source\PSoC5/CyFlash.c **** * Parameters:
ARM GAS  C:\Users\Nick\AppData\Local\Temp\ccsUcbpH.s 			page 30


 741:.\Generated_Source\PSoC5/CyFlash.c **** *  None
 742:.\Generated_Source\PSoC5/CyFlash.c **** *
 743:.\Generated_Source\PSoC5/CyFlash.c **** * Return:
 744:.\Generated_Source\PSoC5/CyFlash.c **** *  None
 745:.\Generated_Source\PSoC5/CyFlash.c **** *
 746:.\Generated_Source\PSoC5/CyFlash.c **** *******************************************************************************/
 747:.\Generated_Source\PSoC5/CyFlash.c **** void CyEEPROM_ReadRelease(void) 
 748:.\Generated_Source\PSoC5/CyFlash.c **** {
 868              		.loc 1 748 0
 869              		.cfi_startproc
 870              		@ args = 0, pretend = 0, frame = 0
 871              		@ frame_needed = 0, uses_anonymous_args = 0
 872              		@ link register save eliminated.
 749:.\Generated_Source\PSoC5/CyFlash.c ****     CY_FLASH_EE_SCR_REG &= (uint8)(~CY_FLASH_EE_SCR_AHB_EE_REQ);
 873              		.loc 1 749 0
 874 0000 024B     		ldr	r3, .L93
 875 0002 1A78     		ldrb	r2, [r3]	@ zero_extendqisi2
 876 0004 02F0FE02 		and	r2, r2, #254
 877 0008 1A70     		strb	r2, [r3]
 878 000a 7047     		bx	lr
 879              	.L94:
 880              		.align	2
 881              	.L93:
 882 000c 02470040 		.word	1073760002
 883              		.cfi_endproc
 884              	.LFE12:
 885              		.size	CyEEPROM_ReadRelease, .-CyEEPROM_ReadRelease
 886              		.comm	dieTemperature,2,4
 887              		.text
 888              	.Letext0:
 889              		.file 2 ".\\Generated_Source\\PSoC5\\cytypes.h"
 890              		.file 3 ".\\Generated_Source\\PSoC5\\CySpc.h"
 891              		.file 4 ".\\Generated_Source\\PSoC5\\CyLib.h"