ARM GAS  C:\Users\Nick\AppData\Local\Temp\ccJGCe3H.s 			page 1


   1              		.syntax unified
   2              		.cpu cortex-m3
   3              		.fpu softvfp
   4              		.eabi_attribute 20, 1
   5              		.eabi_attribute 21, 1
   6              		.eabi_attribute 23, 3
   7              		.eabi_attribute 24, 1
   8              		.eabi_attribute 25, 1
   9              		.eabi_attribute 26, 1
  10              		.eabi_attribute 30, 1
  11              		.eabi_attribute 34, 1
  12              		.eabi_attribute 18, 4
  13              		.thumb
  14              		.file	"CySpc.c"
  15              		.text
  16              	.Ltext0:
  17              		.cfi_sections	.debug_frame
  18              		.section	.text.CySpcStart,"ax",%progbits
  19              		.align	2
  20              		.global	CySpcStart
  21              		.thumb
  22              		.thumb_func
  23              		.type	CySpcStart, %function
  24              	CySpcStart:
  25              	.LFB0:
  26              		.file 1 ".\\Generated_Source\\PSoC5\\CySpc.c"
   1:.\Generated_Source\PSoC5/CySpc.c **** /*******************************************************************************
   2:.\Generated_Source\PSoC5/CySpc.c **** * File Name: CySpc.c
   3:.\Generated_Source\PSoC5/CySpc.c **** * Version 5.10
   4:.\Generated_Source\PSoC5/CySpc.c **** *
   5:.\Generated_Source\PSoC5/CySpc.c **** *  Description:
   6:.\Generated_Source\PSoC5/CySpc.c **** *   Provides an API for the System Performance Component.
   7:.\Generated_Source\PSoC5/CySpc.c **** *   The SPC functions are not meant to be called directly by the user
   8:.\Generated_Source\PSoC5/CySpc.c **** *   application.
   9:.\Generated_Source\PSoC5/CySpc.c **** *
  10:.\Generated_Source\PSoC5/CySpc.c **** ********************************************************************************
  11:.\Generated_Source\PSoC5/CySpc.c **** * Copyright 2008-2015, Cypress Semiconductor Corporation.  All rights reserved.
  12:.\Generated_Source\PSoC5/CySpc.c **** * You may use this file only in accordance with the license, terms, conditions,
  13:.\Generated_Source\PSoC5/CySpc.c **** * disclaimers, and limitations in the end user license agreement accompanying
  14:.\Generated_Source\PSoC5/CySpc.c **** * the software package with which this file was provided.
  15:.\Generated_Source\PSoC5/CySpc.c **** *******************************************************************************/
  16:.\Generated_Source\PSoC5/CySpc.c **** 
  17:.\Generated_Source\PSoC5/CySpc.c **** #include "CySpc.h"
  18:.\Generated_Source\PSoC5/CySpc.c **** 
  19:.\Generated_Source\PSoC5/CySpc.c **** #define CY_SPC_KEY_ONE                      (0xB6u)
  20:.\Generated_Source\PSoC5/CySpc.c **** #define CY_SPC_KEY_TWO(x)                   ((uint8) (((uint16) 0xD3u) + ((uint16) (x))))
  21:.\Generated_Source\PSoC5/CySpc.c **** 
  22:.\Generated_Source\PSoC5/CySpc.c **** /* Command Codes */
  23:.\Generated_Source\PSoC5/CySpc.c **** #define CY_SPC_CMD_LD_BYTE                  (0x00u)
  24:.\Generated_Source\PSoC5/CySpc.c **** #define CY_SPC_CMD_LD_MULTI_BYTE            (0x01u)
  25:.\Generated_Source\PSoC5/CySpc.c **** #define CY_SPC_CMD_LD_ROW                   (0x02u)
  26:.\Generated_Source\PSoC5/CySpc.c **** #define CY_SPC_CMD_RD_BYTE                  (0x03u)
  27:.\Generated_Source\PSoC5/CySpc.c **** #define CY_SPC_CMD_RD_MULTI_BYTE            (0x04u)
  28:.\Generated_Source\PSoC5/CySpc.c **** #define CY_SPC_CMD_WR_ROW                   (0x05u)
  29:.\Generated_Source\PSoC5/CySpc.c **** #define CY_SPC_CMD_WR_USER_NVL              (0x06u)
  30:.\Generated_Source\PSoC5/CySpc.c **** #define CY_SPC_CMD_PRG_ROW                  (0x07u)
  31:.\Generated_Source\PSoC5/CySpc.c **** #define CY_SPC_CMD_ER_SECTOR                (0x08u)
ARM GAS  C:\Users\Nick\AppData\Local\Temp\ccJGCe3H.s 			page 2


  32:.\Generated_Source\PSoC5/CySpc.c **** #define CY_SPC_CMD_ER_ALL                   (0x09u)
  33:.\Generated_Source\PSoC5/CySpc.c **** #define CY_SPC_CMD_RD_HIDDEN                (0x0Au)
  34:.\Generated_Source\PSoC5/CySpc.c **** #define CY_SPC_CMD_PRG_PROTECT              (0x0Bu)
  35:.\Generated_Source\PSoC5/CySpc.c **** #define CY_SPC_CMD_CHECKSUM                 (0x0Cu)
  36:.\Generated_Source\PSoC5/CySpc.c **** #define CY_SPC_CMD_DWNLD_ALGORITHM          (0x0Du)
  37:.\Generated_Source\PSoC5/CySpc.c **** #define CY_SPC_CMD_GET_TEMP                 (0x0Eu)
  38:.\Generated_Source\PSoC5/CySpc.c **** #define CY_SPC_CMD_GET_ADC                  (0x0Fu)
  39:.\Generated_Source\PSoC5/CySpc.c **** #define CY_SPC_CMD_RD_NVL_VOLATILE          (0x10u)
  40:.\Generated_Source\PSoC5/CySpc.c **** #define CY_SPC_CMD_SETUP_TS                 (0x11u)
  41:.\Generated_Source\PSoC5/CySpc.c **** #define CY_SPC_CMD_DISABLE_TS               (0x12u)
  42:.\Generated_Source\PSoC5/CySpc.c **** #define CY_SPC_CMD_ER_ROW                   (0x13u)
  43:.\Generated_Source\PSoC5/CySpc.c **** 
  44:.\Generated_Source\PSoC5/CySpc.c **** /* Enable bit in Active and Alternate Active mode templates */
  45:.\Generated_Source\PSoC5/CySpc.c **** #define PM_SPC_PM_EN                        (0x08u)
  46:.\Generated_Source\PSoC5/CySpc.c **** 
  47:.\Generated_Source\PSoC5/CySpc.c **** /* Gate calls to the SPC. */
  48:.\Generated_Source\PSoC5/CySpc.c **** uint8 SpcLockState = CY_SPC_UNLOCKED;
  49:.\Generated_Source\PSoC5/CySpc.c **** 
  50:.\Generated_Source\PSoC5/CySpc.c **** 
  51:.\Generated_Source\PSoC5/CySpc.c **** #if(CY_PSOC5)
  52:.\Generated_Source\PSoC5/CySpc.c **** 
  53:.\Generated_Source\PSoC5/CySpc.c ****     /***************************************************************************
  54:.\Generated_Source\PSoC5/CySpc.c ****     * The wait-state pipeline must be enabled prior to accessing the SPC
  55:.\Generated_Source\PSoC5/CySpc.c ****     * register interface regardless of CPU frequency. The CySpcLock() saves
  56:.\Generated_Source\PSoC5/CySpc.c ****     * current wait-state pipeline state and enables it. The CySpcUnlock()
  57:.\Generated_Source\PSoC5/CySpc.c ****     * function, which must be called after SPC transaction, restores original
  58:.\Generated_Source\PSoC5/CySpc.c ****     * state.
  59:.\Generated_Source\PSoC5/CySpc.c ****     ***************************************************************************/
  60:.\Generated_Source\PSoC5/CySpc.c ****     static uint32 spcWaitPipeBypass = 0u;
  61:.\Generated_Source\PSoC5/CySpc.c **** 
  62:.\Generated_Source\PSoC5/CySpc.c **** #endif  /* (CY_PSOC5) */
  63:.\Generated_Source\PSoC5/CySpc.c **** 
  64:.\Generated_Source\PSoC5/CySpc.c **** 
  65:.\Generated_Source\PSoC5/CySpc.c **** /*******************************************************************************
  66:.\Generated_Source\PSoC5/CySpc.c **** * Function Name: CySpcStart
  67:.\Generated_Source\PSoC5/CySpc.c **** ********************************************************************************
  68:.\Generated_Source\PSoC5/CySpc.c **** * Summary:
  69:.\Generated_Source\PSoC5/CySpc.c **** *  Starts the SPC.
  70:.\Generated_Source\PSoC5/CySpc.c **** *
  71:.\Generated_Source\PSoC5/CySpc.c **** * Parameters:
  72:.\Generated_Source\PSoC5/CySpc.c **** *  None
  73:.\Generated_Source\PSoC5/CySpc.c **** *
  74:.\Generated_Source\PSoC5/CySpc.c **** * Return:
  75:.\Generated_Source\PSoC5/CySpc.c **** *  None
  76:.\Generated_Source\PSoC5/CySpc.c **** *
  77:.\Generated_Source\PSoC5/CySpc.c **** *******************************************************************************/
  78:.\Generated_Source\PSoC5/CySpc.c **** void CySpcStart(void) 
  79:.\Generated_Source\PSoC5/CySpc.c **** {
  27              		.loc 1 79 0
  28              		.cfi_startproc
  29              		@ args = 0, pretend = 0, frame = 0
  30              		@ frame_needed = 0, uses_anonymous_args = 0
  31 0000 08B5     		push	{r3, lr}
  32              		.cfi_def_cfa_offset 8
  33              		.cfi_offset 3, -8
  34              		.cfi_offset 14, -4
  80:.\Generated_Source\PSoC5/CySpc.c ****     /* Save current global interrupt enable and disable it */
ARM GAS  C:\Users\Nick\AppData\Local\Temp\ccJGCe3H.s 			page 3


  81:.\Generated_Source\PSoC5/CySpc.c ****     uint8 interruptState = CyEnterCriticalSection();
  35              		.loc 1 81 0
  36 0002 FFF7FEFF 		bl	CyEnterCriticalSection
  37              	.LVL0:
  82:.\Generated_Source\PSoC5/CySpc.c **** 
  83:.\Generated_Source\PSoC5/CySpc.c ****     CY_SPC_PM_ACT_REG  |= PM_SPC_PM_EN;
  38              		.loc 1 83 0
  39 0006 064B     		ldr	r3, .L2
  40 0008 1A78     		ldrb	r2, [r3]	@ zero_extendqisi2
  41 000a 42F00802 		orr	r2, r2, #8
  42 000e 1A70     		strb	r2, [r3]
  84:.\Generated_Source\PSoC5/CySpc.c ****     CY_SPC_PM_STBY_REG |= PM_SPC_PM_EN;
  43              		.loc 1 84 0
  44 0010 1033     		adds	r3, r3, #16
  45 0012 1A78     		ldrb	r2, [r3]	@ zero_extendqisi2
  46 0014 42F00802 		orr	r2, r2, #8
  47 0018 1A70     		strb	r2, [r3]
  85:.\Generated_Source\PSoC5/CySpc.c **** 
  86:.\Generated_Source\PSoC5/CySpc.c ****     /* Restore global interrupt enable state */
  87:.\Generated_Source\PSoC5/CySpc.c ****     CyExitCriticalSection(interruptState);
  48              		.loc 1 87 0
  49 001a FFF7FEFF 		bl	CyExitCriticalSection
  50              	.LVL1:
  51 001e 08BD     		pop	{r3, pc}
  52              	.L3:
  53              		.align	2
  54              	.L2:
  55 0020 A0430040 		.word	1073759136
  56              		.cfi_endproc
  57              	.LFE0:
  58              		.size	CySpcStart, .-CySpcStart
  59              		.section	.text.CySpcStop,"ax",%progbits
  60              		.align	2
  61              		.global	CySpcStop
  62              		.thumb
  63              		.thumb_func
  64              		.type	CySpcStop, %function
  65              	CySpcStop:
  66              	.LFB1:
  88:.\Generated_Source\PSoC5/CySpc.c **** }
  89:.\Generated_Source\PSoC5/CySpc.c **** 
  90:.\Generated_Source\PSoC5/CySpc.c **** 
  91:.\Generated_Source\PSoC5/CySpc.c **** /*******************************************************************************
  92:.\Generated_Source\PSoC5/CySpc.c **** * Function Name: CySpcStop
  93:.\Generated_Source\PSoC5/CySpc.c **** ********************************************************************************
  94:.\Generated_Source\PSoC5/CySpc.c **** * Summary:
  95:.\Generated_Source\PSoC5/CySpc.c **** *  Stops the SPC.
  96:.\Generated_Source\PSoC5/CySpc.c **** *
  97:.\Generated_Source\PSoC5/CySpc.c **** * Parameters:
  98:.\Generated_Source\PSoC5/CySpc.c **** *  None
  99:.\Generated_Source\PSoC5/CySpc.c **** *
 100:.\Generated_Source\PSoC5/CySpc.c **** * Return:
 101:.\Generated_Source\PSoC5/CySpc.c **** *  None
 102:.\Generated_Source\PSoC5/CySpc.c **** *
 103:.\Generated_Source\PSoC5/CySpc.c **** *******************************************************************************/
 104:.\Generated_Source\PSoC5/CySpc.c **** void CySpcStop(void) 
 105:.\Generated_Source\PSoC5/CySpc.c **** {
ARM GAS  C:\Users\Nick\AppData\Local\Temp\ccJGCe3H.s 			page 4


  67              		.loc 1 105 0
  68              		.cfi_startproc
  69              		@ args = 0, pretend = 0, frame = 0
  70              		@ frame_needed = 0, uses_anonymous_args = 0
  71 0000 08B5     		push	{r3, lr}
  72              		.cfi_def_cfa_offset 8
  73              		.cfi_offset 3, -8
  74              		.cfi_offset 14, -4
 106:.\Generated_Source\PSoC5/CySpc.c ****     /* Save current global interrupt enable and disable it */
 107:.\Generated_Source\PSoC5/CySpc.c ****     uint8 interruptState = CyEnterCriticalSection();
  75              		.loc 1 107 0
  76 0002 FFF7FEFF 		bl	CyEnterCriticalSection
  77              	.LVL2:
 108:.\Generated_Source\PSoC5/CySpc.c **** 
 109:.\Generated_Source\PSoC5/CySpc.c ****     CY_SPC_PM_ACT_REG  &= ((uint8)(~PM_SPC_PM_EN));
  78              		.loc 1 109 0
  79 0006 064B     		ldr	r3, .L5
  80 0008 1A78     		ldrb	r2, [r3]	@ zero_extendqisi2
  81 000a 02F0F702 		and	r2, r2, #247
  82 000e 1A70     		strb	r2, [r3]
 110:.\Generated_Source\PSoC5/CySpc.c ****     CY_SPC_PM_STBY_REG &= ((uint8)(~PM_SPC_PM_EN));
  83              		.loc 1 110 0
  84 0010 1033     		adds	r3, r3, #16
  85 0012 1A78     		ldrb	r2, [r3]	@ zero_extendqisi2
  86 0014 02F0F702 		and	r2, r2, #247
  87 0018 1A70     		strb	r2, [r3]
 111:.\Generated_Source\PSoC5/CySpc.c **** 
 112:.\Generated_Source\PSoC5/CySpc.c ****     /* Restore global interrupt enable state */
 113:.\Generated_Source\PSoC5/CySpc.c ****     CyExitCriticalSection(interruptState);
  88              		.loc 1 113 0
  89 001a FFF7FEFF 		bl	CyExitCriticalSection
  90              	.LVL3:
  91 001e 08BD     		pop	{r3, pc}
  92              	.L6:
  93              		.align	2
  94              	.L5:
  95 0020 A0430040 		.word	1073759136
  96              		.cfi_endproc
  97              	.LFE1:
  98              		.size	CySpcStop, .-CySpcStop
  99              		.section	.text.CySpcReadData,"ax",%progbits
 100              		.align	2
 101              		.global	CySpcReadData
 102              		.thumb
 103              		.thumb_func
 104              		.type	CySpcReadData, %function
 105              	CySpcReadData:
 106              	.LFB2:
 114:.\Generated_Source\PSoC5/CySpc.c **** }
 115:.\Generated_Source\PSoC5/CySpc.c **** 
 116:.\Generated_Source\PSoC5/CySpc.c **** 
 117:.\Generated_Source\PSoC5/CySpc.c **** /*******************************************************************************
 118:.\Generated_Source\PSoC5/CySpc.c **** * Function Name: CySpcReadData
 119:.\Generated_Source\PSoC5/CySpc.c **** ********************************************************************************
 120:.\Generated_Source\PSoC5/CySpc.c **** * Summary:
 121:.\Generated_Source\PSoC5/CySpc.c **** *  Reads data from the SPC.
 122:.\Generated_Source\PSoC5/CySpc.c **** *
ARM GAS  C:\Users\Nick\AppData\Local\Temp\ccJGCe3H.s 			page 5


 123:.\Generated_Source\PSoC5/CySpc.c **** * Parameters:
 124:.\Generated_Source\PSoC5/CySpc.c **** *  uint8 buffer:
 125:.\Generated_Source\PSoC5/CySpc.c **** *   Address to store data read.
 126:.\Generated_Source\PSoC5/CySpc.c **** *
 127:.\Generated_Source\PSoC5/CySpc.c **** *  uint8 size:
 128:.\Generated_Source\PSoC5/CySpc.c **** *   Number of bytes to read from the SPC.
 129:.\Generated_Source\PSoC5/CySpc.c **** *
 130:.\Generated_Source\PSoC5/CySpc.c **** * Return:
 131:.\Generated_Source\PSoC5/CySpc.c **** *  uint8:
 132:.\Generated_Source\PSoC5/CySpc.c **** *   The number of bytes read from the SPC.
 133:.\Generated_Source\PSoC5/CySpc.c **** *
 134:.\Generated_Source\PSoC5/CySpc.c **** *******************************************************************************/
 135:.\Generated_Source\PSoC5/CySpc.c **** uint8 CySpcReadData(uint8 buffer[], uint8 size) 
 136:.\Generated_Source\PSoC5/CySpc.c **** {
 107              		.loc 1 136 0
 108              		.cfi_startproc
 109              		@ args = 0, pretend = 0, frame = 0
 110              		@ frame_needed = 0, uses_anonymous_args = 0
 111              	.LVL4:
 112 0000 2DE9F843 		push	{r3, r4, r5, r6, r7, r8, r9, lr}
 113              		.cfi_def_cfa_offset 32
 114              		.cfi_offset 3, -32
 115              		.cfi_offset 4, -28
 116              		.cfi_offset 5, -24
 117              		.cfi_offset 6, -20
 118              		.cfi_offset 7, -16
 119              		.cfi_offset 8, -12
 120              		.cfi_offset 9, -8
 121              		.cfi_offset 14, -4
 122 0004 8146     		mov	r9, r0
 123 0006 0F46     		mov	r7, r1
 124              	.LVL5:
 137:.\Generated_Source\PSoC5/CySpc.c ****     uint8 i;
 138:.\Generated_Source\PSoC5/CySpc.c **** 
 139:.\Generated_Source\PSoC5/CySpc.c ****     for(i = 0u; i < size; i++)
 125              		.loc 1 139 0
 126 0008 0026     		movs	r6, #0
 140:.\Generated_Source\PSoC5/CySpc.c ****     {
 141:.\Generated_Source\PSoC5/CySpc.c ****         while(!CY_SPC_DATA_READY)
 127              		.loc 1 141 0
 128 000a 0C4C     		ldr	r4, .L12
 142:.\Generated_Source\PSoC5/CySpc.c ****         {
 143:.\Generated_Source\PSoC5/CySpc.c ****             CyDelayUs(1u);
 144:.\Generated_Source\PSoC5/CySpc.c ****         }
 145:.\Generated_Source\PSoC5/CySpc.c ****         buffer[i] = CY_SPC_CPU_DATA_REG;
 129              		.loc 1 145 0
 130 000c DFF83080 		ldr	r8, .L12+4
 139:.\Generated_Source\PSoC5/CySpc.c ****     for(i = 0u; i < size; i++)
 131              		.loc 1 139 0
 132 0010 0EE0     		b	.L8
 133              	.LVL6:
 134              	.L9:
 143:.\Generated_Source\PSoC5/CySpc.c ****             CyDelayUs(1u);
 135              		.loc 1 143 0
 136 0012 2846     		mov	r0, r5
 137 0014 FFF7FEFF 		bl	CyDelayUs
 138              	.LVL7:
ARM GAS  C:\Users\Nick\AppData\Local\Temp\ccJGCe3H.s 			page 6


 139 0018 00E0     		b	.L11
 140              	.L10:
 143:.\Generated_Source\PSoC5/CySpc.c ****             CyDelayUs(1u);
 141              		.loc 1 143 0 is_stmt 0 discriminator 1
 142 001a 0125     		movs	r5, #1
 143              	.L11:
 141:.\Generated_Source\PSoC5/CySpc.c ****         while(!CY_SPC_DATA_READY)
 144              		.loc 1 141 0 is_stmt 1 discriminator 1
 145 001c 2378     		ldrb	r3, [r4]	@ zero_extendqisi2
 146 001e 13F0010F 		tst	r3, #1
 147 0022 F6D0     		beq	.L9
 148              		.loc 1 145 0
 149 0024 98F80030 		ldrb	r3, [r8]	@ zero_extendqisi2
 150 0028 09F80630 		strb	r3, [r9, r6]
 139:.\Generated_Source\PSoC5/CySpc.c ****     for(i = 0u; i < size; i++)
 151              		.loc 1 139 0
 152 002c 0136     		adds	r6, r6, #1
 153              	.LVL8:
 154 002e F6B2     		uxtb	r6, r6
 155              	.LVL9:
 156              	.L8:
 139:.\Generated_Source\PSoC5/CySpc.c ****     for(i = 0u; i < size; i++)
 157              		.loc 1 139 0 is_stmt 0 discriminator 1
 158 0030 BE42     		cmp	r6, r7
 159 0032 F2D3     		bcc	.L10
 146:.\Generated_Source\PSoC5/CySpc.c ****     }
 147:.\Generated_Source\PSoC5/CySpc.c **** 
 148:.\Generated_Source\PSoC5/CySpc.c ****     return(i);
 149:.\Generated_Source\PSoC5/CySpc.c **** }
 160              		.loc 1 149 0 is_stmt 1
 161 0034 3046     		mov	r0, r6
 162 0036 BDE8F883 		pop	{r3, r4, r5, r6, r7, r8, r9, pc}
 163              	.LVL10:
 164              	.L13:
 165 003a 00BF     		.align	2
 166              	.L12:
 167 003c 22470040 		.word	1073760034
 168 0040 20470040 		.word	1073760032
 169              		.cfi_endproc
 170              	.LFE2:
 171              		.size	CySpcReadData, .-CySpcReadData
 172              		.section	.text.CySpcLoadMultiByte,"ax",%progbits
 173              		.align	2
 174              		.global	CySpcLoadMultiByte
 175              		.thumb
 176              		.thumb_func
 177              		.type	CySpcLoadMultiByte, %function
 178              	CySpcLoadMultiByte:
 179              	.LFB3:
 150:.\Generated_Source\PSoC5/CySpc.c **** 
 151:.\Generated_Source\PSoC5/CySpc.c **** 
 152:.\Generated_Source\PSoC5/CySpc.c **** /*******************************************************************************
 153:.\Generated_Source\PSoC5/CySpc.c **** * Function Name: CySpcLoadMultiByte
 154:.\Generated_Source\PSoC5/CySpc.c **** ********************************************************************************
 155:.\Generated_Source\PSoC5/CySpc.c **** * Summary:
 156:.\Generated_Source\PSoC5/CySpc.c **** *  Loads 1 to 32 bytes of data into the row latch of a Flash/EEPROM array.
 157:.\Generated_Source\PSoC5/CySpc.c **** *
ARM GAS  C:\Users\Nick\AppData\Local\Temp\ccJGCe3H.s 			page 7


 158:.\Generated_Source\PSoC5/CySpc.c **** * Parameters:
 159:.\Generated_Source\PSoC5/CySpc.c **** *  uint8 array:
 160:.\Generated_Source\PSoC5/CySpc.c **** *   Id of the array.
 161:.\Generated_Source\PSoC5/CySpc.c **** *
 162:.\Generated_Source\PSoC5/CySpc.c **** *  uint16 address:
 163:.\Generated_Source\PSoC5/CySpc.c **** *   Flash/eeprom addrress
 164:.\Generated_Source\PSoC5/CySpc.c **** *
 165:.\Generated_Source\PSoC5/CySpc.c **** *  uint8* buffer:
 166:.\Generated_Source\PSoC5/CySpc.c **** *   Data to load to the row latch
 167:.\Generated_Source\PSoC5/CySpc.c **** *
 168:.\Generated_Source\PSoC5/CySpc.c **** *  uint16 number:
 169:.\Generated_Source\PSoC5/CySpc.c **** *   Number bytes to load.
 170:.\Generated_Source\PSoC5/CySpc.c **** *
 171:.\Generated_Source\PSoC5/CySpc.c **** * Return:
 172:.\Generated_Source\PSoC5/CySpc.c **** *  CYRET_STARTED
 173:.\Generated_Source\PSoC5/CySpc.c **** *  CYRET_CANCELED
 174:.\Generated_Source\PSoC5/CySpc.c **** *  CYRET_LOCKED
 175:.\Generated_Source\PSoC5/CySpc.c **** *  CYRET_BAD_PARAM
 176:.\Generated_Source\PSoC5/CySpc.c **** *
 177:.\Generated_Source\PSoC5/CySpc.c **** *******************************************************************************/
 178:.\Generated_Source\PSoC5/CySpc.c **** cystatus CySpcLoadMultiByte(uint8 array, uint16 address, const uint8 buffer[], uint8 size)\
 179:.\Generated_Source\PSoC5/CySpc.c **** 
 180:.\Generated_Source\PSoC5/CySpc.c **** {
 180              		.loc 1 180 0
 181              		.cfi_startproc
 182              		@ args = 0, pretend = 0, frame = 0
 183              		@ frame_needed = 0, uses_anonymous_args = 0
 184              		@ link register save eliminated.
 185              	.LVL11:
 186 0000 30B4     		push	{r4, r5}
 187              		.cfi_def_cfa_offset 8
 188              		.cfi_offset 4, -8
 189              		.cfi_offset 5, -4
 190              	.LVL12:
 181:.\Generated_Source\PSoC5/CySpc.c ****     cystatus status = CYRET_STARTED;
 182:.\Generated_Source\PSoC5/CySpc.c ****     uint8 i;
 183:.\Generated_Source\PSoC5/CySpc.c **** 
 184:.\Generated_Source\PSoC5/CySpc.c ****     /***************************************************************************
 185:.\Generated_Source\PSoC5/CySpc.c ****     * Check if number is correct for array. Number must be less than
 186:.\Generated_Source\PSoC5/CySpc.c ****     * 32 for Flash or less than 16 for EEPROM.
 187:.\Generated_Source\PSoC5/CySpc.c ****     ***************************************************************************/
 188:.\Generated_Source\PSoC5/CySpc.c ****     if(((array < CY_SPC_LAST_FLASH_ARRAYID) && (size < 32u)) ||
 191              		.loc 1 188 0
 192 0002 3E28     		cmp	r0, #62
 193 0004 01D8     		bhi	.L15
 194              		.loc 1 188 0 is_stmt 0 discriminator 1
 195 0006 1F2B     		cmp	r3, #31
 196 0008 03D9     		bls	.L16
 197              	.L15:
 198              		.loc 1 188 0 discriminator 2
 199 000a 3F28     		cmp	r0, #63
 200 000c 26D9     		bls	.L20
 189:.\Generated_Source\PSoC5/CySpc.c ****        ((array > CY_SPC_LAST_FLASH_ARRAYID) && (size < 16u)))
 201              		.loc 1 189 0 is_stmt 1
 202 000e 0F2B     		cmp	r3, #15
 203 0010 26D8     		bhi	.L21
 204              	.L16:
ARM GAS  C:\Users\Nick\AppData\Local\Temp\ccJGCe3H.s 			page 8


 190:.\Generated_Source\PSoC5/CySpc.c ****     {
 191:.\Generated_Source\PSoC5/CySpc.c ****         if(CY_SPC_IDLE)
 205              		.loc 1 191 0
 206 0012 174C     		ldr	r4, .L24
 207 0014 2478     		ldrb	r4, [r4]	@ zero_extendqisi2
 208 0016 14F0020F 		tst	r4, #2
 209 001a 23D0     		beq	.L22
 192:.\Generated_Source\PSoC5/CySpc.c ****         {
 193:.\Generated_Source\PSoC5/CySpc.c ****             CY_SPC_CPU_DATA_REG = CY_SPC_KEY_ONE;
 210              		.loc 1 193 0
 211 001c 154C     		ldr	r4, .L24+4
 212 001e B625     		movs	r5, #182
 213 0020 2570     		strb	r5, [r4]
 194:.\Generated_Source\PSoC5/CySpc.c ****             CY_SPC_CPU_DATA_REG = CY_SPC_KEY_TWO(CY_SPC_CMD_LD_MULTI_BYTE);
 214              		.loc 1 194 0
 215 0022 D425     		movs	r5, #212
 216 0024 2570     		strb	r5, [r4]
 195:.\Generated_Source\PSoC5/CySpc.c ****             CY_SPC_CPU_DATA_REG = CY_SPC_CMD_LD_MULTI_BYTE;
 217              		.loc 1 195 0
 218 0026 0125     		movs	r5, #1
 219 0028 2570     		strb	r5, [r4]
 196:.\Generated_Source\PSoC5/CySpc.c **** 
 197:.\Generated_Source\PSoC5/CySpc.c ****             if(CY_SPC_BUSY)
 220              		.loc 1 197 0
 221 002a 0234     		adds	r4, r4, #2
 222 002c 2478     		ldrb	r4, [r4]	@ zero_extendqisi2
 223 002e 14F0020F 		tst	r4, #2
 224 0032 19D1     		bne	.L23
 198:.\Generated_Source\PSoC5/CySpc.c ****             {
 199:.\Generated_Source\PSoC5/CySpc.c ****                 CY_SPC_CPU_DATA_REG = array;
 225              		.loc 1 199 0
 226 0034 0F4C     		ldr	r4, .L24+4
 227 0036 2070     		strb	r0, [r4]
 200:.\Generated_Source\PSoC5/CySpc.c ****                 CY_SPC_CPU_DATA_REG = 1u & HI8(address);
 228              		.loc 1 200 0
 229 0038 C1F30020 		ubfx	r0, r1, #8, #1
 230              	.LVL13:
 231 003c 2070     		strb	r0, [r4]
 232              	.LVL14:
 201:.\Generated_Source\PSoC5/CySpc.c ****                 CY_SPC_CPU_DATA_REG = LO8(address);
 233              		.loc 1 201 0
 234 003e C9B2     		uxtb	r1, r1
 235              	.LVL15:
 236 0040 2170     		strb	r1, [r4]
 202:.\Generated_Source\PSoC5/CySpc.c ****                 CY_SPC_CPU_DATA_REG = ((uint8)(size - 1u));
 237              		.loc 1 202 0
 238 0042 591E     		subs	r1, r3, #1
 239 0044 C9B2     		uxtb	r1, r1
 240 0046 2170     		strb	r1, [r4]
 241              	.LVL16:
 203:.\Generated_Source\PSoC5/CySpc.c **** 
 204:.\Generated_Source\PSoC5/CySpc.c ****                 for(i = 0u; i < size; i++)
 242              		.loc 1 204 0
 243 0048 0021     		movs	r1, #0
 244 004a 03E0     		b	.L18
 245              	.LVL17:
 246              	.L19:
ARM GAS  C:\Users\Nick\AppData\Local\Temp\ccJGCe3H.s 			page 9


 205:.\Generated_Source\PSoC5/CySpc.c ****                 {
 206:.\Generated_Source\PSoC5/CySpc.c ****                     CY_SPC_CPU_DATA_REG = buffer[i];
 247              		.loc 1 206 0 discriminator 2
 248 004c 505C     		ldrb	r0, [r2, r1]	@ zero_extendqisi2
 249 004e 2070     		strb	r0, [r4]
 204:.\Generated_Source\PSoC5/CySpc.c ****                 for(i = 0u; i < size; i++)
 250              		.loc 1 204 0 discriminator 2
 251 0050 0131     		adds	r1, r1, #1
 252              	.LVL18:
 253 0052 C9B2     		uxtb	r1, r1
 254              	.LVL19:
 255              	.L18:
 204:.\Generated_Source\PSoC5/CySpc.c ****                 for(i = 0u; i < size; i++)
 256              		.loc 1 204 0 is_stmt 0 discriminator 1
 257 0054 9942     		cmp	r1, r3
 258 0056 F9D3     		bcc	.L19
 181:.\Generated_Source\PSoC5/CySpc.c ****     cystatus status = CYRET_STARTED;
 259              		.loc 1 181 0 is_stmt 1
 260 0058 0720     		movs	r0, #7
 261 005a 06E0     		b	.L17
 262              	.LVL20:
 263              	.L20:
 207:.\Generated_Source\PSoC5/CySpc.c ****                 }
 208:.\Generated_Source\PSoC5/CySpc.c ****             }
 209:.\Generated_Source\PSoC5/CySpc.c ****             else
 210:.\Generated_Source\PSoC5/CySpc.c ****             {
 211:.\Generated_Source\PSoC5/CySpc.c ****                 status = CYRET_CANCELED;
 212:.\Generated_Source\PSoC5/CySpc.c ****             }
 213:.\Generated_Source\PSoC5/CySpc.c ****         }
 214:.\Generated_Source\PSoC5/CySpc.c ****         else
 215:.\Generated_Source\PSoC5/CySpc.c ****         {
 216:.\Generated_Source\PSoC5/CySpc.c ****             status = CYRET_LOCKED;
 217:.\Generated_Source\PSoC5/CySpc.c ****         }
 218:.\Generated_Source\PSoC5/CySpc.c ****     }
 219:.\Generated_Source\PSoC5/CySpc.c ****     else
 220:.\Generated_Source\PSoC5/CySpc.c ****     {
 221:.\Generated_Source\PSoC5/CySpc.c ****         status = CYRET_BAD_PARAM;
 264              		.loc 1 221 0
 265 005c 0120     		movs	r0, #1
 266              	.LVL21:
 267 005e 04E0     		b	.L17
 268              	.LVL22:
 269              	.L21:
 270 0060 0120     		movs	r0, #1
 271              	.LVL23:
 272 0062 02E0     		b	.L17
 273              	.LVL24:
 274              	.L22:
 216:.\Generated_Source\PSoC5/CySpc.c ****             status = CYRET_LOCKED;
 275              		.loc 1 216 0
 276 0064 0420     		movs	r0, #4
 277              	.LVL25:
 278 0066 00E0     		b	.L17
 279              	.LVL26:
 280              	.L23:
 211:.\Generated_Source\PSoC5/CySpc.c ****                 status = CYRET_CANCELED;
 281              		.loc 1 211 0
ARM GAS  C:\Users\Nick\AppData\Local\Temp\ccJGCe3H.s 			page 10


 282 0068 0920     		movs	r0, #9
 283              	.LVL27:
 284              	.L17:
 222:.\Generated_Source\PSoC5/CySpc.c ****     }
 223:.\Generated_Source\PSoC5/CySpc.c **** 
 224:.\Generated_Source\PSoC5/CySpc.c ****     return(status);
 225:.\Generated_Source\PSoC5/CySpc.c **** }
 285              		.loc 1 225 0
 286 006a 30BC     		pop	{r4, r5}
 287 006c 7047     		bx	lr
 288              	.L25:
 289 006e 00BF     		.align	2
 290              	.L24:
 291 0070 22470040 		.word	1073760034
 292 0074 20470040 		.word	1073760032
 293              		.cfi_endproc
 294              	.LFE3:
 295              		.size	CySpcLoadMultiByte, .-CySpcLoadMultiByte
 296              		.section	.text.CySpcLoadRow,"ax",%progbits
 297              		.align	2
 298              		.global	CySpcLoadRow
 299              		.thumb
 300              		.thumb_func
 301              		.type	CySpcLoadRow, %function
 302              	CySpcLoadRow:
 303              	.LFB4:
 226:.\Generated_Source\PSoC5/CySpc.c **** 
 227:.\Generated_Source\PSoC5/CySpc.c **** 
 228:.\Generated_Source\PSoC5/CySpc.c **** /*******************************************************************************
 229:.\Generated_Source\PSoC5/CySpc.c **** * Function Name: CySpcLoadRow
 230:.\Generated_Source\PSoC5/CySpc.c **** ********************************************************************************
 231:.\Generated_Source\PSoC5/CySpc.c **** * Summary:
 232:.\Generated_Source\PSoC5/CySpc.c **** *  Loads a row of data into the row latch of a Flash/EEPROM array.
 233:.\Generated_Source\PSoC5/CySpc.c **** *
 234:.\Generated_Source\PSoC5/CySpc.c **** *  The buffer pointer should point to the data that should be written to the
 235:.\Generated_Source\PSoC5/CySpc.c **** *  flash row directly (no data in ECC/flash will be preserved). It is Flash API
 236:.\Generated_Source\PSoC5/CySpc.c **** *  responsibility to prepare data: the preserved data are copied from flash into
 237:.\Generated_Source\PSoC5/CySpc.c **** *  array with the modified data.
 238:.\Generated_Source\PSoC5/CySpc.c **** *
 239:.\Generated_Source\PSoC5/CySpc.c **** * Parameters:
 240:.\Generated_Source\PSoC5/CySpc.c **** *  uint8 array:
 241:.\Generated_Source\PSoC5/CySpc.c **** *   Id of the array.
 242:.\Generated_Source\PSoC5/CySpc.c **** *
 243:.\Generated_Source\PSoC5/CySpc.c **** *  uint8* buffer:
 244:.\Generated_Source\PSoC5/CySpc.c **** *   Data to be loaded to the row latch
 245:.\Generated_Source\PSoC5/CySpc.c **** *
 246:.\Generated_Source\PSoC5/CySpc.c **** *  uint8 size:
 247:.\Generated_Source\PSoC5/CySpc.c **** *   The number of data bytes that the SPC expects to be written. Depends on the
 248:.\Generated_Source\PSoC5/CySpc.c **** *   type of the array and, if the array is Flash, whether ECC is being enabled
 249:.\Generated_Source\PSoC5/CySpc.c **** *   or not. There are following values: flash row latch size with ECC enabled,
 250:.\Generated_Source\PSoC5/CySpc.c **** *   flash row latch size with ECC disabled and EEPROM row latch size.
 251:.\Generated_Source\PSoC5/CySpc.c **** *
 252:.\Generated_Source\PSoC5/CySpc.c **** * Return:
 253:.\Generated_Source\PSoC5/CySpc.c **** *  CYRET_STARTED
 254:.\Generated_Source\PSoC5/CySpc.c **** *  CYRET_CANCELED
 255:.\Generated_Source\PSoC5/CySpc.c **** *  CYRET_LOCKED
 256:.\Generated_Source\PSoC5/CySpc.c **** *
ARM GAS  C:\Users\Nick\AppData\Local\Temp\ccJGCe3H.s 			page 11


 257:.\Generated_Source\PSoC5/CySpc.c **** *******************************************************************************/
 258:.\Generated_Source\PSoC5/CySpc.c **** cystatus CySpcLoadRow(uint8 array, const uint8 buffer[], uint16 size)
 259:.\Generated_Source\PSoC5/CySpc.c **** {
 304              		.loc 1 259 0
 305              		.cfi_startproc
 306              		@ args = 0, pretend = 0, frame = 0
 307              		@ frame_needed = 0, uses_anonymous_args = 0
 308              		@ link register save eliminated.
 309              	.LVL28:
 310 0000 10B4     		push	{r4}
 311              		.cfi_def_cfa_offset 4
 312              		.cfi_offset 4, -4
 313              	.LVL29:
 260:.\Generated_Source\PSoC5/CySpc.c ****     cystatus status = CYRET_STARTED;
 261:.\Generated_Source\PSoC5/CySpc.c ****     uint16 i;
 262:.\Generated_Source\PSoC5/CySpc.c **** 
 263:.\Generated_Source\PSoC5/CySpc.c ****     /* Make sure the SPC is ready to accept command */
 264:.\Generated_Source\PSoC5/CySpc.c ****     if(CY_SPC_IDLE)
 314              		.loc 1 264 0
 315 0002 124B     		ldr	r3, .L32
 316 0004 1B78     		ldrb	r3, [r3]	@ zero_extendqisi2
 317 0006 13F0020F 		tst	r3, #2
 318 000a 18D0     		beq	.L30
 265:.\Generated_Source\PSoC5/CySpc.c ****     {
 266:.\Generated_Source\PSoC5/CySpc.c ****         CY_SPC_CPU_DATA_REG = CY_SPC_KEY_ONE;
 319              		.loc 1 266 0
 320 000c 104B     		ldr	r3, .L32+4
 321 000e B624     		movs	r4, #182
 322 0010 1C70     		strb	r4, [r3]
 267:.\Generated_Source\PSoC5/CySpc.c ****         CY_SPC_CPU_DATA_REG = CY_SPC_KEY_TWO(CY_SPC_CMD_LD_ROW);
 323              		.loc 1 267 0
 324 0012 D524     		movs	r4, #213
 325 0014 1C70     		strb	r4, [r3]
 268:.\Generated_Source\PSoC5/CySpc.c ****         CY_SPC_CPU_DATA_REG = CY_SPC_CMD_LD_ROW;
 326              		.loc 1 268 0
 327 0016 0224     		movs	r4, #2
 328 0018 1C70     		strb	r4, [r3]
 269:.\Generated_Source\PSoC5/CySpc.c **** 
 270:.\Generated_Source\PSoC5/CySpc.c ****         /* Make sure the command was accepted */
 271:.\Generated_Source\PSoC5/CySpc.c ****         if(CY_SPC_BUSY)
 329              		.loc 1 271 0
 330 001a 0233     		adds	r3, r3, #2
 331 001c 1B78     		ldrb	r3, [r3]	@ zero_extendqisi2
 332 001e 13F0020F 		tst	r3, #2
 333 0022 0ED1     		bne	.L31
 272:.\Generated_Source\PSoC5/CySpc.c ****         {
 273:.\Generated_Source\PSoC5/CySpc.c ****             CY_SPC_CPU_DATA_REG = array;
 334              		.loc 1 273 0
 335 0024 0A4B     		ldr	r3, .L32+4
 336 0026 1870     		strb	r0, [r3]
 337              	.LVL30:
 274:.\Generated_Source\PSoC5/CySpc.c **** 
 275:.\Generated_Source\PSoC5/CySpc.c ****             for(i = 0u; i < size; i++)
 338              		.loc 1 275 0
 339 0028 0023     		movs	r3, #0
 276:.\Generated_Source\PSoC5/CySpc.c ****             {
 277:.\Generated_Source\PSoC5/CySpc.c ****                 CY_SPC_CPU_DATA_REG = buffer[i];
ARM GAS  C:\Users\Nick\AppData\Local\Temp\ccJGCe3H.s 			page 12


 340              		.loc 1 277 0
 341 002a 094C     		ldr	r4, .L32+4
 275:.\Generated_Source\PSoC5/CySpc.c ****             for(i = 0u; i < size; i++)
 342              		.loc 1 275 0
 343 002c 03E0     		b	.L28
 344              	.LVL31:
 345              	.L29:
 346              		.loc 1 277 0 discriminator 2
 347 002e C85C     		ldrb	r0, [r1, r3]	@ zero_extendqisi2
 348 0030 2070     		strb	r0, [r4]
 275:.\Generated_Source\PSoC5/CySpc.c ****             for(i = 0u; i < size; i++)
 349              		.loc 1 275 0 discriminator 2
 350 0032 0133     		adds	r3, r3, #1
 351              	.LVL32:
 352 0034 9BB2     		uxth	r3, r3
 353              	.LVL33:
 354              	.L28:
 275:.\Generated_Source\PSoC5/CySpc.c ****             for(i = 0u; i < size; i++)
 355              		.loc 1 275 0 is_stmt 0 discriminator 1
 356 0036 9342     		cmp	r3, r2
 357 0038 F9D3     		bcc	.L29
 260:.\Generated_Source\PSoC5/CySpc.c ****     cystatus status = CYRET_STARTED;
 358              		.loc 1 260 0 is_stmt 1
 359 003a 0720     		movs	r0, #7
 360 003c 02E0     		b	.L27
 361              	.LVL34:
 362              	.L30:
 278:.\Generated_Source\PSoC5/CySpc.c ****             }
 279:.\Generated_Source\PSoC5/CySpc.c ****         }
 280:.\Generated_Source\PSoC5/CySpc.c ****         else
 281:.\Generated_Source\PSoC5/CySpc.c ****         {
 282:.\Generated_Source\PSoC5/CySpc.c ****             status = CYRET_CANCELED;
 283:.\Generated_Source\PSoC5/CySpc.c ****         }
 284:.\Generated_Source\PSoC5/CySpc.c ****     }
 285:.\Generated_Source\PSoC5/CySpc.c ****     else
 286:.\Generated_Source\PSoC5/CySpc.c ****     {
 287:.\Generated_Source\PSoC5/CySpc.c ****         status = CYRET_LOCKED;
 363              		.loc 1 287 0
 364 003e 0420     		movs	r0, #4
 365              	.LVL35:
 366 0040 00E0     		b	.L27
 367              	.LVL36:
 368              	.L31:
 282:.\Generated_Source\PSoC5/CySpc.c ****             status = CYRET_CANCELED;
 369              		.loc 1 282 0
 370 0042 0920     		movs	r0, #9
 371              	.LVL37:
 372              	.L27:
 288:.\Generated_Source\PSoC5/CySpc.c ****     }
 289:.\Generated_Source\PSoC5/CySpc.c **** 
 290:.\Generated_Source\PSoC5/CySpc.c ****     return(status);
 291:.\Generated_Source\PSoC5/CySpc.c **** }
 373              		.loc 1 291 0
 374 0044 5DF8044B 		ldr	r4, [sp], #4
 375 0048 7047     		bx	lr
 376              	.L33:
 377 004a 00BF     		.align	2
ARM GAS  C:\Users\Nick\AppData\Local\Temp\ccJGCe3H.s 			page 13


 378              	.L32:
 379 004c 22470040 		.word	1073760034
 380 0050 20470040 		.word	1073760032
 381              		.cfi_endproc
 382              	.LFE4:
 383              		.size	CySpcLoadRow, .-CySpcLoadRow
 384              		.section	.text.CySpcLoadRowFull,"ax",%progbits
 385              		.align	2
 386              		.global	CySpcLoadRowFull
 387              		.thumb
 388              		.thumb_func
 389              		.type	CySpcLoadRowFull, %function
 390              	CySpcLoadRowFull:
 391              	.LFB5:
 292:.\Generated_Source\PSoC5/CySpc.c **** 
 293:.\Generated_Source\PSoC5/CySpc.c **** 
 294:.\Generated_Source\PSoC5/CySpc.c **** /*******************************************************************************
 295:.\Generated_Source\PSoC5/CySpc.c **** * Function Name: CySpcLoadRowFull
 296:.\Generated_Source\PSoC5/CySpc.c **** ********************************************************************************
 297:.\Generated_Source\PSoC5/CySpc.c **** * Summary:
 298:.\Generated_Source\PSoC5/CySpc.c **** *  Loads a row of data into the row latch of a Flash/EEPROM array.
 299:.\Generated_Source\PSoC5/CySpc.c **** *
 300:.\Generated_Source\PSoC5/CySpc.c **** *  The only data that are going to be changed should be passed. The function
 301:.\Generated_Source\PSoC5/CySpc.c **** *  will handle unmodified data preservation based on DWR settings and input
 302:.\Generated_Source\PSoC5/CySpc.c **** *  parameters.
 303:.\Generated_Source\PSoC5/CySpc.c **** *
 304:.\Generated_Source\PSoC5/CySpc.c **** * Parameters:
 305:.\Generated_Source\PSoC5/CySpc.c **** *  uint8 array:
 306:.\Generated_Source\PSoC5/CySpc.c **** *   Id of the array.
 307:.\Generated_Source\PSoC5/CySpc.c **** *
 308:.\Generated_Source\PSoC5/CySpc.c **** *  uint16 row:
 309:.\Generated_Source\PSoC5/CySpc.c **** *   Flash row number to be loaded.
 310:.\Generated_Source\PSoC5/CySpc.c **** *
 311:.\Generated_Source\PSoC5/CySpc.c **** *  uint8* buffer:
 312:.\Generated_Source\PSoC5/CySpc.c **** *   Data to be loaded to the row latch
 313:.\Generated_Source\PSoC5/CySpc.c **** *
 314:.\Generated_Source\PSoC5/CySpc.c **** *  uint8 size:
 315:.\Generated_Source\PSoC5/CySpc.c **** *   The number of data bytes that the SPC expects to be written. Depends on the
 316:.\Generated_Source\PSoC5/CySpc.c **** *   type of the array and, if the array is Flash, whether ECC is being enabled
 317:.\Generated_Source\PSoC5/CySpc.c **** *   or not. There are following values: flash row latch size with ECC enabled,
 318:.\Generated_Source\PSoC5/CySpc.c **** *   flash row latch size with ECC disabled and EEPROM row latch size.
 319:.\Generated_Source\PSoC5/CySpc.c **** *
 320:.\Generated_Source\PSoC5/CySpc.c **** * Return:
 321:.\Generated_Source\PSoC5/CySpc.c **** *  CYRET_STARTED
 322:.\Generated_Source\PSoC5/CySpc.c **** *  CYRET_CANCELED
 323:.\Generated_Source\PSoC5/CySpc.c **** *  CYRET_LOCKED
 324:.\Generated_Source\PSoC5/CySpc.c **** *
 325:.\Generated_Source\PSoC5/CySpc.c **** *******************************************************************************/
 326:.\Generated_Source\PSoC5/CySpc.c **** cystatus CySpcLoadRowFull(uint8 array, uint16 row, const uint8 buffer[], uint16 size)\
 327:.\Generated_Source\PSoC5/CySpc.c **** 
 328:.\Generated_Source\PSoC5/CySpc.c **** {
 392              		.loc 1 328 0
 393              		.cfi_startproc
 394              		@ args = 0, pretend = 0, frame = 0
 395              		@ frame_needed = 0, uses_anonymous_args = 0
 396              		@ link register save eliminated.
 397              	.LVL38:
ARM GAS  C:\Users\Nick\AppData\Local\Temp\ccJGCe3H.s 			page 14


 398 0000 10B4     		push	{r4}
 399              		.cfi_def_cfa_offset 4
 400              		.cfi_offset 4, -4
 401              	.LVL39:
 329:.\Generated_Source\PSoC5/CySpc.c ****     cystatus status = CYRET_STARTED;
 330:.\Generated_Source\PSoC5/CySpc.c ****     uint16 i;
 331:.\Generated_Source\PSoC5/CySpc.c **** 
 332:.\Generated_Source\PSoC5/CySpc.c ****     #if (CYDEV_ECC_ENABLE == 0)
 333:.\Generated_Source\PSoC5/CySpc.c ****         uint32 offset;
 334:.\Generated_Source\PSoC5/CySpc.c ****     #endif /* (CYDEV_ECC_ENABLE == 0) */
 335:.\Generated_Source\PSoC5/CySpc.c **** 
 336:.\Generated_Source\PSoC5/CySpc.c ****     /* Make sure the SPC is ready to accept command */
 337:.\Generated_Source\PSoC5/CySpc.c ****     if(CY_SPC_IDLE)
 402              		.loc 1 337 0
 403 0002 1249     		ldr	r1, .L40
 404              	.LVL40:
 405 0004 0978     		ldrb	r1, [r1]	@ zero_extendqisi2
 406 0006 11F0020F 		tst	r1, #2
 407 000a 18D0     		beq	.L38
 338:.\Generated_Source\PSoC5/CySpc.c ****     {
 339:.\Generated_Source\PSoC5/CySpc.c ****         CY_SPC_CPU_DATA_REG = CY_SPC_KEY_ONE;
 408              		.loc 1 339 0
 409 000c 1049     		ldr	r1, .L40+4
 410 000e B624     		movs	r4, #182
 411 0010 0C70     		strb	r4, [r1]
 340:.\Generated_Source\PSoC5/CySpc.c ****         CY_SPC_CPU_DATA_REG = CY_SPC_KEY_TWO(CY_SPC_CMD_LD_ROW);
 412              		.loc 1 340 0
 413 0012 D524     		movs	r4, #213
 414 0014 0C70     		strb	r4, [r1]
 341:.\Generated_Source\PSoC5/CySpc.c ****         CY_SPC_CPU_DATA_REG = CY_SPC_CMD_LD_ROW;
 415              		.loc 1 341 0
 416 0016 0224     		movs	r4, #2
 417 0018 0C70     		strb	r4, [r1]
 342:.\Generated_Source\PSoC5/CySpc.c **** 
 343:.\Generated_Source\PSoC5/CySpc.c ****         /* Make sure the command was accepted */
 344:.\Generated_Source\PSoC5/CySpc.c ****         if(CY_SPC_BUSY)
 418              		.loc 1 344 0
 419 001a 0231     		adds	r1, r1, #2
 420 001c 0978     		ldrb	r1, [r1]	@ zero_extendqisi2
 421 001e 11F0020F 		tst	r1, #2
 422 0022 0ED1     		bne	.L39
 345:.\Generated_Source\PSoC5/CySpc.c ****         {
 346:.\Generated_Source\PSoC5/CySpc.c ****             CY_SPC_CPU_DATA_REG = array;
 423              		.loc 1 346 0
 424 0024 0A49     		ldr	r1, .L40+4
 425 0026 0870     		strb	r0, [r1]
 426              	.LVL41:
 347:.\Generated_Source\PSoC5/CySpc.c **** 
 348:.\Generated_Source\PSoC5/CySpc.c ****             /*******************************************************************
 349:.\Generated_Source\PSoC5/CySpc.c ****             * If "Enable Error Correcting Code (ECC)" and "Store Configuration
 350:.\Generated_Source\PSoC5/CySpc.c ****             * Data in ECC" DWR options are disabled, ECC section is available
 351:.\Generated_Source\PSoC5/CySpc.c ****             * for user data.
 352:.\Generated_Source\PSoC5/CySpc.c ****             *******************************************************************/
 353:.\Generated_Source\PSoC5/CySpc.c ****             #if ((CYDEV_ECC_ENABLE == 0u) && (CYDEV_CONFIGURATION_ECC == 0u))
 354:.\Generated_Source\PSoC5/CySpc.c **** 
 355:.\Generated_Source\PSoC5/CySpc.c ****                 /*******************************************************************
 356:.\Generated_Source\PSoC5/CySpc.c ****                 * If size parameter equals size of the ECC row and selected array
ARM GAS  C:\Users\Nick\AppData\Local\Temp\ccJGCe3H.s 			page 15


 357:.\Generated_Source\PSoC5/CySpc.c ****                 * identification corresponds to the flash array (but not to EEPROM
 358:.\Generated_Source\PSoC5/CySpc.c ****                 * array) then data are going to be written to the ECC section.
 359:.\Generated_Source\PSoC5/CySpc.c ****                 * In this case flash data must be preserved. The flash data copied
 360:.\Generated_Source\PSoC5/CySpc.c ****                 * from flash data section to the SPC data register.
 361:.\Generated_Source\PSoC5/CySpc.c ****                 *******************************************************************/
 362:.\Generated_Source\PSoC5/CySpc.c ****                 if ((size == CYDEV_ECC_ROW_SIZE) && (array <= CY_SPC_LAST_FLASH_ARRAYID))
 363:.\Generated_Source\PSoC5/CySpc.c ****                 {
 364:.\Generated_Source\PSoC5/CySpc.c ****                     offset = CYDEV_FLS_BASE +
 365:.\Generated_Source\PSoC5/CySpc.c ****                              ((uint32) array * CYDEV_FLS_SECTOR_SIZE) +
 366:.\Generated_Source\PSoC5/CySpc.c ****                              ((uint32)   row * CYDEV_FLS_ROW_SIZE   );
 367:.\Generated_Source\PSoC5/CySpc.c **** 
 368:.\Generated_Source\PSoC5/CySpc.c ****                     for (i = 0u; i < CYDEV_FLS_ROW_SIZE; i++)
 369:.\Generated_Source\PSoC5/CySpc.c ****                     {
 370:.\Generated_Source\PSoC5/CySpc.c ****                         CY_SPC_CPU_DATA_REG = CY_GET_XTND_REG8((void CYFAR *)(offset + i));
 371:.\Generated_Source\PSoC5/CySpc.c ****                     }
 372:.\Generated_Source\PSoC5/CySpc.c ****                 }
 373:.\Generated_Source\PSoC5/CySpc.c **** 
 374:.\Generated_Source\PSoC5/CySpc.c ****             #endif /* ((CYDEV_ECC_ENABLE == 0u) && (CYDEV_CONFIGURATION_ECC == 0u)) */
 375:.\Generated_Source\PSoC5/CySpc.c **** 
 376:.\Generated_Source\PSoC5/CySpc.c **** 
 377:.\Generated_Source\PSoC5/CySpc.c ****             for(i = 0u; i < size; i++)
 427              		.loc 1 377 0
 428 0028 0021     		movs	r1, #0
 378:.\Generated_Source\PSoC5/CySpc.c ****             {
 379:.\Generated_Source\PSoC5/CySpc.c ****                 CY_SPC_CPU_DATA_REG = buffer[i];
 429              		.loc 1 379 0
 430 002a 094C     		ldr	r4, .L40+4
 377:.\Generated_Source\PSoC5/CySpc.c ****             for(i = 0u; i < size; i++)
 431              		.loc 1 377 0
 432 002c 03E0     		b	.L36
 433              	.LVL42:
 434              	.L37:
 435              		.loc 1 379 0 discriminator 2
 436 002e 505C     		ldrb	r0, [r2, r1]	@ zero_extendqisi2
 437 0030 2070     		strb	r0, [r4]
 377:.\Generated_Source\PSoC5/CySpc.c ****             for(i = 0u; i < size; i++)
 438              		.loc 1 377 0 discriminator 2
 439 0032 0131     		adds	r1, r1, #1
 440              	.LVL43:
 441 0034 89B2     		uxth	r1, r1
 442              	.LVL44:
 443              	.L36:
 377:.\Generated_Source\PSoC5/CySpc.c ****             for(i = 0u; i < size; i++)
 444              		.loc 1 377 0 is_stmt 0 discriminator 1
 445 0036 9942     		cmp	r1, r3
 446 0038 F9D3     		bcc	.L37
 329:.\Generated_Source\PSoC5/CySpc.c ****     cystatus status = CYRET_STARTED;
 447              		.loc 1 329 0 is_stmt 1
 448 003a 0720     		movs	r0, #7
 449 003c 02E0     		b	.L35
 450              	.LVL45:
 451              	.L38:
 380:.\Generated_Source\PSoC5/CySpc.c ****             }
 381:.\Generated_Source\PSoC5/CySpc.c **** 
 382:.\Generated_Source\PSoC5/CySpc.c **** 
 383:.\Generated_Source\PSoC5/CySpc.c ****             /*******************************************************************
 384:.\Generated_Source\PSoC5/CySpc.c ****             * If "Enable Error Correcting Code (ECC)" DWR option is disabled,
ARM GAS  C:\Users\Nick\AppData\Local\Temp\ccJGCe3H.s 			page 16


 385:.\Generated_Source\PSoC5/CySpc.c ****             * ECC section can be used for storing device configuration data
 386:.\Generated_Source\PSoC5/CySpc.c ****             * ("Store Configuration Data in ECC" DWR option is enabled) or for
 387:.\Generated_Source\PSoC5/CySpc.c ****             * storing user data in the ECC section ("Store Configuration Data in
 388:.\Generated_Source\PSoC5/CySpc.c ****             * ECC" DWR option is enabled). In both cases, the data in the ECC
 389:.\Generated_Source\PSoC5/CySpc.c ****             * section must be preserved if flash data is written.
 390:.\Generated_Source\PSoC5/CySpc.c ****             *******************************************************************/
 391:.\Generated_Source\PSoC5/CySpc.c ****             #if (CYDEV_ECC_ENABLE == 0)
 392:.\Generated_Source\PSoC5/CySpc.c **** 
 393:.\Generated_Source\PSoC5/CySpc.c **** 
 394:.\Generated_Source\PSoC5/CySpc.c ****                 /*******************************************************************
 395:.\Generated_Source\PSoC5/CySpc.c ****                 * If size parameter equals size of the flash row and selected array
 396:.\Generated_Source\PSoC5/CySpc.c ****                 * identification corresponds to the flash array (but not to EEPROM
 397:.\Generated_Source\PSoC5/CySpc.c ****                 * array) then data are going to be written to the flash data
 398:.\Generated_Source\PSoC5/CySpc.c ****                 * section. In this case, ECC section data must be preserved.
 399:.\Generated_Source\PSoC5/CySpc.c ****                 * The ECC section data copied from ECC section to the SPC data
 400:.\Generated_Source\PSoC5/CySpc.c ****                 * register.
 401:.\Generated_Source\PSoC5/CySpc.c ****                 *******************************************************************/
 402:.\Generated_Source\PSoC5/CySpc.c ****                 if ((size == CYDEV_FLS_ROW_SIZE) && (array <= CY_SPC_LAST_FLASH_ARRAYID))
 403:.\Generated_Source\PSoC5/CySpc.c ****                 {
 404:.\Generated_Source\PSoC5/CySpc.c ****                     offset = CYDEV_ECC_BASE +
 405:.\Generated_Source\PSoC5/CySpc.c ****                             ((uint32) array * CYDEV_ECC_SECTOR_SIZE) +
 406:.\Generated_Source\PSoC5/CySpc.c ****                             ((uint32) row   * CYDEV_ECC_ROW_SIZE   );
 407:.\Generated_Source\PSoC5/CySpc.c **** 
 408:.\Generated_Source\PSoC5/CySpc.c ****                     for (i = 0u; i < CYDEV_ECC_ROW_SIZE; i++)
 409:.\Generated_Source\PSoC5/CySpc.c ****                     {
 410:.\Generated_Source\PSoC5/CySpc.c ****                         CY_SPC_CPU_DATA_REG = CY_GET_XTND_REG8((void CYFAR *)(offset + i));
 411:.\Generated_Source\PSoC5/CySpc.c ****                     }
 412:.\Generated_Source\PSoC5/CySpc.c ****                 }
 413:.\Generated_Source\PSoC5/CySpc.c **** 
 414:.\Generated_Source\PSoC5/CySpc.c ****             #else
 415:.\Generated_Source\PSoC5/CySpc.c **** 
 416:.\Generated_Source\PSoC5/CySpc.c ****                 if(0u != row)
 417:.\Generated_Source\PSoC5/CySpc.c ****                 {
 418:.\Generated_Source\PSoC5/CySpc.c ****                     /* To remove unreferenced local variable warning */
 419:.\Generated_Source\PSoC5/CySpc.c ****                 }
 420:.\Generated_Source\PSoC5/CySpc.c **** 
 421:.\Generated_Source\PSoC5/CySpc.c ****             #endif /* (CYDEV_ECC_ENABLE == 0) */
 422:.\Generated_Source\PSoC5/CySpc.c ****         }
 423:.\Generated_Source\PSoC5/CySpc.c ****         else
 424:.\Generated_Source\PSoC5/CySpc.c ****         {
 425:.\Generated_Source\PSoC5/CySpc.c ****             status = CYRET_CANCELED;
 426:.\Generated_Source\PSoC5/CySpc.c ****         }
 427:.\Generated_Source\PSoC5/CySpc.c ****     }
 428:.\Generated_Source\PSoC5/CySpc.c ****     else
 429:.\Generated_Source\PSoC5/CySpc.c ****     {
 430:.\Generated_Source\PSoC5/CySpc.c ****         status = CYRET_LOCKED;
 452              		.loc 1 430 0
 453 003e 0420     		movs	r0, #4
 454              	.LVL46:
 455 0040 00E0     		b	.L35
 456              	.LVL47:
 457              	.L39:
 425:.\Generated_Source\PSoC5/CySpc.c ****             status = CYRET_CANCELED;
 458              		.loc 1 425 0
 459 0042 0920     		movs	r0, #9
 460              	.LVL48:
 461              	.L35:
ARM GAS  C:\Users\Nick\AppData\Local\Temp\ccJGCe3H.s 			page 17


 431:.\Generated_Source\PSoC5/CySpc.c ****     }
 432:.\Generated_Source\PSoC5/CySpc.c **** 
 433:.\Generated_Source\PSoC5/CySpc.c ****     return(status);
 434:.\Generated_Source\PSoC5/CySpc.c **** }
 462              		.loc 1 434 0
 463 0044 5DF8044B 		ldr	r4, [sp], #4
 464 0048 7047     		bx	lr
 465              	.L41:
 466 004a 00BF     		.align	2
 467              	.L40:
 468 004c 22470040 		.word	1073760034
 469 0050 20470040 		.word	1073760032
 470              		.cfi_endproc
 471              	.LFE5:
 472              		.size	CySpcLoadRowFull, .-CySpcLoadRowFull
 473              		.section	.text.CySpcWriteRow,"ax",%progbits
 474              		.align	2
 475              		.global	CySpcWriteRow
 476              		.thumb
 477              		.thumb_func
 478              		.type	CySpcWriteRow, %function
 479              	CySpcWriteRow:
 480              	.LFB6:
 435:.\Generated_Source\PSoC5/CySpc.c **** 
 436:.\Generated_Source\PSoC5/CySpc.c **** 
 437:.\Generated_Source\PSoC5/CySpc.c **** /*******************************************************************************
 438:.\Generated_Source\PSoC5/CySpc.c **** * Function Name: CySpcWriteRow
 439:.\Generated_Source\PSoC5/CySpc.c **** ********************************************************************************
 440:.\Generated_Source\PSoC5/CySpc.c **** * Summary:
 441:.\Generated_Source\PSoC5/CySpc.c **** *  Erases then programs a row in Flash/EEPROM with data in row latch.
 442:.\Generated_Source\PSoC5/CySpc.c **** *
 443:.\Generated_Source\PSoC5/CySpc.c **** * Parameters:
 444:.\Generated_Source\PSoC5/CySpc.c **** *  uint8 array:
 445:.\Generated_Source\PSoC5/CySpc.c **** *   Id of the array.
 446:.\Generated_Source\PSoC5/CySpc.c **** *
 447:.\Generated_Source\PSoC5/CySpc.c **** *  uint16 address:
 448:.\Generated_Source\PSoC5/CySpc.c **** *   flash/eeprom addrress
 449:.\Generated_Source\PSoC5/CySpc.c **** *
 450:.\Generated_Source\PSoC5/CySpc.c **** *  uint8 tempPolarity:
 451:.\Generated_Source\PSoC5/CySpc.c **** *   temperature polarity.
 452:.\Generated_Source\PSoC5/CySpc.c **** *   1: the Temp Magnitude is interpreted as a positive value
 453:.\Generated_Source\PSoC5/CySpc.c **** *   0: the Temp Magnitude is interpreted as a negative value
 454:.\Generated_Source\PSoC5/CySpc.c **** *
 455:.\Generated_Source\PSoC5/CySpc.c **** *  uint8 tempMagnitude:
 456:.\Generated_Source\PSoC5/CySpc.c **** *   temperature magnitude.
 457:.\Generated_Source\PSoC5/CySpc.c **** *
 458:.\Generated_Source\PSoC5/CySpc.c **** * Return:
 459:.\Generated_Source\PSoC5/CySpc.c **** *  CYRET_STARTED
 460:.\Generated_Source\PSoC5/CySpc.c **** *  CYRET_CANCELED
 461:.\Generated_Source\PSoC5/CySpc.c **** *  CYRET_LOCKED
 462:.\Generated_Source\PSoC5/CySpc.c **** *
 463:.\Generated_Source\PSoC5/CySpc.c **** *******************************************************************************/
 464:.\Generated_Source\PSoC5/CySpc.c **** cystatus CySpcWriteRow(uint8 array, uint16 address, uint8 tempPolarity, uint8 tempMagnitude)\
 465:.\Generated_Source\PSoC5/CySpc.c **** 
 466:.\Generated_Source\PSoC5/CySpc.c **** {
 481              		.loc 1 466 0
 482              		.cfi_startproc
ARM GAS  C:\Users\Nick\AppData\Local\Temp\ccJGCe3H.s 			page 18


 483              		@ args = 0, pretend = 0, frame = 0
 484              		@ frame_needed = 0, uses_anonymous_args = 0
 485              		@ link register save eliminated.
 486              	.LVL49:
 487 0000 30B4     		push	{r4, r5}
 488              		.cfi_def_cfa_offset 8
 489              		.cfi_offset 4, -8
 490              		.cfi_offset 5, -4
 491              	.LVL50:
 467:.\Generated_Source\PSoC5/CySpc.c ****     cystatus status = CYRET_STARTED;
 468:.\Generated_Source\PSoC5/CySpc.c **** 
 469:.\Generated_Source\PSoC5/CySpc.c ****     /* Make sure the SPC is ready to accept command */
 470:.\Generated_Source\PSoC5/CySpc.c ****     if(CY_SPC_IDLE)
 492              		.loc 1 470 0
 493 0002 104C     		ldr	r4, .L46
 494 0004 2478     		ldrb	r4, [r4]	@ zero_extendqisi2
 495 0006 14F0020F 		tst	r4, #2
 496 000a 15D0     		beq	.L44
 471:.\Generated_Source\PSoC5/CySpc.c ****     {
 472:.\Generated_Source\PSoC5/CySpc.c ****         CY_SPC_CPU_DATA_REG = CY_SPC_KEY_ONE;
 497              		.loc 1 472 0
 498 000c 0E4C     		ldr	r4, .L46+4
 499 000e B625     		movs	r5, #182
 500 0010 2570     		strb	r5, [r4]
 473:.\Generated_Source\PSoC5/CySpc.c ****         CY_SPC_CPU_DATA_REG = CY_SPC_KEY_TWO(CY_SPC_CMD_WR_ROW);
 501              		.loc 1 473 0
 502 0012 D825     		movs	r5, #216
 503 0014 2570     		strb	r5, [r4]
 474:.\Generated_Source\PSoC5/CySpc.c ****         CY_SPC_CPU_DATA_REG = CY_SPC_CMD_WR_ROW;
 504              		.loc 1 474 0
 505 0016 0525     		movs	r5, #5
 506 0018 2570     		strb	r5, [r4]
 475:.\Generated_Source\PSoC5/CySpc.c **** 
 476:.\Generated_Source\PSoC5/CySpc.c ****         /* Make sure the command was accepted */
 477:.\Generated_Source\PSoC5/CySpc.c ****         if(CY_SPC_BUSY)
 507              		.loc 1 477 0
 508 001a 0234     		adds	r4, r4, #2
 509 001c 2478     		ldrb	r4, [r4]	@ zero_extendqisi2
 510 001e 14F0020F 		tst	r4, #2
 511 0022 0BD1     		bne	.L45
 478:.\Generated_Source\PSoC5/CySpc.c ****         {
 479:.\Generated_Source\PSoC5/CySpc.c ****             CY_SPC_CPU_DATA_REG = array;
 512              		.loc 1 479 0
 513 0024 084C     		ldr	r4, .L46+4
 514 0026 2070     		strb	r0, [r4]
 480:.\Generated_Source\PSoC5/CySpc.c ****             CY_SPC_CPU_DATA_REG = HI8(address);
 515              		.loc 1 480 0
 516 0028 080A     		lsrs	r0, r1, #8
 517              	.LVL51:
 518 002a 2070     		strb	r0, [r4]
 519              	.LVL52:
 481:.\Generated_Source\PSoC5/CySpc.c ****             CY_SPC_CPU_DATA_REG = LO8(address);
 520              		.loc 1 481 0
 521 002c C9B2     		uxtb	r1, r1
 522              	.LVL53:
 523 002e 2170     		strb	r1, [r4]
 482:.\Generated_Source\PSoC5/CySpc.c ****             CY_SPC_CPU_DATA_REG = tempPolarity;
ARM GAS  C:\Users\Nick\AppData\Local\Temp\ccJGCe3H.s 			page 19


 524              		.loc 1 482 0
 525 0030 2270     		strb	r2, [r4]
 483:.\Generated_Source\PSoC5/CySpc.c ****             CY_SPC_CPU_DATA_REG = tempMagnitude;
 526              		.loc 1 483 0
 527 0032 2370     		strb	r3, [r4]
 467:.\Generated_Source\PSoC5/CySpc.c ****     cystatus status = CYRET_STARTED;
 528              		.loc 1 467 0
 529 0034 0720     		movs	r0, #7
 530 0036 02E0     		b	.L43
 531              	.LVL54:
 532              	.L44:
 484:.\Generated_Source\PSoC5/CySpc.c ****         }
 485:.\Generated_Source\PSoC5/CySpc.c ****         else
 486:.\Generated_Source\PSoC5/CySpc.c ****         {
 487:.\Generated_Source\PSoC5/CySpc.c ****             status = CYRET_CANCELED;
 488:.\Generated_Source\PSoC5/CySpc.c ****         }
 489:.\Generated_Source\PSoC5/CySpc.c ****     }
 490:.\Generated_Source\PSoC5/CySpc.c ****     else
 491:.\Generated_Source\PSoC5/CySpc.c ****     {
 492:.\Generated_Source\PSoC5/CySpc.c ****         status = CYRET_LOCKED;
 533              		.loc 1 492 0
 534 0038 0420     		movs	r0, #4
 535              	.LVL55:
 536 003a 00E0     		b	.L43
 537              	.LVL56:
 538              	.L45:
 487:.\Generated_Source\PSoC5/CySpc.c ****             status = CYRET_CANCELED;
 539              		.loc 1 487 0
 540 003c 0920     		movs	r0, #9
 541              	.LVL57:
 542              	.L43:
 493:.\Generated_Source\PSoC5/CySpc.c ****     }
 494:.\Generated_Source\PSoC5/CySpc.c **** 
 495:.\Generated_Source\PSoC5/CySpc.c ****     return(status);
 496:.\Generated_Source\PSoC5/CySpc.c **** }
 543              		.loc 1 496 0
 544 003e 30BC     		pop	{r4, r5}
 545 0040 7047     		bx	lr
 546              	.L47:
 547 0042 00BF     		.align	2
 548              	.L46:
 549 0044 22470040 		.word	1073760034
 550 0048 20470040 		.word	1073760032
 551              		.cfi_endproc
 552              	.LFE6:
 553              		.size	CySpcWriteRow, .-CySpcWriteRow
 554              		.section	.text.CySpcEraseSector,"ax",%progbits
 555              		.align	2
 556              		.global	CySpcEraseSector
 557              		.thumb
 558              		.thumb_func
 559              		.type	CySpcEraseSector, %function
 560              	CySpcEraseSector:
 561              	.LFB7:
 497:.\Generated_Source\PSoC5/CySpc.c **** 
 498:.\Generated_Source\PSoC5/CySpc.c **** 
 499:.\Generated_Source\PSoC5/CySpc.c **** /*******************************************************************************
ARM GAS  C:\Users\Nick\AppData\Local\Temp\ccJGCe3H.s 			page 20


 500:.\Generated_Source\PSoC5/CySpc.c **** * Function Name: CySpcEraseSector
 501:.\Generated_Source\PSoC5/CySpc.c **** ********************************************************************************
 502:.\Generated_Source\PSoC5/CySpc.c **** * Summary:
 503:.\Generated_Source\PSoC5/CySpc.c **** *  Erases all data in the addressed sector (block of 64 rows).
 504:.\Generated_Source\PSoC5/CySpc.c **** *
 505:.\Generated_Source\PSoC5/CySpc.c **** * Parameters:
 506:.\Generated_Source\PSoC5/CySpc.c **** *  uint8 array:
 507:.\Generated_Source\PSoC5/CySpc.c **** *   Id of the array.
 508:.\Generated_Source\PSoC5/CySpc.c **** *
 509:.\Generated_Source\PSoC5/CySpc.c **** *  uint8 sectorNumber:
 510:.\Generated_Source\PSoC5/CySpc.c **** *   Zero based sector number within Flash/EEPROM array
 511:.\Generated_Source\PSoC5/CySpc.c **** *
 512:.\Generated_Source\PSoC5/CySpc.c **** * Return:
 513:.\Generated_Source\PSoC5/CySpc.c **** *  CYRET_STARTED
 514:.\Generated_Source\PSoC5/CySpc.c **** *  CYRET_CANCELED
 515:.\Generated_Source\PSoC5/CySpc.c **** *  CYRET_LOCKED
 516:.\Generated_Source\PSoC5/CySpc.c **** *
 517:.\Generated_Source\PSoC5/CySpc.c **** *******************************************************************************/
 518:.\Generated_Source\PSoC5/CySpc.c **** cystatus CySpcEraseSector(uint8 array, uint8 sectorNumber)
 519:.\Generated_Source\PSoC5/CySpc.c **** {
 562              		.loc 1 519 0
 563              		.cfi_startproc
 564              		@ args = 0, pretend = 0, frame = 0
 565              		@ frame_needed = 0, uses_anonymous_args = 0
 566              		@ link register save eliminated.
 567              	.LVL58:
 520:.\Generated_Source\PSoC5/CySpc.c ****     cystatus status = CYRET_STARTED;
 521:.\Generated_Source\PSoC5/CySpc.c **** 
 522:.\Generated_Source\PSoC5/CySpc.c ****     /* Make sure the SPC is ready to accept command */
 523:.\Generated_Source\PSoC5/CySpc.c ****     if(CY_SPC_IDLE)
 568              		.loc 1 523 0
 569 0000 0C4B     		ldr	r3, .L52
 570 0002 1B78     		ldrb	r3, [r3]	@ zero_extendqisi2
 571 0004 13F0020F 		tst	r3, #2
 572 0008 10D0     		beq	.L50
 524:.\Generated_Source\PSoC5/CySpc.c ****     {
 525:.\Generated_Source\PSoC5/CySpc.c ****         CY_SPC_CPU_DATA_REG = CY_SPC_KEY_ONE;
 573              		.loc 1 525 0
 574 000a 0B4B     		ldr	r3, .L52+4
 575 000c B622     		movs	r2, #182
 576 000e 1A70     		strb	r2, [r3]
 526:.\Generated_Source\PSoC5/CySpc.c ****         CY_SPC_CPU_DATA_REG = CY_SPC_KEY_TWO(CY_SPC_CMD_ER_SECTOR);
 577              		.loc 1 526 0
 578 0010 DB22     		movs	r2, #219
 579 0012 1A70     		strb	r2, [r3]
 527:.\Generated_Source\PSoC5/CySpc.c ****         CY_SPC_CPU_DATA_REG = CY_SPC_CMD_ER_SECTOR;
 580              		.loc 1 527 0
 581 0014 0822     		movs	r2, #8
 582 0016 1A70     		strb	r2, [r3]
 528:.\Generated_Source\PSoC5/CySpc.c **** 
 529:.\Generated_Source\PSoC5/CySpc.c ****         /* Make sure the command was accepted */
 530:.\Generated_Source\PSoC5/CySpc.c ****         if(CY_SPC_BUSY)
 583              		.loc 1 530 0
 584 0018 0233     		adds	r3, r3, #2
 585 001a 1B78     		ldrb	r3, [r3]	@ zero_extendqisi2
 586 001c 13F0020F 		tst	r3, #2
 587 0020 06D1     		bne	.L51
ARM GAS  C:\Users\Nick\AppData\Local\Temp\ccJGCe3H.s 			page 21


 531:.\Generated_Source\PSoC5/CySpc.c ****         {
 532:.\Generated_Source\PSoC5/CySpc.c ****             CY_SPC_CPU_DATA_REG = array;
 588              		.loc 1 532 0
 589 0022 054B     		ldr	r3, .L52+4
 590 0024 1870     		strb	r0, [r3]
 533:.\Generated_Source\PSoC5/CySpc.c ****             CY_SPC_CPU_DATA_REG = sectorNumber;
 591              		.loc 1 533 0
 592 0026 1970     		strb	r1, [r3]
 520:.\Generated_Source\PSoC5/CySpc.c ****     cystatus status = CYRET_STARTED;
 593              		.loc 1 520 0
 594 0028 0720     		movs	r0, #7
 595              	.LVL59:
 596 002a 7047     		bx	lr
 597              	.LVL60:
 598              	.L50:
 534:.\Generated_Source\PSoC5/CySpc.c ****         }
 535:.\Generated_Source\PSoC5/CySpc.c ****         else
 536:.\Generated_Source\PSoC5/CySpc.c ****         {
 537:.\Generated_Source\PSoC5/CySpc.c ****             status = CYRET_CANCELED;
 538:.\Generated_Source\PSoC5/CySpc.c ****         }
 539:.\Generated_Source\PSoC5/CySpc.c ****     }
 540:.\Generated_Source\PSoC5/CySpc.c ****     else
 541:.\Generated_Source\PSoC5/CySpc.c ****     {
 542:.\Generated_Source\PSoC5/CySpc.c ****         status = CYRET_LOCKED;
 599              		.loc 1 542 0
 600 002c 0420     		movs	r0, #4
 601              	.LVL61:
 602 002e 7047     		bx	lr
 603              	.LVL62:
 604              	.L51:
 537:.\Generated_Source\PSoC5/CySpc.c ****             status = CYRET_CANCELED;
 605              		.loc 1 537 0
 606 0030 0920     		movs	r0, #9
 607              	.LVL63:
 543:.\Generated_Source\PSoC5/CySpc.c ****     }
 544:.\Generated_Source\PSoC5/CySpc.c **** 
 545:.\Generated_Source\PSoC5/CySpc.c ****     return(status);
 546:.\Generated_Source\PSoC5/CySpc.c **** }
 608              		.loc 1 546 0
 609 0032 7047     		bx	lr
 610              	.L53:
 611              		.align	2
 612              	.L52:
 613 0034 22470040 		.word	1073760034
 614 0038 20470040 		.word	1073760032
 615              		.cfi_endproc
 616              	.LFE7:
 617              		.size	CySpcEraseSector, .-CySpcEraseSector
 618              		.section	.text.CySpcGetTemp,"ax",%progbits
 619              		.align	2
 620              		.global	CySpcGetTemp
 621              		.thumb
 622              		.thumb_func
 623              		.type	CySpcGetTemp, %function
 624              	CySpcGetTemp:
 625              	.LFB8:
 547:.\Generated_Source\PSoC5/CySpc.c **** 
ARM GAS  C:\Users\Nick\AppData\Local\Temp\ccJGCe3H.s 			page 22


 548:.\Generated_Source\PSoC5/CySpc.c **** 
 549:.\Generated_Source\PSoC5/CySpc.c **** /*******************************************************************************
 550:.\Generated_Source\PSoC5/CySpc.c **** * Function Name: CySpcGetTemp
 551:.\Generated_Source\PSoC5/CySpc.c **** ********************************************************************************
 552:.\Generated_Source\PSoC5/CySpc.c **** * Summary:
 553:.\Generated_Source\PSoC5/CySpc.c **** *  Returns the internal die temperature
 554:.\Generated_Source\PSoC5/CySpc.c **** *
 555:.\Generated_Source\PSoC5/CySpc.c **** * Parameters:
 556:.\Generated_Source\PSoC5/CySpc.c **** *  uint8 numSamples:
 557:.\Generated_Source\PSoC5/CySpc.c **** *   Number of samples. Valid values are 1-5, resulting in 2 - 32 samples
 558:.\Generated_Source\PSoC5/CySpc.c **** *   respectively.
 559:.\Generated_Source\PSoC5/CySpc.c **** *
 560:.\Generated_Source\PSoC5/CySpc.c **** * uint16 timerPeriod:
 561:.\Generated_Source\PSoC5/CySpc.c **** *   Number of ADC ACLK cycles. A valid 14 bit value is accepted, higher 2 bits
 562:.\Generated_Source\PSoC5/CySpc.c **** *   of 16 bit values are ignored.
 563:.\Generated_Source\PSoC5/CySpc.c **** *
 564:.\Generated_Source\PSoC5/CySpc.c **** * uint8 clkDivSelect:
 565:.\Generated_Source\PSoC5/CySpc.c **** *   ADC ACLK clock divide value. Valid values are 2 - 225.
 566:.\Generated_Source\PSoC5/CySpc.c **** *
 567:.\Generated_Source\PSoC5/CySpc.c **** * Return:
 568:.\Generated_Source\PSoC5/CySpc.c **** *  CYRET_STARTED
 569:.\Generated_Source\PSoC5/CySpc.c **** *  CYRET_CANCELED
 570:.\Generated_Source\PSoC5/CySpc.c **** *  CYRET_LOCKED
 571:.\Generated_Source\PSoC5/CySpc.c **** *
 572:.\Generated_Source\PSoC5/CySpc.c **** *******************************************************************************/
 573:.\Generated_Source\PSoC5/CySpc.c **** cystatus CySpcGetTemp(uint8 numSamples)
 574:.\Generated_Source\PSoC5/CySpc.c **** {
 626              		.loc 1 574 0
 627              		.cfi_startproc
 628              		@ args = 0, pretend = 0, frame = 0
 629              		@ frame_needed = 0, uses_anonymous_args = 0
 630              		@ link register save eliminated.
 631              	.LVL64:
 575:.\Generated_Source\PSoC5/CySpc.c ****     cystatus status = CYRET_STARTED;
 576:.\Generated_Source\PSoC5/CySpc.c **** 
 577:.\Generated_Source\PSoC5/CySpc.c ****     /* Make sure the SPC is ready to accept command */
 578:.\Generated_Source\PSoC5/CySpc.c ****     if(CY_SPC_IDLE)
 632              		.loc 1 578 0
 633 0000 0C4B     		ldr	r3, .L58
 634 0002 1B78     		ldrb	r3, [r3]	@ zero_extendqisi2
 635 0004 13F0020F 		tst	r3, #2
 636 0008 0FD0     		beq	.L56
 579:.\Generated_Source\PSoC5/CySpc.c ****     {
 580:.\Generated_Source\PSoC5/CySpc.c ****         CY_SPC_CPU_DATA_REG = CY_SPC_KEY_ONE;
 637              		.loc 1 580 0
 638 000a 0B4B     		ldr	r3, .L58+4
 639 000c B622     		movs	r2, #182
 640 000e 1A70     		strb	r2, [r3]
 581:.\Generated_Source\PSoC5/CySpc.c ****         CY_SPC_CPU_DATA_REG = CY_SPC_KEY_TWO(CY_SPC_CMD_GET_TEMP);
 641              		.loc 1 581 0
 642 0010 E122     		movs	r2, #225
 643 0012 1A70     		strb	r2, [r3]
 582:.\Generated_Source\PSoC5/CySpc.c ****         CY_SPC_CPU_DATA_REG = CY_SPC_CMD_GET_TEMP;
 644              		.loc 1 582 0
 645 0014 0E22     		movs	r2, #14
 646 0016 1A70     		strb	r2, [r3]
 583:.\Generated_Source\PSoC5/CySpc.c **** 
ARM GAS  C:\Users\Nick\AppData\Local\Temp\ccJGCe3H.s 			page 23


 584:.\Generated_Source\PSoC5/CySpc.c ****         /* Make sure the command was accepted */
 585:.\Generated_Source\PSoC5/CySpc.c ****         if(CY_SPC_BUSY)
 647              		.loc 1 585 0
 648 0018 0233     		adds	r3, r3, #2
 649 001a 1B78     		ldrb	r3, [r3]	@ zero_extendqisi2
 650 001c 13F0020F 		tst	r3, #2
 651 0020 05D1     		bne	.L57
 586:.\Generated_Source\PSoC5/CySpc.c ****         {
 587:.\Generated_Source\PSoC5/CySpc.c ****             CY_SPC_CPU_DATA_REG = numSamples;
 652              		.loc 1 587 0
 653 0022 054B     		ldr	r3, .L58+4
 654 0024 1870     		strb	r0, [r3]
 575:.\Generated_Source\PSoC5/CySpc.c ****     cystatus status = CYRET_STARTED;
 655              		.loc 1 575 0
 656 0026 0720     		movs	r0, #7
 657              	.LVL65:
 658 0028 7047     		bx	lr
 659              	.LVL66:
 660              	.L56:
 588:.\Generated_Source\PSoC5/CySpc.c ****         }
 589:.\Generated_Source\PSoC5/CySpc.c ****         else
 590:.\Generated_Source\PSoC5/CySpc.c ****         {
 591:.\Generated_Source\PSoC5/CySpc.c ****             status = CYRET_CANCELED;
 592:.\Generated_Source\PSoC5/CySpc.c ****         }
 593:.\Generated_Source\PSoC5/CySpc.c ****     }
 594:.\Generated_Source\PSoC5/CySpc.c ****     else
 595:.\Generated_Source\PSoC5/CySpc.c ****     {
 596:.\Generated_Source\PSoC5/CySpc.c ****         status = CYRET_LOCKED;
 661              		.loc 1 596 0
 662 002a 0420     		movs	r0, #4
 663              	.LVL67:
 664 002c 7047     		bx	lr
 665              	.LVL68:
 666              	.L57:
 591:.\Generated_Source\PSoC5/CySpc.c ****             status = CYRET_CANCELED;
 667              		.loc 1 591 0
 668 002e 0920     		movs	r0, #9
 669              	.LVL69:
 597:.\Generated_Source\PSoC5/CySpc.c ****     }
 598:.\Generated_Source\PSoC5/CySpc.c **** 
 599:.\Generated_Source\PSoC5/CySpc.c ****     return(status);
 600:.\Generated_Source\PSoC5/CySpc.c **** }
 670              		.loc 1 600 0
 671 0030 7047     		bx	lr
 672              	.L59:
 673 0032 00BF     		.align	2
 674              	.L58:
 675 0034 22470040 		.word	1073760034
 676 0038 20470040 		.word	1073760032
 677              		.cfi_endproc
 678              	.LFE8:
 679              		.size	CySpcGetTemp, .-CySpcGetTemp
 680              		.section	.text.CySpcLock,"ax",%progbits
 681              		.align	2
 682              		.global	CySpcLock
 683              		.thumb
 684              		.thumb_func
ARM GAS  C:\Users\Nick\AppData\Local\Temp\ccJGCe3H.s 			page 24


 685              		.type	CySpcLock, %function
 686              	CySpcLock:
 687              	.LFB9:
 601:.\Generated_Source\PSoC5/CySpc.c **** 
 602:.\Generated_Source\PSoC5/CySpc.c **** 
 603:.\Generated_Source\PSoC5/CySpc.c **** /*******************************************************************************
 604:.\Generated_Source\PSoC5/CySpc.c **** * Function Name: CySpcLock
 605:.\Generated_Source\PSoC5/CySpc.c **** ********************************************************************************
 606:.\Generated_Source\PSoC5/CySpc.c **** * Summary:
 607:.\Generated_Source\PSoC5/CySpc.c **** *  Locks the SPC so it can not be used by someone else:
 608:.\Generated_Source\PSoC5/CySpc.c **** *   - Saves wait-pipeline enable state and enable pipeline (PSoC5)
 609:.\Generated_Source\PSoC5/CySpc.c **** *
 610:.\Generated_Source\PSoC5/CySpc.c **** * Parameters:
 611:.\Generated_Source\PSoC5/CySpc.c **** *  Note
 612:.\Generated_Source\PSoC5/CySpc.c **** *
 613:.\Generated_Source\PSoC5/CySpc.c **** * Return:
 614:.\Generated_Source\PSoC5/CySpc.c **** *  CYRET_SUCCESS - if the resource was free.
 615:.\Generated_Source\PSoC5/CySpc.c **** *  CYRET_LOCKED  - if the SPC is in use.
 616:.\Generated_Source\PSoC5/CySpc.c **** *
 617:.\Generated_Source\PSoC5/CySpc.c **** *******************************************************************************/
 618:.\Generated_Source\PSoC5/CySpc.c **** cystatus CySpcLock(void)
 619:.\Generated_Source\PSoC5/CySpc.c **** {
 688              		.loc 1 619 0
 689              		.cfi_startproc
 690              		@ args = 0, pretend = 0, frame = 0
 691              		@ frame_needed = 0, uses_anonymous_args = 0
 692 0000 10B5     		push	{r4, lr}
 693              		.cfi_def_cfa_offset 8
 694              		.cfi_offset 4, -8
 695              		.cfi_offset 14, -4
 696              	.LVL70:
 620:.\Generated_Source\PSoC5/CySpc.c ****     cystatus status = CYRET_LOCKED;
 621:.\Generated_Source\PSoC5/CySpc.c ****     uint8 interruptState;
 622:.\Generated_Source\PSoC5/CySpc.c **** 
 623:.\Generated_Source\PSoC5/CySpc.c ****     /* Enter critical section */
 624:.\Generated_Source\PSoC5/CySpc.c ****     interruptState = CyEnterCriticalSection();
 697              		.loc 1 624 0
 698 0002 FFF7FEFF 		bl	CyEnterCriticalSection
 699              	.LVL71:
 625:.\Generated_Source\PSoC5/CySpc.c **** 
 626:.\Generated_Source\PSoC5/CySpc.c ****     if(CY_SPC_UNLOCKED == SpcLockState)
 700              		.loc 1 626 0
 701 0006 0F4B     		ldr	r3, .L64
 702 0008 1B78     		ldrb	r3, [r3]	@ zero_extendqisi2
 703 000a A3B9     		cbnz	r3, .L62
 627:.\Generated_Source\PSoC5/CySpc.c ****     {
 628:.\Generated_Source\PSoC5/CySpc.c ****         SpcLockState = CY_SPC_LOCKED;
 704              		.loc 1 628 0
 705 000c 0122     		movs	r2, #1
 706 000e 0D4B     		ldr	r3, .L64
 707 0010 1A70     		strb	r2, [r3]
 708              	.LVL72:
 629:.\Generated_Source\PSoC5/CySpc.c ****         status = CYRET_SUCCESS;
 630:.\Generated_Source\PSoC5/CySpc.c **** 
 631:.\Generated_Source\PSoC5/CySpc.c ****         #if(CY_PSOC5)
 632:.\Generated_Source\PSoC5/CySpc.c **** 
 633:.\Generated_Source\PSoC5/CySpc.c ****             if(0u != (CY_SPC_CPU_WAITPIPE_REG & CY_SPC_CPU_WAITPIPE_BYPASS))
ARM GAS  C:\Users\Nick\AppData\Local\Temp\ccJGCe3H.s 			page 25


 709              		.loc 1 633 0
 710 0012 0D4B     		ldr	r3, .L64+4
 711 0014 1B68     		ldr	r3, [r3]
 712 0016 13F0010F 		tst	r3, #1
 713 001a 0ED0     		beq	.L63
 634:.\Generated_Source\PSoC5/CySpc.c ****             {
 635:.\Generated_Source\PSoC5/CySpc.c ****                 /* Enable pipeline registers */
 636:.\Generated_Source\PSoC5/CySpc.c ****                 CY_SPC_CPU_WAITPIPE_REG &= ((uint32)(~CY_SPC_CPU_WAITPIPE_BYPASS));
 714              		.loc 1 636 0
 715 001c 0A4B     		ldr	r3, .L64+4
 716 001e 1A68     		ldr	r2, [r3]
 717 0020 22F00102 		bic	r2, r2, #1
 718 0024 1A60     		str	r2, [r3]
 637:.\Generated_Source\PSoC5/CySpc.c **** 
 638:.\Generated_Source\PSoC5/CySpc.c ****                 /* At least 2 NOP instructions are recommended */
 639:.\Generated_Source\PSoC5/CySpc.c ****                 CY_NOP;
 719              		.loc 1 639 0
 720              	@ 639 ".\Generated_Source\PSoC5\CySpc.c" 1
 721 0026 00BF     		NOP
 722              	
 723              	@ 0 "" 2
 640:.\Generated_Source\PSoC5/CySpc.c ****                 CY_NOP;
 724              		.loc 1 640 0
 725              	@ 640 ".\Generated_Source\PSoC5\CySpc.c" 1
 726 0028 00BF     		NOP
 727              	
 728              	@ 0 "" 2
 641:.\Generated_Source\PSoC5/CySpc.c ****                 CY_NOP;
 729              		.loc 1 641 0
 730              	@ 641 ".\Generated_Source\PSoC5\CySpc.c" 1
 731 002a 00BF     		NOP
 732              	
 733              	@ 0 "" 2
 642:.\Generated_Source\PSoC5/CySpc.c **** 
 643:.\Generated_Source\PSoC5/CySpc.c ****                 spcWaitPipeBypass = CY_SPC_CPU_WAITPIPE_BYPASS;
 734              		.loc 1 643 0
 735              		.thumb
 736 002c 0122     		movs	r2, #1
 737 002e 054B     		ldr	r3, .L64
 738 0030 5A60     		str	r2, [r3, #4]
 629:.\Generated_Source\PSoC5/CySpc.c ****         status = CYRET_SUCCESS;
 739              		.loc 1 629 0
 740 0032 0024     		movs	r4, #0
 741 0034 02E0     		b	.L61
 742              	.LVL73:
 743              	.L62:
 620:.\Generated_Source\PSoC5/CySpc.c ****     cystatus status = CYRET_LOCKED;
 744              		.loc 1 620 0
 745 0036 0424     		movs	r4, #4
 746 0038 00E0     		b	.L61
 747              	.LVL74:
 748              	.L63:
 629:.\Generated_Source\PSoC5/CySpc.c ****         status = CYRET_SUCCESS;
 749              		.loc 1 629 0
 750 003a 0024     		movs	r4, #0
 751              	.LVL75:
 752              	.L61:
ARM GAS  C:\Users\Nick\AppData\Local\Temp\ccJGCe3H.s 			page 26


 644:.\Generated_Source\PSoC5/CySpc.c ****             }
 645:.\Generated_Source\PSoC5/CySpc.c **** 
 646:.\Generated_Source\PSoC5/CySpc.c ****         #endif  /* (CY_PSOC5) */
 647:.\Generated_Source\PSoC5/CySpc.c ****     }
 648:.\Generated_Source\PSoC5/CySpc.c **** 
 649:.\Generated_Source\PSoC5/CySpc.c ****     /* Exit critical section */
 650:.\Generated_Source\PSoC5/CySpc.c ****     CyExitCriticalSection(interruptState);
 753              		.loc 1 650 0
 754 003c FFF7FEFF 		bl	CyExitCriticalSection
 755              	.LVL76:
 651:.\Generated_Source\PSoC5/CySpc.c **** 
 652:.\Generated_Source\PSoC5/CySpc.c ****     return(status);
 653:.\Generated_Source\PSoC5/CySpc.c **** }
 756              		.loc 1 653 0
 757 0040 2046     		mov	r0, r4
 758 0042 10BD     		pop	{r4, pc}
 759              	.LVL77:
 760              	.L65:
 761              		.align	2
 762              	.L64:
 763 0044 00000000 		.word	.LANCHOR0
 764 0048 04000840 		.word	1074266116
 765              		.cfi_endproc
 766              	.LFE9:
 767              		.size	CySpcLock, .-CySpcLock
 768              		.section	.text.CySpcUnlock,"ax",%progbits
 769              		.align	2
 770              		.global	CySpcUnlock
 771              		.thumb
 772              		.thumb_func
 773              		.type	CySpcUnlock, %function
 774              	CySpcUnlock:
 775              	.LFB10:
 654:.\Generated_Source\PSoC5/CySpc.c **** 
 655:.\Generated_Source\PSoC5/CySpc.c **** 
 656:.\Generated_Source\PSoC5/CySpc.c **** /*******************************************************************************
 657:.\Generated_Source\PSoC5/CySpc.c **** * Function Name: CySpcUnlock
 658:.\Generated_Source\PSoC5/CySpc.c **** ********************************************************************************
 659:.\Generated_Source\PSoC5/CySpc.c **** * Summary:
 660:.\Generated_Source\PSoC5/CySpc.c **** *  Unlocks the SPC so it can be used by someone else:
 661:.\Generated_Source\PSoC5/CySpc.c **** *   - Restores wait-pipeline enable state (PSoC5)
 662:.\Generated_Source\PSoC5/CySpc.c **** *
 663:.\Generated_Source\PSoC5/CySpc.c **** * Parameters:
 664:.\Generated_Source\PSoC5/CySpc.c **** *  None
 665:.\Generated_Source\PSoC5/CySpc.c **** *
 666:.\Generated_Source\PSoC5/CySpc.c **** * Return:
 667:.\Generated_Source\PSoC5/CySpc.c **** *  None
 668:.\Generated_Source\PSoC5/CySpc.c **** *
 669:.\Generated_Source\PSoC5/CySpc.c **** *******************************************************************************/
 670:.\Generated_Source\PSoC5/CySpc.c **** void CySpcUnlock(void)
 671:.\Generated_Source\PSoC5/CySpc.c **** {
 776              		.loc 1 671 0
 777              		.cfi_startproc
 778              		@ args = 0, pretend = 0, frame = 0
 779              		@ frame_needed = 0, uses_anonymous_args = 0
 780 0000 08B5     		push	{r3, lr}
 781              		.cfi_def_cfa_offset 8
ARM GAS  C:\Users\Nick\AppData\Local\Temp\ccJGCe3H.s 			page 27


 782              		.cfi_offset 3, -8
 783              		.cfi_offset 14, -4
 672:.\Generated_Source\PSoC5/CySpc.c ****     uint8 interruptState;
 673:.\Generated_Source\PSoC5/CySpc.c **** 
 674:.\Generated_Source\PSoC5/CySpc.c ****     /* Enter critical section */
 675:.\Generated_Source\PSoC5/CySpc.c ****     interruptState = CyEnterCriticalSection();
 784              		.loc 1 675 0
 785 0002 FFF7FEFF 		bl	CyEnterCriticalSection
 786              	.LVL78:
 676:.\Generated_Source\PSoC5/CySpc.c **** 
 677:.\Generated_Source\PSoC5/CySpc.c ****     /* Release the SPC object */
 678:.\Generated_Source\PSoC5/CySpc.c ****     SpcLockState = CY_SPC_UNLOCKED;
 787              		.loc 1 678 0
 788 0006 0A4B     		ldr	r3, .L68
 789 0008 0022     		movs	r2, #0
 790 000a 1A70     		strb	r2, [r3]
 679:.\Generated_Source\PSoC5/CySpc.c **** 
 680:.\Generated_Source\PSoC5/CySpc.c ****     #if(CY_PSOC5)
 681:.\Generated_Source\PSoC5/CySpc.c **** 
 682:.\Generated_Source\PSoC5/CySpc.c ****         if(CY_SPC_CPU_WAITPIPE_BYPASS == spcWaitPipeBypass)
 791              		.loc 1 682 0
 792 000c 5B68     		ldr	r3, [r3, #4]
 793 000e 012B     		cmp	r3, #1
 794 0010 0AD1     		bne	.L67
 683:.\Generated_Source\PSoC5/CySpc.c ****         {
 684:.\Generated_Source\PSoC5/CySpc.c ****             /* Force to bypass pipeline registers */
 685:.\Generated_Source\PSoC5/CySpc.c ****             CY_SPC_CPU_WAITPIPE_REG |= CY_SPC_CPU_WAITPIPE_BYPASS;
 795              		.loc 1 685 0
 796 0012 084B     		ldr	r3, .L68+4
 797 0014 1A68     		ldr	r2, [r3]
 798 0016 42F00102 		orr	r2, r2, #1
 799 001a 1A60     		str	r2, [r3]
 686:.\Generated_Source\PSoC5/CySpc.c **** 
 687:.\Generated_Source\PSoC5/CySpc.c ****             /* At least 2 NOP instructions are recommended */
 688:.\Generated_Source\PSoC5/CySpc.c ****             CY_NOP;
 800              		.loc 1 688 0
 801              	@ 688 ".\Generated_Source\PSoC5\CySpc.c" 1
 802 001c 00BF     		NOP
 803              	
 804              	@ 0 "" 2
 689:.\Generated_Source\PSoC5/CySpc.c ****             CY_NOP;
 805              		.loc 1 689 0
 806              	@ 689 ".\Generated_Source\PSoC5\CySpc.c" 1
 807 001e 00BF     		NOP
 808              	
 809              	@ 0 "" 2
 690:.\Generated_Source\PSoC5/CySpc.c ****             CY_NOP;
 810              		.loc 1 690 0
 811              	@ 690 ".\Generated_Source\PSoC5\CySpc.c" 1
 812 0020 00BF     		NOP
 813              	
 814              	@ 0 "" 2
 691:.\Generated_Source\PSoC5/CySpc.c **** 
 692:.\Generated_Source\PSoC5/CySpc.c ****             spcWaitPipeBypass = 0u;
 815              		.loc 1 692 0
 816              		.thumb
 817 0022 0022     		movs	r2, #0
ARM GAS  C:\Users\Nick\AppData\Local\Temp\ccJGCe3H.s 			page 28


 818 0024 024B     		ldr	r3, .L68
 819 0026 5A60     		str	r2, [r3, #4]
 820              	.L67:
 693:.\Generated_Source\PSoC5/CySpc.c ****         }
 694:.\Generated_Source\PSoC5/CySpc.c **** 
 695:.\Generated_Source\PSoC5/CySpc.c ****     #endif  /* (CY_PSOC5) */
 696:.\Generated_Source\PSoC5/CySpc.c **** 
 697:.\Generated_Source\PSoC5/CySpc.c ****     /* Exit critical section */
 698:.\Generated_Source\PSoC5/CySpc.c ****     CyExitCriticalSection(interruptState);
 821              		.loc 1 698 0
 822 0028 FFF7FEFF 		bl	CyExitCriticalSection
 823              	.LVL79:
 824 002c 08BD     		pop	{r3, pc}
 825              	.L69:
 826 002e 00BF     		.align	2
 827              	.L68:
 828 0030 00000000 		.word	.LANCHOR0
 829 0034 04000840 		.word	1074266116
 830              		.cfi_endproc
 831              	.LFE10:
 832              		.size	CySpcUnlock, .-CySpcUnlock
 833              		.section	.text.CySpcGetAlgorithm,"ax",%progbits
 834              		.align	2
 835              		.global	CySpcGetAlgorithm
 836              		.thumb
 837              		.thumb_func
 838              		.type	CySpcGetAlgorithm, %function
 839              	CySpcGetAlgorithm:
 840              	.LFB11:
 699:.\Generated_Source\PSoC5/CySpc.c **** }
 700:.\Generated_Source\PSoC5/CySpc.c **** 
 701:.\Generated_Source\PSoC5/CySpc.c **** 
 702:.\Generated_Source\PSoC5/CySpc.c **** /*******************************************************************************
 703:.\Generated_Source\PSoC5/CySpc.c **** * Function Name: CySpcGetAlgorithm
 704:.\Generated_Source\PSoC5/CySpc.c **** ********************************************************************************
 705:.\Generated_Source\PSoC5/CySpc.c **** * Summary:
 706:.\Generated_Source\PSoC5/CySpc.c **** *  Downloads SPC algorithm from SPC SROM into SRAM.
 707:.\Generated_Source\PSoC5/CySpc.c **** *
 708:.\Generated_Source\PSoC5/CySpc.c **** * Parameters:
 709:.\Generated_Source\PSoC5/CySpc.c **** *  None
 710:.\Generated_Source\PSoC5/CySpc.c **** *
 711:.\Generated_Source\PSoC5/CySpc.c **** * Return:
 712:.\Generated_Source\PSoC5/CySpc.c **** *  CYRET_STARTED
 713:.\Generated_Source\PSoC5/CySpc.c **** *  CYRET_LOCKED
 714:.\Generated_Source\PSoC5/CySpc.c **** *
 715:.\Generated_Source\PSoC5/CySpc.c **** *******************************************************************************/
 716:.\Generated_Source\PSoC5/CySpc.c **** cystatus CySpcGetAlgorithm(void)
 717:.\Generated_Source\PSoC5/CySpc.c **** {
 841              		.loc 1 717 0
 842              		.cfi_startproc
 843              		@ args = 0, pretend = 0, frame = 0
 844              		@ frame_needed = 0, uses_anonymous_args = 0
 845              		@ link register save eliminated.
 846              	.LVL80:
 718:.\Generated_Source\PSoC5/CySpc.c ****     cystatus status = CYRET_STARTED;
 719:.\Generated_Source\PSoC5/CySpc.c **** 
 720:.\Generated_Source\PSoC5/CySpc.c ****     /* Make sure the SPC is ready to accept command */
ARM GAS  C:\Users\Nick\AppData\Local\Temp\ccJGCe3H.s 			page 29


 721:.\Generated_Source\PSoC5/CySpc.c ****     if(CY_SPC_IDLE)
 847              		.loc 1 721 0
 848 0000 074B     		ldr	r3, .L73
 849 0002 1B78     		ldrb	r3, [r3]	@ zero_extendqisi2
 850 0004 13F0020F 		tst	r3, #2
 851 0008 08D0     		beq	.L72
 722:.\Generated_Source\PSoC5/CySpc.c ****     {
 723:.\Generated_Source\PSoC5/CySpc.c ****         CY_SPC_CPU_DATA_REG = CY_SPC_KEY_ONE;
 852              		.loc 1 723 0
 853 000a 064B     		ldr	r3, .L73+4
 854 000c B622     		movs	r2, #182
 855 000e 1A70     		strb	r2, [r3]
 724:.\Generated_Source\PSoC5/CySpc.c ****         CY_SPC_CPU_DATA_REG = CY_SPC_KEY_TWO(CY_SPC_CMD_DWNLD_ALGORITHM);
 856              		.loc 1 724 0
 857 0010 E022     		movs	r2, #224
 858 0012 1A70     		strb	r2, [r3]
 725:.\Generated_Source\PSoC5/CySpc.c ****         CY_SPC_CPU_DATA_REG = CY_SPC_CMD_DWNLD_ALGORITHM;
 859              		.loc 1 725 0
 860 0014 0D22     		movs	r2, #13
 861 0016 1A70     		strb	r2, [r3]
 718:.\Generated_Source\PSoC5/CySpc.c ****     cystatus status = CYRET_STARTED;
 862              		.loc 1 718 0
 863 0018 0720     		movs	r0, #7
 864 001a 7047     		bx	lr
 865              	.L72:
 726:.\Generated_Source\PSoC5/CySpc.c ****     }
 727:.\Generated_Source\PSoC5/CySpc.c ****     else
 728:.\Generated_Source\PSoC5/CySpc.c ****     {
 729:.\Generated_Source\PSoC5/CySpc.c ****         status = CYRET_LOCKED;
 866              		.loc 1 729 0
 867 001c 0420     		movs	r0, #4
 868              	.LVL81:
 730:.\Generated_Source\PSoC5/CySpc.c ****     }
 731:.\Generated_Source\PSoC5/CySpc.c **** 
 732:.\Generated_Source\PSoC5/CySpc.c ****     return(status);
 733:.\Generated_Source\PSoC5/CySpc.c **** }
 869              		.loc 1 733 0
 870 001e 7047     		bx	lr
 871              	.L74:
 872              		.align	2
 873              	.L73:
 874 0020 22470040 		.word	1073760034
 875 0024 20470040 		.word	1073760032
 876              		.cfi_endproc
 877              	.LFE11:
 878              		.size	CySpcGetAlgorithm, .-CySpcGetAlgorithm
 879              		.global	SpcLockState
 880              		.bss
 881              		.align	2
 882              		.set	.LANCHOR0,. + 0
 883              		.type	SpcLockState, %object
 884              		.size	SpcLockState, 1
 885              	SpcLockState:
 886 0000 00       		.space	1
 887 0001 000000   		.space	3
 888              		.type	spcWaitPipeBypass, %object
 889              		.size	spcWaitPipeBypass, 4
ARM GAS  C:\Users\Nick\AppData\Local\Temp\ccJGCe3H.s 			page 30


 890              	spcWaitPipeBypass:
 891 0004 00000000 		.space	4
 892              		.text
 893              	.Letext0:
 894              		.file 2 ".\\Generated_Source\\PSoC5\\cytypes.h"
 895              		.file 3 ".\\Generated_Source\\PSoC5\\CyLib.h"