ARM GAS  C:\Users\Nick\AppData\Local\Temp\ccLHqkBb.s 			page 1


   1              		.syntax unified
   2              		.cpu cortex-m3
   3              		.fpu softvfp
   4              		.eabi_attribute 20, 1
   5              		.eabi_attribute 21, 1
   6              		.eabi_attribute 23, 3
   7              		.eabi_attribute 24, 1
   8              		.eabi_attribute 25, 1
   9              		.eabi_attribute 26, 1
  10              		.eabi_attribute 30, 1
  11              		.eabi_attribute 34, 1
  12              		.eabi_attribute 18, 4
  13              		.thumb
  14              		.file	"Lcd.c"
  15              		.text
  16              	.Ltext0:
  17              		.cfi_sections	.debug_frame
  18              		.section	.text.Lcd_WrCntrlNib,"ax",%progbits
  19              		.align	2
  20              		.thumb
  21              		.thumb_func
  22              		.type	Lcd_WrCntrlNib, %function
  23              	Lcd_WrCntrlNib:
  24              	.LFB11:
  25              		.file 1 ".\\Generated_Source\\PSoC5\\Lcd.c"
   1:.\Generated_Source\PSoC5/Lcd.c **** /*******************************************************************************
   2:.\Generated_Source\PSoC5/Lcd.c **** * File Name: Lcd.c
   3:.\Generated_Source\PSoC5/Lcd.c **** * Version 1.2
   4:.\Generated_Source\PSoC5/Lcd.c **** *
   5:.\Generated_Source\PSoC5/Lcd.c **** * Description:
   6:.\Generated_Source\PSoC5/Lcd.c **** *  This file provides source code for the Character LCD component's API.
   7:.\Generated_Source\PSoC5/Lcd.c **** *
   8:.\Generated_Source\PSoC5/Lcd.c **** * Note:
   9:.\Generated_Source\PSoC5/Lcd.c **** *
  10:.\Generated_Source\PSoC5/Lcd.c **** ********************************************************************************
  11:.\Generated_Source\PSoC5/Lcd.c **** * Copyright 2008-2012, Cypress Semiconductor Corporation.  All rights reserved.
  12:.\Generated_Source\PSoC5/Lcd.c **** * You may use this file only in accordance with the license, terms, conditions,
  13:.\Generated_Source\PSoC5/Lcd.c **** * disclaimers, and limitations in the end user license agreement accompanying
  14:.\Generated_Source\PSoC5/Lcd.c **** * the software package with which this file was provided.
  15:.\Generated_Source\PSoC5/Lcd.c **** *******************************************************************************/
  16:.\Generated_Source\PSoC5/Lcd.c **** 
  17:.\Generated_Source\PSoC5/Lcd.c **** #include "CyLib.h"
  18:.\Generated_Source\PSoC5/Lcd.c **** #include "Lcd.h"
  19:.\Generated_Source\PSoC5/Lcd.c **** 
  20:.\Generated_Source\PSoC5/Lcd.c **** 
  21:.\Generated_Source\PSoC5/Lcd.c **** static void Lcd_WrDatNib(uint8 nibble) ;
  22:.\Generated_Source\PSoC5/Lcd.c **** static void Lcd_WrCntrlNib(uint8 nibble) ;
  23:.\Generated_Source\PSoC5/Lcd.c **** 
  24:.\Generated_Source\PSoC5/Lcd.c **** /* Stores the state of conponent. Indicates wherewer component is 
  25:.\Generated_Source\PSoC5/Lcd.c **** * in enable state or not.
  26:.\Generated_Source\PSoC5/Lcd.c **** */
  27:.\Generated_Source\PSoC5/Lcd.c **** uint8 Lcd_enableState = 0u;
  28:.\Generated_Source\PSoC5/Lcd.c **** 
  29:.\Generated_Source\PSoC5/Lcd.c **** uint8 Lcd_initVar = 0u;
  30:.\Generated_Source\PSoC5/Lcd.c **** 
  31:.\Generated_Source\PSoC5/Lcd.c **** 
  32:.\Generated_Source\PSoC5/Lcd.c **** /*******************************************************************************
ARM GAS  C:\Users\Nick\AppData\Local\Temp\ccLHqkBb.s 			page 2


  33:.\Generated_Source\PSoC5/Lcd.c **** * Function Name: Lcd_Init
  34:.\Generated_Source\PSoC5/Lcd.c **** ********************************************************************************
  35:.\Generated_Source\PSoC5/Lcd.c **** *
  36:.\Generated_Source\PSoC5/Lcd.c **** * Summary:
  37:.\Generated_Source\PSoC5/Lcd.c **** *  Perform initialization required for components normal work.
  38:.\Generated_Source\PSoC5/Lcd.c **** *  This function initializes the LCD hardware module as follows:
  39:.\Generated_Source\PSoC5/Lcd.c **** *        Enable 4-bit interface
  40:.\Generated_Source\PSoC5/Lcd.c **** *        Clear the display
  41:.\Generated_Source\PSoC5/Lcd.c **** *        Enable auto cursor increment
  42:.\Generated_Source\PSoC5/Lcd.c **** *        Resets the cursor to start position
  43:.\Generated_Source\PSoC5/Lcd.c **** *  Also loads custom character set to LCD if it was defined in the customizer.
  44:.\Generated_Source\PSoC5/Lcd.c **** *
  45:.\Generated_Source\PSoC5/Lcd.c **** * Parameters:
  46:.\Generated_Source\PSoC5/Lcd.c **** *  None.
  47:.\Generated_Source\PSoC5/Lcd.c **** *
  48:.\Generated_Source\PSoC5/Lcd.c **** * Return:
  49:.\Generated_Source\PSoC5/Lcd.c **** *  None.
  50:.\Generated_Source\PSoC5/Lcd.c **** *
  51:.\Generated_Source\PSoC5/Lcd.c **** * Reentrant:
  52:.\Generated_Source\PSoC5/Lcd.c **** *  No.
  53:.\Generated_Source\PSoC5/Lcd.c **** *
  54:.\Generated_Source\PSoC5/Lcd.c **** *******************************************************************************/
  55:.\Generated_Source\PSoC5/Lcd.c **** void Lcd_Init(void) 
  56:.\Generated_Source\PSoC5/Lcd.c **** {
  57:.\Generated_Source\PSoC5/Lcd.c ****     /* INIT CODE */
  58:.\Generated_Source\PSoC5/Lcd.c ****     CyDelay(40u);                                                        /* Delay 40 ms */
  59:.\Generated_Source\PSoC5/Lcd.c ****     Lcd_WrCntrlNib(Lcd_DISPLAY_8_BIT_INIT);   /* Selects 8-bit mode */
  60:.\Generated_Source\PSoC5/Lcd.c ****     CyDelay(5u);                                                         /* Delay 5 ms */
  61:.\Generated_Source\PSoC5/Lcd.c ****     Lcd_WrCntrlNib(Lcd_DISPLAY_8_BIT_INIT);   /* Selects 8-bit mode */
  62:.\Generated_Source\PSoC5/Lcd.c ****     CyDelay(15u);                                                        /* Delay 15 ms */
  63:.\Generated_Source\PSoC5/Lcd.c ****     Lcd_WrCntrlNib(Lcd_DISPLAY_8_BIT_INIT);   /* Selects 8-bit mode */
  64:.\Generated_Source\PSoC5/Lcd.c ****     CyDelay(1u);                                                         /* Delay 1 ms */
  65:.\Generated_Source\PSoC5/Lcd.c ****     Lcd_WrCntrlNib(Lcd_DISPLAY_4_BIT_INIT);   /* Selects 4-bit mode */
  66:.\Generated_Source\PSoC5/Lcd.c ****     CyDelay(5u);                                                         /* Delay 5 ms */
  67:.\Generated_Source\PSoC5/Lcd.c **** 
  68:.\Generated_Source\PSoC5/Lcd.c ****     Lcd_WriteControl(Lcd_CURSOR_AUTO_INCR_ON);    /* Incr Cursor After Writes */
  69:.\Generated_Source\PSoC5/Lcd.c ****     Lcd_WriteControl(Lcd_DISPLAY_CURSOR_ON);      /* Turn Display, Cursor ON */
  70:.\Generated_Source\PSoC5/Lcd.c ****     Lcd_WriteControl(Lcd_DISPLAY_2_LINES_5x10);   /* 2 Lines by 5x10 Characters */
  71:.\Generated_Source\PSoC5/Lcd.c ****     Lcd_WriteControl(Lcd_DISPLAY_CURSOR_OFF);     /* Turn Display, Cursor OFF */
  72:.\Generated_Source\PSoC5/Lcd.c ****     Lcd_WriteControl(Lcd_CLEAR_DISPLAY);          /* Clear LCD Screen */
  73:.\Generated_Source\PSoC5/Lcd.c ****     Lcd_WriteControl(Lcd_DISPLAY_ON_CURSOR_OFF);  /* Turn Display ON, Cursor OFF */
  74:.\Generated_Source\PSoC5/Lcd.c ****     Lcd_WriteControl(Lcd_RESET_CURSOR_POSITION);  /* Set Cursor to 0,0 */
  75:.\Generated_Source\PSoC5/Lcd.c ****     CyDelay(5u);
  76:.\Generated_Source\PSoC5/Lcd.c **** 
  77:.\Generated_Source\PSoC5/Lcd.c ****     #if(Lcd_CUSTOM_CHAR_SET != Lcd_NONE)
  78:.\Generated_Source\PSoC5/Lcd.c ****         Lcd_LoadCustomFonts(Lcd_customFonts);
  79:.\Generated_Source\PSoC5/Lcd.c ****     #endif /* Lcd_CUSTOM_CHAR_SET != Lcd_NONE */
  80:.\Generated_Source\PSoC5/Lcd.c **** }
  81:.\Generated_Source\PSoC5/Lcd.c **** 
  82:.\Generated_Source\PSoC5/Lcd.c **** 
  83:.\Generated_Source\PSoC5/Lcd.c **** /*******************************************************************************
  84:.\Generated_Source\PSoC5/Lcd.c **** * Function Name: Lcd_Enable
  85:.\Generated_Source\PSoC5/Lcd.c **** ********************************************************************************
  86:.\Generated_Source\PSoC5/Lcd.c **** *
  87:.\Generated_Source\PSoC5/Lcd.c **** * Summary:
  88:.\Generated_Source\PSoC5/Lcd.c **** *  Turns on the display.
  89:.\Generated_Source\PSoC5/Lcd.c **** *
ARM GAS  C:\Users\Nick\AppData\Local\Temp\ccLHqkBb.s 			page 3


  90:.\Generated_Source\PSoC5/Lcd.c **** * Parameters:
  91:.\Generated_Source\PSoC5/Lcd.c **** *  None.
  92:.\Generated_Source\PSoC5/Lcd.c **** *
  93:.\Generated_Source\PSoC5/Lcd.c **** * Return:
  94:.\Generated_Source\PSoC5/Lcd.c **** *  None.
  95:.\Generated_Source\PSoC5/Lcd.c **** *
  96:.\Generated_Source\PSoC5/Lcd.c **** * Reentrant:
  97:.\Generated_Source\PSoC5/Lcd.c **** *  No.
  98:.\Generated_Source\PSoC5/Lcd.c **** *
  99:.\Generated_Source\PSoC5/Lcd.c **** * Theory:
 100:.\Generated_Source\PSoC5/Lcd.c **** *  This finction has no effect when it called first time as
 101:.\Generated_Source\PSoC5/Lcd.c **** *  Lcd_Init() turns on the LCD.
 102:.\Generated_Source\PSoC5/Lcd.c **** *
 103:.\Generated_Source\PSoC5/Lcd.c **** *******************************************************************************/
 104:.\Generated_Source\PSoC5/Lcd.c **** void Lcd_Enable(void) 
 105:.\Generated_Source\PSoC5/Lcd.c **** {
 106:.\Generated_Source\PSoC5/Lcd.c ****     Lcd_DisplayOn();
 107:.\Generated_Source\PSoC5/Lcd.c ****     Lcd_enableState = 1u;
 108:.\Generated_Source\PSoC5/Lcd.c **** }
 109:.\Generated_Source\PSoC5/Lcd.c **** 
 110:.\Generated_Source\PSoC5/Lcd.c **** 
 111:.\Generated_Source\PSoC5/Lcd.c **** /*******************************************************************************
 112:.\Generated_Source\PSoC5/Lcd.c **** * Function Name: Lcd_Start
 113:.\Generated_Source\PSoC5/Lcd.c **** ********************************************************************************
 114:.\Generated_Source\PSoC5/Lcd.c **** *
 115:.\Generated_Source\PSoC5/Lcd.c **** * Summary:
 116:.\Generated_Source\PSoC5/Lcd.c **** *  Perform initialization required for components normal work.
 117:.\Generated_Source\PSoC5/Lcd.c **** *  This function initializes the LCD hardware module as follows:
 118:.\Generated_Source\PSoC5/Lcd.c **** *        Enable 4-bit interface
 119:.\Generated_Source\PSoC5/Lcd.c **** *        Clear the display
 120:.\Generated_Source\PSoC5/Lcd.c **** *        Enable auto cursor increment
 121:.\Generated_Source\PSoC5/Lcd.c **** *        Resets the cursor to start position
 122:.\Generated_Source\PSoC5/Lcd.c **** *  Also loads custom character set to LCD if it was defined in the customizer.
 123:.\Generated_Source\PSoC5/Lcd.c **** *  If it was not the first call in this project then it just turns on the
 124:.\Generated_Source\PSoC5/Lcd.c **** *  display
 125:.\Generated_Source\PSoC5/Lcd.c **** *
 126:.\Generated_Source\PSoC5/Lcd.c **** *
 127:.\Generated_Source\PSoC5/Lcd.c **** * Parameters:
 128:.\Generated_Source\PSoC5/Lcd.c **** *  Lcd_initVar - global variable.
 129:.\Generated_Source\PSoC5/Lcd.c **** *
 130:.\Generated_Source\PSoC5/Lcd.c **** * Return:
 131:.\Generated_Source\PSoC5/Lcd.c **** *  Lcd_initVar - global variable.
 132:.\Generated_Source\PSoC5/Lcd.c **** *
 133:.\Generated_Source\PSoC5/Lcd.c **** * Reentrant:
 134:.\Generated_Source\PSoC5/Lcd.c **** *  No.
 135:.\Generated_Source\PSoC5/Lcd.c **** *
 136:.\Generated_Source\PSoC5/Lcd.c **** *******************************************************************************/
 137:.\Generated_Source\PSoC5/Lcd.c **** void Lcd_Start(void) 
 138:.\Generated_Source\PSoC5/Lcd.c **** {
 139:.\Generated_Source\PSoC5/Lcd.c ****     /* If not initialized then perform initialization */
 140:.\Generated_Source\PSoC5/Lcd.c ****     if(Lcd_initVar == 0u)
 141:.\Generated_Source\PSoC5/Lcd.c ****     {
 142:.\Generated_Source\PSoC5/Lcd.c ****         Lcd_Init();
 143:.\Generated_Source\PSoC5/Lcd.c ****         Lcd_initVar = 1u;
 144:.\Generated_Source\PSoC5/Lcd.c ****     }
 145:.\Generated_Source\PSoC5/Lcd.c **** 
 146:.\Generated_Source\PSoC5/Lcd.c ****     /* Turn on the LCD */
ARM GAS  C:\Users\Nick\AppData\Local\Temp\ccLHqkBb.s 			page 4


 147:.\Generated_Source\PSoC5/Lcd.c ****     Lcd_Enable();
 148:.\Generated_Source\PSoC5/Lcd.c **** }
 149:.\Generated_Source\PSoC5/Lcd.c **** 
 150:.\Generated_Source\PSoC5/Lcd.c **** 
 151:.\Generated_Source\PSoC5/Lcd.c **** /*******************************************************************************
 152:.\Generated_Source\PSoC5/Lcd.c **** * Function Name: Lcd_Stop
 153:.\Generated_Source\PSoC5/Lcd.c **** ********************************************************************************
 154:.\Generated_Source\PSoC5/Lcd.c **** *
 155:.\Generated_Source\PSoC5/Lcd.c **** * Summary:
 156:.\Generated_Source\PSoC5/Lcd.c **** *  Turns off the display of the LCD screen.
 157:.\Generated_Source\PSoC5/Lcd.c **** *
 158:.\Generated_Source\PSoC5/Lcd.c **** * Parameters:
 159:.\Generated_Source\PSoC5/Lcd.c **** *  None.
 160:.\Generated_Source\PSoC5/Lcd.c **** *
 161:.\Generated_Source\PSoC5/Lcd.c **** * Return:
 162:.\Generated_Source\PSoC5/Lcd.c **** *  None.
 163:.\Generated_Source\PSoC5/Lcd.c **** *
 164:.\Generated_Source\PSoC5/Lcd.c **** * Reentrant:
 165:.\Generated_Source\PSoC5/Lcd.c **** *  No.
 166:.\Generated_Source\PSoC5/Lcd.c **** *
 167:.\Generated_Source\PSoC5/Lcd.c **** *******************************************************************************/
 168:.\Generated_Source\PSoC5/Lcd.c **** void Lcd_Stop(void) 
 169:.\Generated_Source\PSoC5/Lcd.c **** {
 170:.\Generated_Source\PSoC5/Lcd.c ****     /* Calls LCD Off Macro */
 171:.\Generated_Source\PSoC5/Lcd.c ****     Lcd_DisplayOff();
 172:.\Generated_Source\PSoC5/Lcd.c ****     Lcd_enableState = 0u;
 173:.\Generated_Source\PSoC5/Lcd.c **** }
 174:.\Generated_Source\PSoC5/Lcd.c **** 
 175:.\Generated_Source\PSoC5/Lcd.c **** 
 176:.\Generated_Source\PSoC5/Lcd.c **** /*******************************************************************************
 177:.\Generated_Source\PSoC5/Lcd.c **** *  Function Name: Lcd_Position
 178:.\Generated_Source\PSoC5/Lcd.c **** ********************************************************************************
 179:.\Generated_Source\PSoC5/Lcd.c **** *
 180:.\Generated_Source\PSoC5/Lcd.c **** * Summary:
 181:.\Generated_Source\PSoC5/Lcd.c **** *  Moves active cursor location to a point specified by the input arguments
 182:.\Generated_Source\PSoC5/Lcd.c **** *
 183:.\Generated_Source\PSoC5/Lcd.c **** * Parameters:
 184:.\Generated_Source\PSoC5/Lcd.c **** *  row:     Specific row of LCD module to be written
 185:.\Generated_Source\PSoC5/Lcd.c **** *  column:  Column of LCD module to be written
 186:.\Generated_Source\PSoC5/Lcd.c **** *
 187:.\Generated_Source\PSoC5/Lcd.c **** * Return:
 188:.\Generated_Source\PSoC5/Lcd.c **** *  None.
 189:.\Generated_Source\PSoC5/Lcd.c **** *
 190:.\Generated_Source\PSoC5/Lcd.c **** * Note:
 191:.\Generated_Source\PSoC5/Lcd.c **** *  This only applies for LCD displays which use the 2X40 address mode.
 192:.\Generated_Source\PSoC5/Lcd.c **** *  This results in Row 2 offset from row one by 0x28.
 193:.\Generated_Source\PSoC5/Lcd.c **** *  When there are more than 2 rows, each row must be fewer than 20 characters.
 194:.\Generated_Source\PSoC5/Lcd.c **** *
 195:.\Generated_Source\PSoC5/Lcd.c **** *******************************************************************************/
 196:.\Generated_Source\PSoC5/Lcd.c **** void Lcd_Position(uint8 row, uint8 column) 
 197:.\Generated_Source\PSoC5/Lcd.c **** {
 198:.\Generated_Source\PSoC5/Lcd.c ****     switch (row)
 199:.\Generated_Source\PSoC5/Lcd.c ****     {
 200:.\Generated_Source\PSoC5/Lcd.c ****         case (uint8)0:
 201:.\Generated_Source\PSoC5/Lcd.c ****             Lcd_WriteControl(Lcd_ROW_0_START + column);
 202:.\Generated_Source\PSoC5/Lcd.c ****             break;
 203:.\Generated_Source\PSoC5/Lcd.c ****         case (uint8) 1:
ARM GAS  C:\Users\Nick\AppData\Local\Temp\ccLHqkBb.s 			page 5


 204:.\Generated_Source\PSoC5/Lcd.c ****             Lcd_WriteControl(Lcd_ROW_1_START + column);
 205:.\Generated_Source\PSoC5/Lcd.c ****             break;
 206:.\Generated_Source\PSoC5/Lcd.c ****         case (uint8) 2:
 207:.\Generated_Source\PSoC5/Lcd.c ****             Lcd_WriteControl(Lcd_ROW_2_START + column);
 208:.\Generated_Source\PSoC5/Lcd.c ****             break;
 209:.\Generated_Source\PSoC5/Lcd.c ****         case (uint8) 3:
 210:.\Generated_Source\PSoC5/Lcd.c ****             Lcd_WriteControl(Lcd_ROW_3_START + column);
 211:.\Generated_Source\PSoC5/Lcd.c ****             break;
 212:.\Generated_Source\PSoC5/Lcd.c ****         default:
 213:.\Generated_Source\PSoC5/Lcd.c ****             /* if default case is hit, invalid row argument was passed.*/
 214:.\Generated_Source\PSoC5/Lcd.c ****             break;
 215:.\Generated_Source\PSoC5/Lcd.c ****     }
 216:.\Generated_Source\PSoC5/Lcd.c **** }
 217:.\Generated_Source\PSoC5/Lcd.c **** 
 218:.\Generated_Source\PSoC5/Lcd.c **** 
 219:.\Generated_Source\PSoC5/Lcd.c **** /*******************************************************************************
 220:.\Generated_Source\PSoC5/Lcd.c **** * Function Name: Lcd_PrintString
 221:.\Generated_Source\PSoC5/Lcd.c **** ********************************************************************************
 222:.\Generated_Source\PSoC5/Lcd.c **** *
 223:.\Generated_Source\PSoC5/Lcd.c **** * Summary:
 224:.\Generated_Source\PSoC5/Lcd.c **** *  Writes a zero terminated string to the LCD.
 225:.\Generated_Source\PSoC5/Lcd.c **** *
 226:.\Generated_Source\PSoC5/Lcd.c **** * Parameters:
 227:.\Generated_Source\PSoC5/Lcd.c **** *  string:  pointer to head of char8 array to be written to the LCD module
 228:.\Generated_Source\PSoC5/Lcd.c **** *
 229:.\Generated_Source\PSoC5/Lcd.c **** * Return:
 230:.\Generated_Source\PSoC5/Lcd.c **** *  None.
 231:.\Generated_Source\PSoC5/Lcd.c **** *
 232:.\Generated_Source\PSoC5/Lcd.c **** *******************************************************************************/
 233:.\Generated_Source\PSoC5/Lcd.c **** void Lcd_PrintString(char8 const string[]) 
 234:.\Generated_Source\PSoC5/Lcd.c **** {
 235:.\Generated_Source\PSoC5/Lcd.c ****     uint8 indexU8 = 1u;
 236:.\Generated_Source\PSoC5/Lcd.c ****     char8 current = *string;
 237:.\Generated_Source\PSoC5/Lcd.c **** 
 238:.\Generated_Source\PSoC5/Lcd.c ****     /* Until null is reached, print next character */
 239:.\Generated_Source\PSoC5/Lcd.c ****     while((char8) '\0' != current)
 240:.\Generated_Source\PSoC5/Lcd.c ****     {
 241:.\Generated_Source\PSoC5/Lcd.c ****         Lcd_WriteData((uint8)current);
 242:.\Generated_Source\PSoC5/Lcd.c ****         current = string[indexU8];
 243:.\Generated_Source\PSoC5/Lcd.c ****         indexU8++;
 244:.\Generated_Source\PSoC5/Lcd.c ****     }
 245:.\Generated_Source\PSoC5/Lcd.c **** }
 246:.\Generated_Source\PSoC5/Lcd.c **** 
 247:.\Generated_Source\PSoC5/Lcd.c **** 
 248:.\Generated_Source\PSoC5/Lcd.c **** /*******************************************************************************
 249:.\Generated_Source\PSoC5/Lcd.c **** *  Function Name: Lcd_PutChar
 250:.\Generated_Source\PSoC5/Lcd.c **** ********************************************************************************
 251:.\Generated_Source\PSoC5/Lcd.c **** *
 252:.\Generated_Source\PSoC5/Lcd.c **** * Summary:
 253:.\Generated_Source\PSoC5/Lcd.c **** *  Writes a single character to the current cursor position of the LCD module.
 254:.\Generated_Source\PSoC5/Lcd.c **** *  Custom character names (_CUSTOM_0 through
 255:.\Generated_Source\PSoC5/Lcd.c **** *  _CUSTOM_7) are acceptable as inputs.
 256:.\Generated_Source\PSoC5/Lcd.c **** *
 257:.\Generated_Source\PSoC5/Lcd.c **** * Parameters:
 258:.\Generated_Source\PSoC5/Lcd.c **** *  character:  character to be written to the LCD
 259:.\Generated_Source\PSoC5/Lcd.c **** *
 260:.\Generated_Source\PSoC5/Lcd.c **** * Return:
ARM GAS  C:\Users\Nick\AppData\Local\Temp\ccLHqkBb.s 			page 6


 261:.\Generated_Source\PSoC5/Lcd.c **** *  None.
 262:.\Generated_Source\PSoC5/Lcd.c **** *
 263:.\Generated_Source\PSoC5/Lcd.c **** *******************************************************************************/
 264:.\Generated_Source\PSoC5/Lcd.c **** void Lcd_PutChar(char8 character) 
 265:.\Generated_Source\PSoC5/Lcd.c **** {
 266:.\Generated_Source\PSoC5/Lcd.c ****     Lcd_WriteData((uint8)character);
 267:.\Generated_Source\PSoC5/Lcd.c **** }
 268:.\Generated_Source\PSoC5/Lcd.c **** 
 269:.\Generated_Source\PSoC5/Lcd.c **** 
 270:.\Generated_Source\PSoC5/Lcd.c **** /*******************************************************************************
 271:.\Generated_Source\PSoC5/Lcd.c **** *  Function Name: Lcd_WriteData
 272:.\Generated_Source\PSoC5/Lcd.c **** ********************************************************************************
 273:.\Generated_Source\PSoC5/Lcd.c **** *
 274:.\Generated_Source\PSoC5/Lcd.c **** * Summary:
 275:.\Generated_Source\PSoC5/Lcd.c **** *  Writes a data byte to the LCD module's Data Display RAM.
 276:.\Generated_Source\PSoC5/Lcd.c **** *
 277:.\Generated_Source\PSoC5/Lcd.c **** * Parameters:
 278:.\Generated_Source\PSoC5/Lcd.c **** *  dByte:  byte to be written to LCD module.
 279:.\Generated_Source\PSoC5/Lcd.c **** *
 280:.\Generated_Source\PSoC5/Lcd.c **** * Return:
 281:.\Generated_Source\PSoC5/Lcd.c **** *  None.
 282:.\Generated_Source\PSoC5/Lcd.c **** *
 283:.\Generated_Source\PSoC5/Lcd.c **** *******************************************************************************/
 284:.\Generated_Source\PSoC5/Lcd.c **** void Lcd_WriteData(uint8 dByte) 
 285:.\Generated_Source\PSoC5/Lcd.c **** {
 286:.\Generated_Source\PSoC5/Lcd.c ****     uint8 nibble;
 287:.\Generated_Source\PSoC5/Lcd.c **** 
 288:.\Generated_Source\PSoC5/Lcd.c ****     /* Write high nibble */
 289:.\Generated_Source\PSoC5/Lcd.c **** 	nibble = dByte >> Lcd_NIBBLE_SHIFT;
 290:.\Generated_Source\PSoC5/Lcd.c ****     Lcd_WrDatNib(nibble);
 291:.\Generated_Source\PSoC5/Lcd.c **** 
 292:.\Generated_Source\PSoC5/Lcd.c ****      CyDelayUs(Lcd_NIB_DELAY_US);
 293:.\Generated_Source\PSoC5/Lcd.c **** 	 
 294:.\Generated_Source\PSoC5/Lcd.c ****     /* Write low nibble */
 295:.\Generated_Source\PSoC5/Lcd.c **** 	nibble = dByte & Lcd_NIBBLE_MASK;
 296:.\Generated_Source\PSoC5/Lcd.c ****     Lcd_WrDatNib(nibble);
 297:.\Generated_Source\PSoC5/Lcd.c **** 	
 298:.\Generated_Source\PSoC5/Lcd.c **** 	CyDelayUs(Lcd_DATA_DELAY_US);
 299:.\Generated_Source\PSoC5/Lcd.c **** 
 300:.\Generated_Source\PSoC5/Lcd.c **** }
 301:.\Generated_Source\PSoC5/Lcd.c **** 
 302:.\Generated_Source\PSoC5/Lcd.c **** 
 303:.\Generated_Source\PSoC5/Lcd.c **** /*******************************************************************************
 304:.\Generated_Source\PSoC5/Lcd.c **** *  Function Name: Lcd_WriteControl
 305:.\Generated_Source\PSoC5/Lcd.c **** ********************************************************************************
 306:.\Generated_Source\PSoC5/Lcd.c **** *
 307:.\Generated_Source\PSoC5/Lcd.c **** * Summary:
 308:.\Generated_Source\PSoC5/Lcd.c **** *  Writes a command byte to the LCD module.
 309:.\Generated_Source\PSoC5/Lcd.c **** *
 310:.\Generated_Source\PSoC5/Lcd.c **** * Parameters:
 311:.\Generated_Source\PSoC5/Lcd.c **** *  cByte:   byte to be written to LCD module.
 312:.\Generated_Source\PSoC5/Lcd.c **** *
 313:.\Generated_Source\PSoC5/Lcd.c **** * Return:
 314:.\Generated_Source\PSoC5/Lcd.c **** *  None.
 315:.\Generated_Source\PSoC5/Lcd.c **** *
 316:.\Generated_Source\PSoC5/Lcd.c **** *******************************************************************************/
 317:.\Generated_Source\PSoC5/Lcd.c **** void Lcd_WriteControl(uint8 cByte) 
ARM GAS  C:\Users\Nick\AppData\Local\Temp\ccLHqkBb.s 			page 7


 318:.\Generated_Source\PSoC5/Lcd.c **** {
 319:.\Generated_Source\PSoC5/Lcd.c ****     uint8 nibble;
 320:.\Generated_Source\PSoC5/Lcd.c **** 
 321:.\Generated_Source\PSoC5/Lcd.c ****     /* WrCntrlNib(High Nibble) */
 322:.\Generated_Source\PSoC5/Lcd.c **** 	 nibble = cByte >> Lcd_NIBBLE_SHIFT;
 323:.\Generated_Source\PSoC5/Lcd.c ****     Lcd_WrCntrlNib(nibble);
 324:.\Generated_Source\PSoC5/Lcd.c **** 
 325:.\Generated_Source\PSoC5/Lcd.c ****     CyDelayUs(Lcd_NIB_DELAY_US);
 326:.\Generated_Source\PSoC5/Lcd.c **** 	
 327:.\Generated_Source\PSoC5/Lcd.c ****     /* WrCntrlNib(Low Nibble) */
 328:.\Generated_Source\PSoC5/Lcd.c **** 	nibble = cByte & Lcd_NIBBLE_MASK;
 329:.\Generated_Source\PSoC5/Lcd.c ****     Lcd_WrCntrlNib(nibble);
 330:.\Generated_Source\PSoC5/Lcd.c **** 
 331:.\Generated_Source\PSoC5/Lcd.c ****      CyDelayUs(Lcd_CMD_DELAY_US);
 332:.\Generated_Source\PSoC5/Lcd.c **** }
 333:.\Generated_Source\PSoC5/Lcd.c **** 
 334:.\Generated_Source\PSoC5/Lcd.c **** 
 335:.\Generated_Source\PSoC5/Lcd.c **** /*******************************************************************************
 336:.\Generated_Source\PSoC5/Lcd.c **** * Function Name: Lcd_IsReady
 337:.\Generated_Source\PSoC5/Lcd.c **** ********************************************************************************
 338:.\Generated_Source\PSoC5/Lcd.c **** *
 339:.\Generated_Source\PSoC5/Lcd.c **** * Summary:
 340:.\Generated_Source\PSoC5/Lcd.c **** *  Polls LCD until the ready bit is set.
 341:.\Generated_Source\PSoC5/Lcd.c **** *
 342:.\Generated_Source\PSoC5/Lcd.c **** * Parameters:
 343:.\Generated_Source\PSoC5/Lcd.c **** *  None.
 344:.\Generated_Source\PSoC5/Lcd.c **** *
 345:.\Generated_Source\PSoC5/Lcd.c **** * Return:
 346:.\Generated_Source\PSoC5/Lcd.c **** *  None.
 347:.\Generated_Source\PSoC5/Lcd.c **** *
 348:.\Generated_Source\PSoC5/Lcd.c **** * Note:
 349:.\Generated_Source\PSoC5/Lcd.c **** *  Changes pins to High-Z.
 350:.\Generated_Source\PSoC5/Lcd.c **** *
 351:.\Generated_Source\PSoC5/Lcd.c **** *******************************************************************************/
 352:.\Generated_Source\PSoC5/Lcd.c **** void Lcd_IsReady(void) 
 353:.\Generated_Source\PSoC5/Lcd.c **** {
 354:.\Generated_Source\PSoC5/Lcd.c ****    
 355:.\Generated_Source\PSoC5/Lcd.c **** 	CyDelay(1u);
 356:.\Generated_Source\PSoC5/Lcd.c **** 	
 357:.\Generated_Source\PSoC5/Lcd.c **** }
 358:.\Generated_Source\PSoC5/Lcd.c **** 
 359:.\Generated_Source\PSoC5/Lcd.c **** 
 360:.\Generated_Source\PSoC5/Lcd.c **** /*******************************************************************************
 361:.\Generated_Source\PSoC5/Lcd.c **** *  Function Name: Lcd_WrDatNib
 362:.\Generated_Source\PSoC5/Lcd.c **** ********************************************************************************
 363:.\Generated_Source\PSoC5/Lcd.c **** *
 364:.\Generated_Source\PSoC5/Lcd.c **** * Summary:
 365:.\Generated_Source\PSoC5/Lcd.c **** *  Writes a data nibble to the LCD module.
 366:.\Generated_Source\PSoC5/Lcd.c **** *
 367:.\Generated_Source\PSoC5/Lcd.c **** * Parameters:
 368:.\Generated_Source\PSoC5/Lcd.c **** *  nibble:  byte containing nibble in least significant nibble to be written
 369:.\Generated_Source\PSoC5/Lcd.c **** *           to LCD module.
 370:.\Generated_Source\PSoC5/Lcd.c **** *
 371:.\Generated_Source\PSoC5/Lcd.c **** * Return:
 372:.\Generated_Source\PSoC5/Lcd.c **** *  None.
 373:.\Generated_Source\PSoC5/Lcd.c **** *
 374:.\Generated_Source\PSoC5/Lcd.c **** *******************************************************************************/
ARM GAS  C:\Users\Nick\AppData\Local\Temp\ccLHqkBb.s 			page 8


 375:.\Generated_Source\PSoC5/Lcd.c **** static void Lcd_WrDatNib(uint8 nibble) 
 376:.\Generated_Source\PSoC5/Lcd.c **** {
 377:.\Generated_Source\PSoC5/Lcd.c **** 
 378:.\Generated_Source\PSoC5/Lcd.c ****     /* RS shoul be low to select data register */
 379:.\Generated_Source\PSoC5/Lcd.c ****     Lcd_CNTL_REG |= Lcd_RS;
 380:.\Generated_Source\PSoC5/Lcd.c ****     /* Reset RW for write operation */
 381:.\Generated_Source\PSoC5/Lcd.c ****     Lcd_CNTL_REG &= ~Lcd_RW;
 382:.\Generated_Source\PSoC5/Lcd.c **** 
 383:.\Generated_Source\PSoC5/Lcd.c ****     /* Two following lines of code will provide us with 40ns delay */
 384:.\Generated_Source\PSoC5/Lcd.c ****     /* Clear data pins */
 385:.\Generated_Source\PSoC5/Lcd.c ****     Lcd_CNTL_REG &= ~Lcd_DATA_MASK;
 386:.\Generated_Source\PSoC5/Lcd.c **** 
 387:.\Generated_Source\PSoC5/Lcd.c ****     /* Write in data, bring E high*/
 388:.\Generated_Source\PSoC5/Lcd.c ****     Lcd_CNTL_REG |= (Lcd_E | nibble);
 389:.\Generated_Source\PSoC5/Lcd.c **** 
 390:.\Generated_Source\PSoC5/Lcd.c ****     /* Minimum of 230 ns delay */
 391:.\Generated_Source\PSoC5/Lcd.c ****     CyDelayUs(1u);
 392:.\Generated_Source\PSoC5/Lcd.c **** 
 393:.\Generated_Source\PSoC5/Lcd.c ****     Lcd_CNTL_REG &= ~Lcd_E;
 394:.\Generated_Source\PSoC5/Lcd.c **** 	
 395:.\Generated_Source\PSoC5/Lcd.c **** }
 396:.\Generated_Source\PSoC5/Lcd.c **** 
 397:.\Generated_Source\PSoC5/Lcd.c **** 
 398:.\Generated_Source\PSoC5/Lcd.c **** /*******************************************************************************
 399:.\Generated_Source\PSoC5/Lcd.c **** *  Function Name: Lcd_WrCntrlNib
 400:.\Generated_Source\PSoC5/Lcd.c **** ********************************************************************************
 401:.\Generated_Source\PSoC5/Lcd.c **** *
 402:.\Generated_Source\PSoC5/Lcd.c **** * Summary:
 403:.\Generated_Source\PSoC5/Lcd.c **** *  Writes a control nibble to the LCD module.
 404:.\Generated_Source\PSoC5/Lcd.c **** *
 405:.\Generated_Source\PSoC5/Lcd.c **** * Parameters:
 406:.\Generated_Source\PSoC5/Lcd.c **** *  nibble:  byte containing nibble in least significant nibble to be written
 407:.\Generated_Source\PSoC5/Lcd.c **** *           to LCD module.
 408:.\Generated_Source\PSoC5/Lcd.c **** *
 409:.\Generated_Source\PSoC5/Lcd.c **** * Return:
 410:.\Generated_Source\PSoC5/Lcd.c **** *  None.
 411:.\Generated_Source\PSoC5/Lcd.c **** *
 412:.\Generated_Source\PSoC5/Lcd.c **** *******************************************************************************/
 413:.\Generated_Source\PSoC5/Lcd.c **** static void Lcd_WrCntrlNib(uint8 nibble) 
 414:.\Generated_Source\PSoC5/Lcd.c **** {
  26              		.loc 1 414 0
  27              		.cfi_startproc
  28              		@ args = 0, pretend = 0, frame = 0
  29              		@ frame_needed = 0, uses_anonymous_args = 0
  30              	.LVL0:
  31 0000 10B5     		push	{r4, lr}
  32              		.cfi_def_cfa_offset 8
  33              		.cfi_offset 4, -8
  34              		.cfi_offset 14, -4
 415:.\Generated_Source\PSoC5/Lcd.c **** 	
 416:.\Generated_Source\PSoC5/Lcd.c **** 	/* RS and RW shoul be low to select instruction register and  write operation respectively */
 417:.\Generated_Source\PSoC5/Lcd.c ****     Lcd_CNTL_REG &= ~(Lcd_RS | Lcd_RW);
  35              		.loc 1 417 0
  36 0002 0B4C     		ldr	r4, .L2
  37 0004 2378     		ldrb	r3, [r4]	@ zero_extendqisi2
  38 0006 03F09F03 		and	r3, r3, #159
  39 000a 2370     		strb	r3, [r4]
ARM GAS  C:\Users\Nick\AppData\Local\Temp\ccLHqkBb.s 			page 9


 418:.\Generated_Source\PSoC5/Lcd.c **** 
 419:.\Generated_Source\PSoC5/Lcd.c ****     /* Two following lines of code will give provide ua with 40ns delay */
 420:.\Generated_Source\PSoC5/Lcd.c ****     /* Clear data pins */
 421:.\Generated_Source\PSoC5/Lcd.c ****     Lcd_CNTL_REG &= ~Lcd_DATA_MASK;
  40              		.loc 1 421 0
  41 000c 2378     		ldrb	r3, [r4]	@ zero_extendqisi2
  42 000e 03F0F003 		and	r3, r3, #240
  43 0012 2370     		strb	r3, [r4]
 422:.\Generated_Source\PSoC5/Lcd.c **** 
 423:.\Generated_Source\PSoC5/Lcd.c ****     /* Write control data and set enable signal */
 424:.\Generated_Source\PSoC5/Lcd.c ****     Lcd_CNTL_REG |= (Lcd_E | nibble);
  44              		.loc 1 424 0
  45 0014 2378     		ldrb	r3, [r4]	@ zero_extendqisi2
  46 0016 1843     		orrs	r0, r0, r3
  47              	.LVL1:
  48 0018 40F01003 		orr	r3, r0, #16
  49 001c 2370     		strb	r3, [r4]
 425:.\Generated_Source\PSoC5/Lcd.c **** 
 426:.\Generated_Source\PSoC5/Lcd.c ****     /* Minimum of 230 ns delay */
 427:.\Generated_Source\PSoC5/Lcd.c ****     CyDelayUs(1u);
  50              		.loc 1 427 0
  51 001e 0120     		movs	r0, #1
  52 0020 FFF7FEFF 		bl	CyDelayUs
  53              	.LVL2:
 428:.\Generated_Source\PSoC5/Lcd.c **** 
 429:.\Generated_Source\PSoC5/Lcd.c ****     Lcd_CNTL_REG &= ~Lcd_E;
  54              		.loc 1 429 0
  55 0024 2378     		ldrb	r3, [r4]	@ zero_extendqisi2
  56 0026 03F0EF03 		and	r3, r3, #239
  57 002a 2370     		strb	r3, [r4]
  58 002c 10BD     		pop	{r4, pc}
  59              	.L3:
  60 002e 00BF     		.align	2
  61              	.L2:
  62 0030 75640040 		.word	1073767541
  63              		.cfi_endproc
  64              	.LFE11:
  65              		.size	Lcd_WrCntrlNib, .-Lcd_WrCntrlNib
  66              		.section	.text.Lcd_WrDatNib,"ax",%progbits
  67              		.align	2
  68              		.thumb
  69              		.thumb_func
  70              		.type	Lcd_WrDatNib, %function
  71              	Lcd_WrDatNib:
  72              	.LFB10:
 376:.\Generated_Source\PSoC5/Lcd.c **** {
  73              		.loc 1 376 0
  74              		.cfi_startproc
  75              		@ args = 0, pretend = 0, frame = 0
  76              		@ frame_needed = 0, uses_anonymous_args = 0
  77              	.LVL3:
  78 0000 10B5     		push	{r4, lr}
  79              		.cfi_def_cfa_offset 8
  80              		.cfi_offset 4, -8
  81              		.cfi_offset 14, -4
 379:.\Generated_Source\PSoC5/Lcd.c ****     Lcd_CNTL_REG |= Lcd_RS;
  82              		.loc 1 379 0
ARM GAS  C:\Users\Nick\AppData\Local\Temp\ccLHqkBb.s 			page 10


  83 0002 0D4C     		ldr	r4, .L5
  84 0004 2378     		ldrb	r3, [r4]	@ zero_extendqisi2
  85 0006 43F02003 		orr	r3, r3, #32
  86 000a 2370     		strb	r3, [r4]
 381:.\Generated_Source\PSoC5/Lcd.c ****     Lcd_CNTL_REG &= ~Lcd_RW;
  87              		.loc 1 381 0
  88 000c 2378     		ldrb	r3, [r4]	@ zero_extendqisi2
  89 000e 03F0BF03 		and	r3, r3, #191
  90 0012 2370     		strb	r3, [r4]
 385:.\Generated_Source\PSoC5/Lcd.c ****     Lcd_CNTL_REG &= ~Lcd_DATA_MASK;
  91              		.loc 1 385 0
  92 0014 2378     		ldrb	r3, [r4]	@ zero_extendqisi2
  93 0016 03F0F003 		and	r3, r3, #240
  94 001a 2370     		strb	r3, [r4]
 388:.\Generated_Source\PSoC5/Lcd.c ****     Lcd_CNTL_REG |= (Lcd_E | nibble);
  95              		.loc 1 388 0
  96 001c 2378     		ldrb	r3, [r4]	@ zero_extendqisi2
  97 001e 1843     		orrs	r0, r0, r3
  98              	.LVL4:
  99 0020 40F01003 		orr	r3, r0, #16
 100 0024 2370     		strb	r3, [r4]
 391:.\Generated_Source\PSoC5/Lcd.c ****     CyDelayUs(1u);
 101              		.loc 1 391 0
 102 0026 0120     		movs	r0, #1
 103 0028 FFF7FEFF 		bl	CyDelayUs
 104              	.LVL5:
 393:.\Generated_Source\PSoC5/Lcd.c ****     Lcd_CNTL_REG &= ~Lcd_E;
 105              		.loc 1 393 0
 106 002c 2378     		ldrb	r3, [r4]	@ zero_extendqisi2
 107 002e 03F0EF03 		and	r3, r3, #239
 108 0032 2370     		strb	r3, [r4]
 109 0034 10BD     		pop	{r4, pc}
 110              	.L6:
 111 0036 00BF     		.align	2
 112              	.L5:
 113 0038 75640040 		.word	1073767541
 114              		.cfi_endproc
 115              	.LFE10:
 116              		.size	Lcd_WrDatNib, .-Lcd_WrDatNib
 117              		.section	.text.Lcd_WriteData,"ax",%progbits
 118              		.align	2
 119              		.global	Lcd_WriteData
 120              		.thumb
 121              		.thumb_func
 122              		.type	Lcd_WriteData, %function
 123              	Lcd_WriteData:
 124              	.LFB7:
 285:.\Generated_Source\PSoC5/Lcd.c **** {
 125              		.loc 1 285 0
 126              		.cfi_startproc
 127              		@ args = 0, pretend = 0, frame = 0
 128              		@ frame_needed = 0, uses_anonymous_args = 0
 129              	.LVL6:
 130 0000 10B5     		push	{r4, lr}
 131              		.cfi_def_cfa_offset 8
 132              		.cfi_offset 4, -8
 133              		.cfi_offset 14, -4
ARM GAS  C:\Users\Nick\AppData\Local\Temp\ccLHqkBb.s 			page 11


 134 0002 0446     		mov	r4, r0
 135              	.LVL7:
 290:.\Generated_Source\PSoC5/Lcd.c ****     Lcd_WrDatNib(nibble);
 136              		.loc 1 290 0
 137 0004 0009     		lsrs	r0, r0, #4
 138              	.LVL8:
 139 0006 FFF7FEFF 		bl	Lcd_WrDatNib
 140              	.LVL9:
 292:.\Generated_Source\PSoC5/Lcd.c ****      CyDelayUs(Lcd_NIB_DELAY_US);
 141              		.loc 1 292 0
 142 000a 6420     		movs	r0, #100
 143 000c FFF7FEFF 		bl	CyDelayUs
 144              	.LVL10:
 296:.\Generated_Source\PSoC5/Lcd.c ****     Lcd_WrDatNib(nibble);
 145              		.loc 1 296 0
 146 0010 04F00F00 		and	r0, r4, #15
 147 0014 FFF7FEFF 		bl	Lcd_WrDatNib
 148              	.LVL11:
 298:.\Generated_Source\PSoC5/Lcd.c **** 	CyDelayUs(Lcd_DATA_DELAY_US);
 149              		.loc 1 298 0
 150 0018 9620     		movs	r0, #150
 151 001a FFF7FEFF 		bl	CyDelayUs
 152              	.LVL12:
 153 001e 10BD     		pop	{r4, pc}
 154              		.cfi_endproc
 155              	.LFE7:
 156              		.size	Lcd_WriteData, .-Lcd_WriteData
 157              		.section	.text.Lcd_PrintString,"ax",%progbits
 158              		.align	2
 159              		.global	Lcd_PrintString
 160              		.thumb
 161              		.thumb_func
 162              		.type	Lcd_PrintString, %function
 163              	Lcd_PrintString:
 164              	.LFB5:
 234:.\Generated_Source\PSoC5/Lcd.c **** {
 165              		.loc 1 234 0
 166              		.cfi_startproc
 167              		@ args = 0, pretend = 0, frame = 0
 168              		@ frame_needed = 0, uses_anonymous_args = 0
 169              	.LVL13:
 170 0000 38B5     		push	{r3, r4, r5, lr}
 171              		.cfi_def_cfa_offset 16
 172              		.cfi_offset 3, -16
 173              		.cfi_offset 4, -12
 174              		.cfi_offset 5, -8
 175              		.cfi_offset 14, -4
 176 0002 0546     		mov	r5, r0
 177              	.LVL14:
 236:.\Generated_Source\PSoC5/Lcd.c ****     char8 current = *string;
 178              		.loc 1 236 0
 179 0004 0078     		ldrb	r0, [r0]	@ zero_extendqisi2
 180              	.LVL15:
 235:.\Generated_Source\PSoC5/Lcd.c ****     uint8 indexU8 = 1u;
 181              		.loc 1 235 0
 182 0006 0124     		movs	r4, #1
 239:.\Generated_Source\PSoC5/Lcd.c ****     while((char8) '\0' != current)
ARM GAS  C:\Users\Nick\AppData\Local\Temp\ccLHqkBb.s 			page 12


 183              		.loc 1 239 0
 184 0008 04E0     		b	.L9
 185              	.LVL16:
 186              	.L10:
 241:.\Generated_Source\PSoC5/Lcd.c ****         Lcd_WriteData((uint8)current);
 187              		.loc 1 241 0
 188 000a FFF7FEFF 		bl	Lcd_WriteData
 189              	.LVL17:
 242:.\Generated_Source\PSoC5/Lcd.c ****         current = string[indexU8];
 190              		.loc 1 242 0
 191 000e 285D     		ldrb	r0, [r5, r4]	@ zero_extendqisi2
 192              	.LVL18:
 243:.\Generated_Source\PSoC5/Lcd.c ****         indexU8++;
 193              		.loc 1 243 0
 194 0010 0134     		adds	r4, r4, #1
 195              	.LVL19:
 196 0012 E4B2     		uxtb	r4, r4
 197              	.LVL20:
 198              	.L9:
 239:.\Generated_Source\PSoC5/Lcd.c ****     while((char8) '\0' != current)
 199              		.loc 1 239 0 discriminator 1
 200 0014 0028     		cmp	r0, #0
 201 0016 F8D1     		bne	.L10
 245:.\Generated_Source\PSoC5/Lcd.c **** }
 202              		.loc 1 245 0
 203 0018 38BD     		pop	{r3, r4, r5, pc}
 204              		.cfi_endproc
 205              	.LFE5:
 206              		.size	Lcd_PrintString, .-Lcd_PrintString
 207 001a 00BF     		.section	.text.Lcd_PutChar,"ax",%progbits
 208              		.align	2
 209              		.global	Lcd_PutChar
 210              		.thumb
 211              		.thumb_func
 212              		.type	Lcd_PutChar, %function
 213              	Lcd_PutChar:
 214              	.LFB6:
 265:.\Generated_Source\PSoC5/Lcd.c **** {
 215              		.loc 1 265 0
 216              		.cfi_startproc
 217              		@ args = 0, pretend = 0, frame = 0
 218              		@ frame_needed = 0, uses_anonymous_args = 0
 219              	.LVL21:
 220 0000 08B5     		push	{r3, lr}
 221              		.cfi_def_cfa_offset 8
 222              		.cfi_offset 3, -8
 223              		.cfi_offset 14, -4
 266:.\Generated_Source\PSoC5/Lcd.c ****     Lcd_WriteData((uint8)character);
 224              		.loc 1 266 0
 225 0002 FFF7FEFF 		bl	Lcd_WriteData
 226              	.LVL22:
 227 0006 08BD     		pop	{r3, pc}
 228              		.cfi_endproc
 229              	.LFE6:
 230              		.size	Lcd_PutChar, .-Lcd_PutChar
 231              		.section	.text.Lcd_WriteControl,"ax",%progbits
 232              		.align	2
ARM GAS  C:\Users\Nick\AppData\Local\Temp\ccLHqkBb.s 			page 13


 233              		.global	Lcd_WriteControl
 234              		.thumb
 235              		.thumb_func
 236              		.type	Lcd_WriteControl, %function
 237              	Lcd_WriteControl:
 238              	.LFB8:
 318:.\Generated_Source\PSoC5/Lcd.c **** {
 239              		.loc 1 318 0
 240              		.cfi_startproc
 241              		@ args = 0, pretend = 0, frame = 0
 242              		@ frame_needed = 0, uses_anonymous_args = 0
 243              	.LVL23:
 244 0000 10B5     		push	{r4, lr}
 245              		.cfi_def_cfa_offset 8
 246              		.cfi_offset 4, -8
 247              		.cfi_offset 14, -4
 248 0002 0446     		mov	r4, r0
 249              	.LVL24:
 323:.\Generated_Source\PSoC5/Lcd.c ****     Lcd_WrCntrlNib(nibble);
 250              		.loc 1 323 0
 251 0004 0009     		lsrs	r0, r0, #4
 252              	.LVL25:
 253 0006 FFF7FEFF 		bl	Lcd_WrCntrlNib
 254              	.LVL26:
 325:.\Generated_Source\PSoC5/Lcd.c ****     CyDelayUs(Lcd_NIB_DELAY_US);
 255              		.loc 1 325 0
 256 000a 6420     		movs	r0, #100
 257 000c FFF7FEFF 		bl	CyDelayUs
 258              	.LVL27:
 329:.\Generated_Source\PSoC5/Lcd.c ****     Lcd_WrCntrlNib(nibble);
 259              		.loc 1 329 0
 260 0010 04F00F00 		and	r0, r4, #15
 261 0014 FFF7FEFF 		bl	Lcd_WrCntrlNib
 262              	.LVL28:
 331:.\Generated_Source\PSoC5/Lcd.c ****      CyDelayUs(Lcd_CMD_DELAY_US);
 263              		.loc 1 331 0
 264 0018 40F6C410 		movw	r0, #2500
 265 001c FFF7FEFF 		bl	CyDelayUs
 266              	.LVL29:
 267 0020 10BD     		pop	{r4, pc}
 268              		.cfi_endproc
 269              	.LFE8:
 270              		.size	Lcd_WriteControl, .-Lcd_WriteControl
 271 0022 00BF     		.section	.text.Lcd_Init,"ax",%progbits
 272              		.align	2
 273              		.global	Lcd_Init
 274              		.thumb
 275              		.thumb_func
 276              		.type	Lcd_Init, %function
 277              	Lcd_Init:
 278              	.LFB0:
  56:.\Generated_Source\PSoC5/Lcd.c **** {
 279              		.loc 1 56 0
 280              		.cfi_startproc
 281              		@ args = 0, pretend = 0, frame = 0
 282              		@ frame_needed = 0, uses_anonymous_args = 0
 283 0000 08B5     		push	{r3, lr}
ARM GAS  C:\Users\Nick\AppData\Local\Temp\ccLHqkBb.s 			page 14


 284              		.cfi_def_cfa_offset 8
 285              		.cfi_offset 3, -8
 286              		.cfi_offset 14, -4
  58:.\Generated_Source\PSoC5/Lcd.c ****     CyDelay(40u);                                                        /* Delay 40 ms */
 287              		.loc 1 58 0
 288 0002 2820     		movs	r0, #40
 289 0004 FFF7FEFF 		bl	CyDelay
 290              	.LVL30:
  59:.\Generated_Source\PSoC5/Lcd.c ****     Lcd_WrCntrlNib(Lcd_DISPLAY_8_BIT_INIT);   /* Selects 8-bit mode */
 291              		.loc 1 59 0
 292 0008 0320     		movs	r0, #3
 293 000a FFF7FEFF 		bl	Lcd_WrCntrlNib
 294              	.LVL31:
  60:.\Generated_Source\PSoC5/Lcd.c ****     CyDelay(5u);                                                         /* Delay 5 ms */
 295              		.loc 1 60 0
 296 000e 0520     		movs	r0, #5
 297 0010 FFF7FEFF 		bl	CyDelay
 298              	.LVL32:
  61:.\Generated_Source\PSoC5/Lcd.c ****     Lcd_WrCntrlNib(Lcd_DISPLAY_8_BIT_INIT);   /* Selects 8-bit mode */
 299              		.loc 1 61 0
 300 0014 0320     		movs	r0, #3
 301 0016 FFF7FEFF 		bl	Lcd_WrCntrlNib
 302              	.LVL33:
  62:.\Generated_Source\PSoC5/Lcd.c ****     CyDelay(15u);                                                        /* Delay 15 ms */
 303              		.loc 1 62 0
 304 001a 0F20     		movs	r0, #15
 305 001c FFF7FEFF 		bl	CyDelay
 306              	.LVL34:
  63:.\Generated_Source\PSoC5/Lcd.c ****     Lcd_WrCntrlNib(Lcd_DISPLAY_8_BIT_INIT);   /* Selects 8-bit mode */
 307              		.loc 1 63 0
 308 0020 0320     		movs	r0, #3
 309 0022 FFF7FEFF 		bl	Lcd_WrCntrlNib
 310              	.LVL35:
  64:.\Generated_Source\PSoC5/Lcd.c ****     CyDelay(1u);                                                         /* Delay 1 ms */
 311              		.loc 1 64 0
 312 0026 0120     		movs	r0, #1
 313 0028 FFF7FEFF 		bl	CyDelay
 314              	.LVL36:
  65:.\Generated_Source\PSoC5/Lcd.c ****     Lcd_WrCntrlNib(Lcd_DISPLAY_4_BIT_INIT);   /* Selects 4-bit mode */
 315              		.loc 1 65 0
 316 002c 0220     		movs	r0, #2
 317 002e FFF7FEFF 		bl	Lcd_WrCntrlNib
 318              	.LVL37:
  66:.\Generated_Source\PSoC5/Lcd.c ****     CyDelay(5u);                                                         /* Delay 5 ms */
 319              		.loc 1 66 0
 320 0032 0520     		movs	r0, #5
 321 0034 FFF7FEFF 		bl	CyDelay
 322              	.LVL38:
  68:.\Generated_Source\PSoC5/Lcd.c ****     Lcd_WriteControl(Lcd_CURSOR_AUTO_INCR_ON);    /* Incr Cursor After Writes */
 323              		.loc 1 68 0
 324 0038 0620     		movs	r0, #6
 325 003a FFF7FEFF 		bl	Lcd_WriteControl
 326              	.LVL39:
  69:.\Generated_Source\PSoC5/Lcd.c ****     Lcd_WriteControl(Lcd_DISPLAY_CURSOR_ON);      /* Turn Display, Cursor ON */
 327              		.loc 1 69 0
 328 003e 0E20     		movs	r0, #14
 329 0040 FFF7FEFF 		bl	Lcd_WriteControl
ARM GAS  C:\Users\Nick\AppData\Local\Temp\ccLHqkBb.s 			page 15


 330              	.LVL40:
  70:.\Generated_Source\PSoC5/Lcd.c ****     Lcd_WriteControl(Lcd_DISPLAY_2_LINES_5x10);   /* 2 Lines by 5x10 Characters */
 331              		.loc 1 70 0
 332 0044 2C20     		movs	r0, #44
 333 0046 FFF7FEFF 		bl	Lcd_WriteControl
 334              	.LVL41:
  71:.\Generated_Source\PSoC5/Lcd.c ****     Lcd_WriteControl(Lcd_DISPLAY_CURSOR_OFF);     /* Turn Display, Cursor OFF */
 335              		.loc 1 71 0
 336 004a 0820     		movs	r0, #8
 337 004c FFF7FEFF 		bl	Lcd_WriteControl
 338              	.LVL42:
  72:.\Generated_Source\PSoC5/Lcd.c ****     Lcd_WriteControl(Lcd_CLEAR_DISPLAY);          /* Clear LCD Screen */
 339              		.loc 1 72 0
 340 0050 0120     		movs	r0, #1
 341 0052 FFF7FEFF 		bl	Lcd_WriteControl
 342              	.LVL43:
  73:.\Generated_Source\PSoC5/Lcd.c ****     Lcd_WriteControl(Lcd_DISPLAY_ON_CURSOR_OFF);  /* Turn Display ON, Cursor OFF */
 343              		.loc 1 73 0
 344 0056 0C20     		movs	r0, #12
 345 0058 FFF7FEFF 		bl	Lcd_WriteControl
 346              	.LVL44:
  74:.\Generated_Source\PSoC5/Lcd.c ****     Lcd_WriteControl(Lcd_RESET_CURSOR_POSITION);  /* Set Cursor to 0,0 */
 347              		.loc 1 74 0
 348 005c 0320     		movs	r0, #3
 349 005e FFF7FEFF 		bl	Lcd_WriteControl
 350              	.LVL45:
  75:.\Generated_Source\PSoC5/Lcd.c ****     CyDelay(5u);
 351              		.loc 1 75 0
 352 0062 0520     		movs	r0, #5
 353 0064 FFF7FEFF 		bl	CyDelay
 354              	.LVL46:
 355 0068 08BD     		pop	{r3, pc}
 356              		.cfi_endproc
 357              	.LFE0:
 358              		.size	Lcd_Init, .-Lcd_Init
 359 006a 00BF     		.section	.text.Lcd_Enable,"ax",%progbits
 360              		.align	2
 361              		.global	Lcd_Enable
 362              		.thumb
 363              		.thumb_func
 364              		.type	Lcd_Enable, %function
 365              	Lcd_Enable:
 366              	.LFB1:
 105:.\Generated_Source\PSoC5/Lcd.c **** {
 367              		.loc 1 105 0
 368              		.cfi_startproc
 369              		@ args = 0, pretend = 0, frame = 0
 370              		@ frame_needed = 0, uses_anonymous_args = 0
 371 0000 08B5     		push	{r3, lr}
 372              		.cfi_def_cfa_offset 8
 373              		.cfi_offset 3, -8
 374              		.cfi_offset 14, -4
 106:.\Generated_Source\PSoC5/Lcd.c ****     Lcd_DisplayOn();
 375              		.loc 1 106 0
 376 0002 0C20     		movs	r0, #12
 377 0004 FFF7FEFF 		bl	Lcd_WriteControl
 378              	.LVL47:
ARM GAS  C:\Users\Nick\AppData\Local\Temp\ccLHqkBb.s 			page 16


 107:.\Generated_Source\PSoC5/Lcd.c ****     Lcd_enableState = 1u;
 379              		.loc 1 107 0
 380 0008 0122     		movs	r2, #1
 381 000a 014B     		ldr	r3, .L15
 382 000c 1A70     		strb	r2, [r3]
 383 000e 08BD     		pop	{r3, pc}
 384              	.L16:
 385              		.align	2
 386              	.L15:
 387 0010 00000000 		.word	.LANCHOR0
 388              		.cfi_endproc
 389              	.LFE1:
 390              		.size	Lcd_Enable, .-Lcd_Enable
 391              		.section	.text.Lcd_Start,"ax",%progbits
 392              		.align	2
 393              		.global	Lcd_Start
 394              		.thumb
 395              		.thumb_func
 396              		.type	Lcd_Start, %function
 397              	Lcd_Start:
 398              	.LFB2:
 138:.\Generated_Source\PSoC5/Lcd.c **** {
 399              		.loc 1 138 0
 400              		.cfi_startproc
 401              		@ args = 0, pretend = 0, frame = 0
 402              		@ frame_needed = 0, uses_anonymous_args = 0
 403 0000 08B5     		push	{r3, lr}
 404              		.cfi_def_cfa_offset 8
 405              		.cfi_offset 3, -8
 406              		.cfi_offset 14, -4
 140:.\Generated_Source\PSoC5/Lcd.c ****     if(Lcd_initVar == 0u)
 407              		.loc 1 140 0
 408 0002 054B     		ldr	r3, .L19
 409 0004 5B78     		ldrb	r3, [r3, #1]	@ zero_extendqisi2
 410 0006 23B9     		cbnz	r3, .L18
 142:.\Generated_Source\PSoC5/Lcd.c ****         Lcd_Init();
 411              		.loc 1 142 0
 412 0008 FFF7FEFF 		bl	Lcd_Init
 413              	.LVL48:
 143:.\Generated_Source\PSoC5/Lcd.c ****         Lcd_initVar = 1u;
 414              		.loc 1 143 0
 415 000c 0122     		movs	r2, #1
 416 000e 024B     		ldr	r3, .L19
 417 0010 5A70     		strb	r2, [r3, #1]
 418              	.L18:
 147:.\Generated_Source\PSoC5/Lcd.c ****     Lcd_Enable();
 419              		.loc 1 147 0
 420 0012 FFF7FEFF 		bl	Lcd_Enable
 421              	.LVL49:
 422 0016 08BD     		pop	{r3, pc}
 423              	.L20:
 424              		.align	2
 425              	.L19:
 426 0018 00000000 		.word	.LANCHOR0
 427              		.cfi_endproc
 428              	.LFE2:
 429              		.size	Lcd_Start, .-Lcd_Start
ARM GAS  C:\Users\Nick\AppData\Local\Temp\ccLHqkBb.s 			page 17


 430              		.section	.text.Lcd_Stop,"ax",%progbits
 431              		.align	2
 432              		.global	Lcd_Stop
 433              		.thumb
 434              		.thumb_func
 435              		.type	Lcd_Stop, %function
 436              	Lcd_Stop:
 437              	.LFB3:
 169:.\Generated_Source\PSoC5/Lcd.c **** {
 438              		.loc 1 169 0
 439              		.cfi_startproc
 440              		@ args = 0, pretend = 0, frame = 0
 441              		@ frame_needed = 0, uses_anonymous_args = 0
 442 0000 08B5     		push	{r3, lr}
 443              		.cfi_def_cfa_offset 8
 444              		.cfi_offset 3, -8
 445              		.cfi_offset 14, -4
 171:.\Generated_Source\PSoC5/Lcd.c ****     Lcd_DisplayOff();
 446              		.loc 1 171 0
 447 0002 0820     		movs	r0, #8
 448 0004 FFF7FEFF 		bl	Lcd_WriteControl
 449              	.LVL50:
 172:.\Generated_Source\PSoC5/Lcd.c ****     Lcd_enableState = 0u;
 450              		.loc 1 172 0
 451 0008 0022     		movs	r2, #0
 452 000a 014B     		ldr	r3, .L22
 453 000c 1A70     		strb	r2, [r3]
 454 000e 08BD     		pop	{r3, pc}
 455              	.L23:
 456              		.align	2
 457              	.L22:
 458 0010 00000000 		.word	.LANCHOR0
 459              		.cfi_endproc
 460              	.LFE3:
 461              		.size	Lcd_Stop, .-Lcd_Stop
 462              		.section	.text.Lcd_Position,"ax",%progbits
 463              		.align	2
 464              		.global	Lcd_Position
 465              		.thumb
 466              		.thumb_func
 467              		.type	Lcd_Position, %function
 468              	Lcd_Position:
 469              	.LFB4:
 197:.\Generated_Source\PSoC5/Lcd.c **** {
 470              		.loc 1 197 0
 471              		.cfi_startproc
 472              		@ args = 0, pretend = 0, frame = 0
 473              		@ frame_needed = 0, uses_anonymous_args = 0
 474              	.LVL51:
 475 0000 08B5     		push	{r3, lr}
 476              		.cfi_def_cfa_offset 8
 477              		.cfi_offset 3, -8
 478              		.cfi_offset 14, -4
 198:.\Generated_Source\PSoC5/Lcd.c ****     switch (row)
 479              		.loc 1 198 0
 480 0002 0328     		cmp	r0, #3
 481 0004 19D8     		bhi	.L24
ARM GAS  C:\Users\Nick\AppData\Local\Temp\ccLHqkBb.s 			page 18


 482 0006 DFE800F0 		tbb	[pc, r0]
 483              	.L27:
 484 000a 02       		.byte	(.L26-.L27)/2
 485 000b 07       		.byte	(.L28-.L27)/2
 486 000c 0D       		.byte	(.L29-.L27)/2
 487 000d 13       		.byte	(.L30-.L27)/2
 488              		.p2align 1
 489              	.L26:
 201:.\Generated_Source\PSoC5/Lcd.c ****             Lcd_WriteControl(Lcd_ROW_0_START + column);
 490              		.loc 1 201 0
 491 000e 81F08000 		eor	r0, r1, #128
 492              	.LVL52:
 493 0012 FFF7FEFF 		bl	Lcd_WriteControl
 494              	.LVL53:
 202:.\Generated_Source\PSoC5/Lcd.c ****             break;
 495              		.loc 1 202 0
 496 0016 08BD     		pop	{r3, pc}
 497              	.LVL54:
 498              	.L28:
 204:.\Generated_Source\PSoC5/Lcd.c ****             Lcd_WriteControl(Lcd_ROW_1_START + column);
 499              		.loc 1 204 0
 500 0018 A1F14000 		sub	r0, r1, #64
 501              	.LVL55:
 502 001c C0B2     		uxtb	r0, r0
 503 001e FFF7FEFF 		bl	Lcd_WriteControl
 504              	.LVL56:
 205:.\Generated_Source\PSoC5/Lcd.c ****             break;
 505              		.loc 1 205 0
 506 0022 08BD     		pop	{r3, pc}
 507              	.LVL57:
 508              	.L29:
 207:.\Generated_Source\PSoC5/Lcd.c ****             Lcd_WriteControl(Lcd_ROW_2_START + column);
 509              		.loc 1 207 0
 510 0024 A1F16C00 		sub	r0, r1, #108
 511              	.LVL58:
 512 0028 C0B2     		uxtb	r0, r0
 513 002a FFF7FEFF 		bl	Lcd_WriteControl
 514              	.LVL59:
 208:.\Generated_Source\PSoC5/Lcd.c ****             break;
 515              		.loc 1 208 0
 516 002e 08BD     		pop	{r3, pc}
 517              	.LVL60:
 518              	.L30:
 210:.\Generated_Source\PSoC5/Lcd.c ****             Lcd_WriteControl(Lcd_ROW_3_START + column);
 519              		.loc 1 210 0
 520 0030 A1F12C00 		sub	r0, r1, #44
 521              	.LVL61:
 522 0034 C0B2     		uxtb	r0, r0
 523 0036 FFF7FEFF 		bl	Lcd_WriteControl
 524              	.LVL62:
 525              	.L24:
 526 003a 08BD     		pop	{r3, pc}
 527              		.cfi_endproc
 528              	.LFE4:
 529              		.size	Lcd_Position, .-Lcd_Position
 530              		.section	.text.Lcd_IsReady,"ax",%progbits
 531              		.align	2
ARM GAS  C:\Users\Nick\AppData\Local\Temp\ccLHqkBb.s 			page 19


 532              		.global	Lcd_IsReady
 533              		.thumb
 534              		.thumb_func
 535              		.type	Lcd_IsReady, %function
 536              	Lcd_IsReady:
 537              	.LFB9:
 353:.\Generated_Source\PSoC5/Lcd.c **** {
 538              		.loc 1 353 0
 539              		.cfi_startproc
 540              		@ args = 0, pretend = 0, frame = 0
 541              		@ frame_needed = 0, uses_anonymous_args = 0
 542 0000 08B5     		push	{r3, lr}
 543              		.cfi_def_cfa_offset 8
 544              		.cfi_offset 3, -8
 545              		.cfi_offset 14, -4
 355:.\Generated_Source\PSoC5/Lcd.c **** 	CyDelay(1u);
 546              		.loc 1 355 0
 547 0002 0120     		movs	r0, #1
 548 0004 FFF7FEFF 		bl	CyDelay
 549              	.LVL63:
 550 0008 08BD     		pop	{r3, pc}
 551              		.cfi_endproc
 552              	.LFE9:
 553              		.size	Lcd_IsReady, .-Lcd_IsReady
 554 000a 00BF     		.section	.text.Lcd_PrintInt8,"ax",%progbits
 555              		.align	2
 556              		.global	Lcd_PrintInt8
 557              		.thumb
 558              		.thumb_func
 559              		.type	Lcd_PrintInt8, %function
 560              	Lcd_PrintInt8:
 561              	.LFB12:
 430:.\Generated_Source\PSoC5/Lcd.c **** }
 431:.\Generated_Source\PSoC5/Lcd.c **** 
 432:.\Generated_Source\PSoC5/Lcd.c **** 
 433:.\Generated_Source\PSoC5/Lcd.c **** #if(Lcd_CONVERSION_ROUTINES == 1u)
 434:.\Generated_Source\PSoC5/Lcd.c **** 
 435:.\Generated_Source\PSoC5/Lcd.c ****     /*******************************************************************************
 436:.\Generated_Source\PSoC5/Lcd.c ****     *  Function Name: Lcd_PrintInt8
 437:.\Generated_Source\PSoC5/Lcd.c ****     ********************************************************************************
 438:.\Generated_Source\PSoC5/Lcd.c ****     *
 439:.\Generated_Source\PSoC5/Lcd.c ****     * Summary:
 440:.\Generated_Source\PSoC5/Lcd.c ****     *  Print a byte as two ASCII characters.
 441:.\Generated_Source\PSoC5/Lcd.c ****     *
 442:.\Generated_Source\PSoC5/Lcd.c ****     * Parameters:
 443:.\Generated_Source\PSoC5/Lcd.c ****     *  value:  The byte to be printed out as ASCII characters.
 444:.\Generated_Source\PSoC5/Lcd.c ****     *
 445:.\Generated_Source\PSoC5/Lcd.c ****     * Return:
 446:.\Generated_Source\PSoC5/Lcd.c ****     *  None.
 447:.\Generated_Source\PSoC5/Lcd.c ****     *
 448:.\Generated_Source\PSoC5/Lcd.c ****     *******************************************************************************/
 449:.\Generated_Source\PSoC5/Lcd.c ****     void Lcd_PrintInt8(uint8 value) 
 450:.\Generated_Source\PSoC5/Lcd.c ****     {
 562              		.loc 1 450 0
 563              		.cfi_startproc
 564              		@ args = 0, pretend = 0, frame = 0
 565              		@ frame_needed = 0, uses_anonymous_args = 0
ARM GAS  C:\Users\Nick\AppData\Local\Temp\ccLHqkBb.s 			page 20


 566              	.LVL64:
 567 0000 38B5     		push	{r3, r4, r5, lr}
 568              		.cfi_def_cfa_offset 16
 569              		.cfi_offset 3, -16
 570              		.cfi_offset 4, -12
 571              		.cfi_offset 5, -8
 572              		.cfi_offset 14, -4
 573 0002 0546     		mov	r5, r0
 451:.\Generated_Source\PSoC5/Lcd.c ****         static char8 const CYCODE Lcd_hex[16u] = "0123456789ABCDEF";
 452:.\Generated_Source\PSoC5/Lcd.c ****         
 453:.\Generated_Source\PSoC5/Lcd.c ****         Lcd_PutChar((char8) Lcd_hex[value >> Lcd_BYTE_UPPER_NIBBLE_SHIFT]);
 574              		.loc 1 453 0
 575 0004 0309     		lsrs	r3, r0, #4
 576 0006 054C     		ldr	r4, .L33
 577 0008 E05C     		ldrb	r0, [r4, r3]	@ zero_extendqisi2
 578              	.LVL65:
 579 000a FFF7FEFF 		bl	Lcd_PutChar
 580              	.LVL66:
 454:.\Generated_Source\PSoC5/Lcd.c ****         Lcd_PutChar((char8) Lcd_hex[value & Lcd_BYTE_LOWER_NIBBLE_MASK]);
 581              		.loc 1 454 0
 582 000e 05F00F05 		and	r5, r5, #15
 583 0012 605D     		ldrb	r0, [r4, r5]	@ zero_extendqisi2
 584 0014 FFF7FEFF 		bl	Lcd_PutChar
 585              	.LVL67:
 586 0018 38BD     		pop	{r3, r4, r5, pc}
 587              	.L34:
 588 001a 00BF     		.align	2
 589              	.L33:
 590 001c 00000000 		.word	.LANCHOR1
 591              		.cfi_endproc
 592              	.LFE12:
 593              		.size	Lcd_PrintInt8, .-Lcd_PrintInt8
 594              		.section	.text.Lcd_PrintInt16,"ax",%progbits
 595              		.align	2
 596              		.global	Lcd_PrintInt16
 597              		.thumb
 598              		.thumb_func
 599              		.type	Lcd_PrintInt16, %function
 600              	Lcd_PrintInt16:
 601              	.LFB13:
 455:.\Generated_Source\PSoC5/Lcd.c ****     }
 456:.\Generated_Source\PSoC5/Lcd.c **** 
 457:.\Generated_Source\PSoC5/Lcd.c **** 
 458:.\Generated_Source\PSoC5/Lcd.c ****     /*******************************************************************************
 459:.\Generated_Source\PSoC5/Lcd.c ****     *  Function Name: Lcd_PrintInt16
 460:.\Generated_Source\PSoC5/Lcd.c ****     ********************************************************************************
 461:.\Generated_Source\PSoC5/Lcd.c ****     *
 462:.\Generated_Source\PSoC5/Lcd.c ****     * Summary:
 463:.\Generated_Source\PSoC5/Lcd.c ****     *  Print a uint16 as four ASCII characters.
 464:.\Generated_Source\PSoC5/Lcd.c ****     *
 465:.\Generated_Source\PSoC5/Lcd.c ****     * Parameters:
 466:.\Generated_Source\PSoC5/Lcd.c ****     *  value:   The uint16 to be printed out as ASCII characters.
 467:.\Generated_Source\PSoC5/Lcd.c ****     *
 468:.\Generated_Source\PSoC5/Lcd.c ****     * Return:
 469:.\Generated_Source\PSoC5/Lcd.c ****     *  None.
 470:.\Generated_Source\PSoC5/Lcd.c ****     *
 471:.\Generated_Source\PSoC5/Lcd.c ****     *******************************************************************************/
ARM GAS  C:\Users\Nick\AppData\Local\Temp\ccLHqkBb.s 			page 21


 472:.\Generated_Source\PSoC5/Lcd.c ****     void Lcd_PrintInt16(uint16 value) 
 473:.\Generated_Source\PSoC5/Lcd.c ****     {
 602              		.loc 1 473 0
 603              		.cfi_startproc
 604              		@ args = 0, pretend = 0, frame = 0
 605              		@ frame_needed = 0, uses_anonymous_args = 0
 606              	.LVL68:
 607 0000 10B5     		push	{r4, lr}
 608              		.cfi_def_cfa_offset 8
 609              		.cfi_offset 4, -8
 610              		.cfi_offset 14, -4
 611 0002 0446     		mov	r4, r0
 474:.\Generated_Source\PSoC5/Lcd.c ****         Lcd_PrintInt8((uint8)(value >> Lcd_U16_UPPER_BYTE_SHIFT));
 612              		.loc 1 474 0
 613 0004 000A     		lsrs	r0, r0, #8
 614              	.LVL69:
 615 0006 FFF7FEFF 		bl	Lcd_PrintInt8
 616              	.LVL70:
 475:.\Generated_Source\PSoC5/Lcd.c ****         Lcd_PrintInt8((uint8)(value & Lcd_U16_LOWER_BYTE_MASK));
 617              		.loc 1 475 0
 618 000a E0B2     		uxtb	r0, r4
 619 000c FFF7FEFF 		bl	Lcd_PrintInt8
 620              	.LVL71:
 621 0010 10BD     		pop	{r4, pc}
 622              		.cfi_endproc
 623              	.LFE13:
 624              		.size	Lcd_PrintInt16, .-Lcd_PrintInt16
 625 0012 00BF     		.section	.text.Lcd_PrintNumber,"ax",%progbits
 626              		.align	2
 627              		.global	Lcd_PrintNumber
 628              		.thumb
 629              		.thumb_func
 630              		.type	Lcd_PrintNumber, %function
 631              	Lcd_PrintNumber:
 632              	.LFB14:
 476:.\Generated_Source\PSoC5/Lcd.c ****     }
 477:.\Generated_Source\PSoC5/Lcd.c **** 
 478:.\Generated_Source\PSoC5/Lcd.c **** 
 479:.\Generated_Source\PSoC5/Lcd.c ****     /*******************************************************************************
 480:.\Generated_Source\PSoC5/Lcd.c ****     *  Function Name: Lcd_PrintNumber
 481:.\Generated_Source\PSoC5/Lcd.c ****     ********************************************************************************
 482:.\Generated_Source\PSoC5/Lcd.c ****     *
 483:.\Generated_Source\PSoC5/Lcd.c ****     * Summary:
 484:.\Generated_Source\PSoC5/Lcd.c ****     *  Print an uint32 value as a left-justified decimal value.
 485:.\Generated_Source\PSoC5/Lcd.c ****     *
 486:.\Generated_Source\PSoC5/Lcd.c ****     * Parameters:
 487:.\Generated_Source\PSoC5/Lcd.c ****     *  value:  The byte to be printed out as ASCII characters.
 488:.\Generated_Source\PSoC5/Lcd.c ****     *
 489:.\Generated_Source\PSoC5/Lcd.c ****     * Return:
 490:.\Generated_Source\PSoC5/Lcd.c ****     *  None.
 491:.\Generated_Source\PSoC5/Lcd.c ****     *
 492:.\Generated_Source\PSoC5/Lcd.c ****     *******************************************************************************/
 493:.\Generated_Source\PSoC5/Lcd.c ****     void Lcd_PrintNumber(uint16 value) 
 494:.\Generated_Source\PSoC5/Lcd.c ****     {
 633              		.loc 1 494 0
 634              		.cfi_startproc
 635              		@ args = 0, pretend = 0, frame = 16
ARM GAS  C:\Users\Nick\AppData\Local\Temp\ccLHqkBb.s 			page 22


 636              		@ frame_needed = 0, uses_anonymous_args = 0
 637              	.LVL72:
 638 0000 30B5     		push	{r4, r5, lr}
 639              		.cfi_def_cfa_offset 12
 640              		.cfi_offset 4, -12
 641              		.cfi_offset 5, -8
 642              		.cfi_offset 14, -4
 643 0002 85B0     		sub	sp, sp, #20
 644              		.cfi_def_cfa_offset 32
 645              	.LVL73:
 495:.\Generated_Source\PSoC5/Lcd.c **** 
 496:.\Generated_Source\PSoC5/Lcd.c ****         char8 number[Lcd_NUMBER_OF_REMAINDERS];
 497:.\Generated_Source\PSoC5/Lcd.c ****         char8 temp[Lcd_NUMBER_OF_REMAINDERS];
 498:.\Generated_Source\PSoC5/Lcd.c **** 
 499:.\Generated_Source\PSoC5/Lcd.c ****         uint8 digIndex = 0u;
 646              		.loc 1 499 0
 647 0004 0021     		movs	r1, #0
 500:.\Generated_Source\PSoC5/Lcd.c ****         uint8 numDigits;
 501:.\Generated_Source\PSoC5/Lcd.c **** 
 502:.\Generated_Source\PSoC5/Lcd.c ****         /* Load these in reverse order */
 503:.\Generated_Source\PSoC5/Lcd.c ****         while(value >= Lcd_TEN)
 504:.\Generated_Source\PSoC5/Lcd.c ****         {
 505:.\Generated_Source\PSoC5/Lcd.c ****             temp[digIndex] = (value % Lcd_TEN) + '0';
 648              		.loc 1 505 0
 649 0006 204D     		ldr	r5, .L41
 503:.\Generated_Source\PSoC5/Lcd.c ****         while(value >= Lcd_TEN)
 650              		.loc 1 503 0
 651 0008 0EE0     		b	.L37
 652              	.LVL74:
 653              	.L38:
 654              		.loc 1 505 0
 655 000a 04AC     		add	r4, sp, #16
 656 000c 0C44     		add	r4, r4, r1
 657 000e A5FB0023 		umull	r2, r3, r5, r0
 658 0012 DB08     		lsrs	r3, r3, #3
 659 0014 03EB8302 		add	r2, r3, r3, lsl #2
 660 0018 5200     		lsls	r2, r2, #1
 661 001a 821A     		subs	r2, r0, r2
 662 001c 3032     		adds	r2, r2, #48
 663 001e 04F8102C 		strb	r2, [r4, #-16]
 506:.\Generated_Source\PSoC5/Lcd.c ****             value /= Lcd_TEN;
 664              		.loc 1 506 0
 665 0022 98B2     		uxth	r0, r3
 666              	.LVL75:
 507:.\Generated_Source\PSoC5/Lcd.c ****             digIndex++;
 667              		.loc 1 507 0
 668 0024 0131     		adds	r1, r1, #1
 669              	.LVL76:
 670 0026 C9B2     		uxtb	r1, r1
 671              	.LVL77:
 672              	.L37:
 503:.\Generated_Source\PSoC5/Lcd.c ****         while(value >= Lcd_TEN)
 673              		.loc 1 503 0 discriminator 1
 674 0028 0928     		cmp	r0, #9
 675 002a EED8     		bhi	.L38
 508:.\Generated_Source\PSoC5/Lcd.c ****         }
 509:.\Generated_Source\PSoC5/Lcd.c **** 
ARM GAS  C:\Users\Nick\AppData\Local\Temp\ccLHqkBb.s 			page 23


 510:.\Generated_Source\PSoC5/Lcd.c ****         temp[digIndex] = (value % Lcd_TEN) + '0';
 676              		.loc 1 510 0
 677 002c 0C46     		mov	r4, r1
 678 002e 164B     		ldr	r3, .L41
 679 0030 A3FB0053 		umull	r5, r3, r3, r0
 680 0034 DB08     		lsrs	r3, r3, #3
 681 0036 03EB8303 		add	r3, r3, r3, lsl #2
 682 003a 5B00     		lsls	r3, r3, #1
 683 003c C31A     		subs	r3, r0, r3
 684 003e 3033     		adds	r3, r3, #48
 685 0040 04AA     		add	r2, sp, #16
 686 0042 0A44     		add	r2, r2, r1
 687 0044 02F8103C 		strb	r3, [r2, #-16]
 688              	.LVL78:
 511:.\Generated_Source\PSoC5/Lcd.c ****         numDigits = digIndex;
 512:.\Generated_Source\PSoC5/Lcd.c **** 
 513:.\Generated_Source\PSoC5/Lcd.c ****         /* While index is greater than or equal to zero copy number
 514:.\Generated_Source\PSoC5/Lcd.c ****         * from temporary array to number[].
 515:.\Generated_Source\PSoC5/Lcd.c ****         */
 516:.\Generated_Source\PSoC5/Lcd.c ****         while (digIndex != 0u)
 689              		.loc 1 516 0
 690 0048 0B46     		mov	r3, r1
 691 004a 0AE0     		b	.L39
 692              	.LVL79:
 693              	.L40:
 517:.\Generated_Source\PSoC5/Lcd.c ****         {
 518:.\Generated_Source\PSoC5/Lcd.c ****             number[numDigits - digIndex] = temp[digIndex];
 694              		.loc 1 518 0
 695 004c E21A     		subs	r2, r4, r3
 696 004e 04A8     		add	r0, sp, #16
 697 0050 1844     		add	r0, r0, r3
 698 0052 10F8100C 		ldrb	r0, [r0, #-16]	@ zero_extendqisi2
 699 0056 04AD     		add	r5, sp, #16
 700 0058 2A44     		add	r2, r2, r5
 701 005a 02F8080C 		strb	r0, [r2, #-8]
 519:.\Generated_Source\PSoC5/Lcd.c ****             digIndex--;
 702              		.loc 1 519 0
 703 005e 013B     		subs	r3, r3, #1
 704              	.LVL80:
 705 0060 DBB2     		uxtb	r3, r3
 706              	.LVL81:
 707              	.L39:
 516:.\Generated_Source\PSoC5/Lcd.c ****         while (digIndex != 0u)
 708              		.loc 1 516 0 discriminator 1
 709 0062 002B     		cmp	r3, #0
 710 0064 F2D1     		bne	.L40
 520:.\Generated_Source\PSoC5/Lcd.c ****         }
 521:.\Generated_Source\PSoC5/Lcd.c ****         
 522:.\Generated_Source\PSoC5/Lcd.c ****         /* Copy last digit */
 523:.\Generated_Source\PSoC5/Lcd.c ****         number[numDigits] = temp[0u];
 711              		.loc 1 523 0
 712 0066 9DF80030 		ldrb	r3, [sp]	@ zero_extendqisi2
 713              	.LVL82:
 714 006a 04AA     		add	r2, sp, #16
 715 006c 1444     		add	r4, r4, r2
 716 006e 04F8083C 		strb	r3, [r4, #-8]
 524:.\Generated_Source\PSoC5/Lcd.c **** 
ARM GAS  C:\Users\Nick\AppData\Local\Temp\ccLHqkBb.s 			page 24


 525:.\Generated_Source\PSoC5/Lcd.c ****         /* Null Termination */
 526:.\Generated_Source\PSoC5/Lcd.c ****         number[numDigits + 1u] = (char8) '\0';
 717              		.loc 1 526 0
 718 0072 0131     		adds	r1, r1, #1
 719              	.LVL83:
 720 0074 1144     		add	r1, r1, r2
 721              	.LVL84:
 722 0076 0023     		movs	r3, #0
 723 0078 01F8083C 		strb	r3, [r1, #-8]
 527:.\Generated_Source\PSoC5/Lcd.c **** 
 528:.\Generated_Source\PSoC5/Lcd.c ****         /* Print out number */
 529:.\Generated_Source\PSoC5/Lcd.c ****         Lcd_PrintString(&number[0u]);
 724              		.loc 1 529 0
 725 007c 02A8     		add	r0, sp, #8
 726 007e FFF7FEFF 		bl	Lcd_PrintString
 727              	.LVL85:
 530:.\Generated_Source\PSoC5/Lcd.c ****     }
 728              		.loc 1 530 0
 729 0082 05B0     		add	sp, sp, #20
 730              		@ sp needed
 731 0084 30BD     		pop	{r4, r5, pc}
 732              	.L42:
 733 0086 00BF     		.align	2
 734              	.L41:
 735 0088 CDCCCCCC 		.word	-858993459
 736              		.cfi_endproc
 737              	.LFE14:
 738              		.size	Lcd_PrintNumber, .-Lcd_PrintNumber
 739              		.global	Lcd_initVar
 740              		.global	Lcd_enableState
 741              		.section	.rodata
 742              		.align	2
 743              		.set	.LANCHOR1,. + 0
 744              		.type	Lcd_hex.4900, %object
 745              		.size	Lcd_hex.4900, 16
 746              	Lcd_hex.4900:
 747 0000 30313233 		.ascii	"0123456789ABCDEF"
 747      34353637 
 747      38394142 
 747      43444546 
 748              		.bss
 749              		.set	.LANCHOR0,. + 0
 750              		.type	Lcd_enableState, %object
 751              		.size	Lcd_enableState, 1
 752              	Lcd_enableState:
 753 0000 00       		.space	1
 754              		.type	Lcd_initVar, %object
 755              		.size	Lcd_initVar, 1
 756              	Lcd_initVar:
 757 0001 00       		.space	1
 758              		.text
 759              	.Letext0:
 760              		.file 2 ".\\Generated_Source\\PSoC5\\cytypes.h"
 761              		.file 3 ".\\Generated_Source\\PSoC5\\CyLib.h"