ARM GAS  C:\Users\Nick\AppData\Local\Temp\cc5XQjwu.s 			page 1


   1              		.syntax unified
   2              		.cpu cortex-m3
   3              		.fpu softvfp
   4              		.eabi_attribute 20, 1
   5              		.eabi_attribute 21, 1
   6              		.eabi_attribute 23, 3
   7              		.eabi_attribute 24, 1
   8              		.eabi_attribute 25, 1
   9              		.eabi_attribute 26, 1
  10              		.eabi_attribute 30, 1
  11              		.eabi_attribute 34, 1
  12              		.eabi_attribute 18, 4
  13              		.thumb
  14              		.file	"main.c"
  15              		.text
  16              	.Ltext0:
  17              		.cfi_sections	.debug_frame
  18              		.section	.text.Btn0Pressed,"ax",%progbits
  19              		.align	2
  20              		.global	Btn0Pressed
  21              		.thumb
  22              		.thumb_func
  23              		.type	Btn0Pressed, %function
  24              	Btn0Pressed:
  25              	.LFB63:
  26              		.file 1 ".\\main.c"
   1:.\main.c      **** #include <project.h>
   2:.\main.c      **** #include <stdlib.h>
   3:.\main.c      **** #include "main.h"
   4:.\main.c      **** #include "cv.h"
   5:.\main.c      **** #include "sensors.h"
   6:.\main.c      **** #include "motion.h"
   7:.\main.c      **** 
   8:.\main.c      **** uint8 * plan;
   9:.\main.c      **** 
  10:.\main.c      **** void Btn0Pressed() {
  27              		.loc 1 10 0
  28              		.cfi_startproc
  29              		@ args = 0, pretend = 0, frame = 0
  30              		@ frame_needed = 0, uses_anonymous_args = 0
  31 0000 08B5     		push	{r3, lr}
  32              		.cfi_def_cfa_offset 8
  33              		.cfi_offset 3, -8
  34              		.cfi_offset 14, -4
  11:.\main.c      ****     LedGreen_Write(!LedGreen_Read());
  35              		.loc 1 11 0
  36 0002 FFF7FEFF 		bl	LedGreen_Read
  37              	.LVL0:
  38 0006 D0F10100 		rsbs	r0, r0, #1
  39 000a 38BF     		it	cc
  40 000c 0020     		movcc	r0, #0
  41 000e FFF7FEFF 		bl	LedGreen_Write
  42              	.LVL1:
  12:.\main.c      ****     rotateStepCCW(100);
  43              		.loc 1 12 0
  44 0012 6420     		movs	r0, #100
  45 0014 FFF7FEFF 		bl	rotateStepCCW
ARM GAS  C:\Users\Nick\AppData\Local\Temp\cc5XQjwu.s 			page 2


  46              	.LVL2:
  47 0018 08BD     		pop	{r3, pc}
  48              		.cfi_endproc
  49              	.LFE63:
  50              		.size	Btn0Pressed, .-Btn0Pressed
  51 001a 00BF     		.section	.text.Btn1Pressed,"ax",%progbits
  52              		.align	2
  53              		.global	Btn1Pressed
  54              		.thumb
  55              		.thumb_func
  56              		.type	Btn1Pressed, %function
  57              	Btn1Pressed:
  58              	.LFB64:
  13:.\main.c      **** }
  14:.\main.c      **** 
  15:.\main.c      **** void Btn1Pressed() {
  59              		.loc 1 15 0
  60              		.cfi_startproc
  61              		@ args = 0, pretend = 0, frame = 0
  62              		@ frame_needed = 0, uses_anonymous_args = 0
  63 0000 08B5     		push	{r3, lr}
  64              		.cfi_def_cfa_offset 8
  65              		.cfi_offset 3, -8
  66              		.cfi_offset 14, -4
  16:.\main.c      ****     LedBlue_Write(!LedBlue_Read());
  67              		.loc 1 16 0
  68 0002 FFF7FEFF 		bl	LedBlue_Read
  69              	.LVL3:
  70 0006 D0F10100 		rsbs	r0, r0, #1
  71 000a 38BF     		it	cc
  72 000c 0020     		movcc	r0, #0
  73 000e FFF7FEFF 		bl	LedBlue_Write
  74              	.LVL4:
  17:.\main.c      ****     rotateStepCW(100);
  75              		.loc 1 17 0
  76 0012 6420     		movs	r0, #100
  77 0014 FFF7FEFF 		bl	rotateStepCW
  78              	.LVL5:
  79 0018 08BD     		pop	{r3, pc}
  80              		.cfi_endproc
  81              	.LFE64:
  82              		.size	Btn1Pressed, .-Btn1Pressed
  83 001a 00BF     		.section	.text.MicroSwitchTrigger,"ax",%progbits
  84              		.align	2
  85              		.global	MicroSwitchTrigger
  86              		.thumb
  87              		.thumb_func
  88              		.type	MicroSwitchTrigger, %function
  89              	MicroSwitchTrigger:
  90              	.LFB67:
  18:.\main.c      **** }
  19:.\main.c      **** 
  20:.\main.c      **** void displayPlanOnLcd() {
  21:.\main.c      ****     Lcd_Position(0,0);
  22:.\main.c      ****     int i;
  23:.\main.c      ****     for (i = 0; i < ROWS; i++) {
  24:.\main.c      ****         Lcd_Position(0, 4*i);
ARM GAS  C:\Users\Nick\AppData\Local\Temp\cc5XQjwu.s 			page 3


  25:.\main.c      ****         Lcd_PrintDecUint16(plan[i]);
  26:.\main.c      ****     }
  27:.\main.c      **** }
  28:.\main.c      **** 
  29:.\main.c      **** void getPlan() {
  30:.\main.c      ****     //plan = (uint8 *) malloc(sizeof(int) * ROWS);
  31:.\main.c      ****     plan = readPlanWithCamera();
  32:.\main.c      ****     Lcd_PosPrintString(1, 0, "returned");
  33:.\main.c      **** }
  34:.\main.c      **** 
  35:.\main.c      **** void MicroSwitchTrigger() {
  91              		.loc 1 35 0
  92              		.cfi_startproc
  93              		@ args = 0, pretend = 0, frame = 0
  94              		@ frame_needed = 0, uses_anonymous_args = 0
  95 0000 08B5     		push	{r3, lr}
  96              		.cfi_def_cfa_offset 8
  97              		.cfi_offset 3, -8
  98              		.cfi_offset 14, -4
  36:.\main.c      ****     LedRed_Write(!LedRed_Read());
  99              		.loc 1 36 0
 100 0002 FFF7FEFF 		bl	LedRed_Read
 101              	.LVL6:
 102 0006 D0F10100 		rsbs	r0, r0, #1
 103 000a 38BF     		it	cc
 104 000c 0020     		movcc	r0, #0
 105 000e FFF7FEFF 		bl	LedRed_Write
 106              	.LVL7:
  37:.\main.c      ****     
  38:.\main.c      ****     RotateCCW_Write(0);
 107              		.loc 1 38 0
 108 0012 0020     		movs	r0, #0
 109 0014 FFF7FEFF 		bl	RotateCCW_Write
 110              	.LVL8:
  39:.\main.c      ****     RotateCW_Write(0);
 111              		.loc 1 39 0
 112 0018 0020     		movs	r0, #0
 113 001a FFF7FEFF 		bl	RotateCW_Write
 114              	.LVL9:
 115 001e 08BD     		pop	{r3, pc}
 116              		.cfi_endproc
 117              	.LFE67:
 118              		.size	MicroSwitchTrigger, .-MicroSwitchTrigger
 119              		.section	.text.displayPlanOnLcd,"ax",%progbits
 120              		.align	2
 121              		.global	displayPlanOnLcd
 122              		.thumb
 123              		.thumb_func
 124              		.type	displayPlanOnLcd, %function
 125              	displayPlanOnLcd:
 126              	.LFB65:
  20:.\main.c      **** void displayPlanOnLcd() {
 127              		.loc 1 20 0
 128              		.cfi_startproc
 129              		@ args = 0, pretend = 0, frame = 0
 130              		@ frame_needed = 0, uses_anonymous_args = 0
 131 0000 70B5     		push	{r4, r5, r6, lr}
ARM GAS  C:\Users\Nick\AppData\Local\Temp\cc5XQjwu.s 			page 4


 132              		.cfi_def_cfa_offset 16
 133              		.cfi_offset 4, -16
 134              		.cfi_offset 5, -12
 135              		.cfi_offset 6, -8
 136              		.cfi_offset 14, -4
  21:.\main.c      ****     Lcd_Position(0,0);
 137              		.loc 1 21 0
 138 0002 0020     		movs	r0, #0
 139 0004 0146     		mov	r1, r0
 140 0006 FFF7FEFF 		bl	Lcd_Position
 141              	.LVL10:
  23:.\main.c      ****     for (i = 0; i < ROWS; i++) {
 142              		.loc 1 23 0
 143 000a 0024     		movs	r4, #0
  24:.\main.c      ****         Lcd_Position(0, 4*i);
 144              		.loc 1 24 0
 145 000c 2646     		mov	r6, r4
  25:.\main.c      ****         Lcd_PrintDecUint16(plan[i]);
 146              		.loc 1 25 0
 147 000e 084D     		ldr	r5, .L7
  23:.\main.c      ****     for (i = 0; i < ROWS; i++) {
 148              		.loc 1 23 0
 149 0010 0AE0     		b	.L5
 150              	.LVL11:
 151              	.L6:
  24:.\main.c      ****         Lcd_Position(0, 4*i);
 152              		.loc 1 24 0 discriminator 2
 153 0012 A100     		lsls	r1, r4, #2
 154 0014 3046     		mov	r0, r6
 155 0016 01F0FC01 		and	r1, r1, #252
 156 001a FFF7FEFF 		bl	Lcd_Position
 157              	.LVL12:
  25:.\main.c      ****         Lcd_PrintDecUint16(plan[i]);
 158              		.loc 1 25 0 discriminator 2
 159 001e 2B68     		ldr	r3, [r5]
 160 0020 185D     		ldrb	r0, [r3, r4]	@ zero_extendqisi2
 161 0022 FFF7FEFF 		bl	Lcd_PrintNumber
 162              	.LVL13:
  23:.\main.c      ****     for (i = 0; i < ROWS; i++) {
 163              		.loc 1 23 0 discriminator 2
 164 0026 0134     		adds	r4, r4, #1
 165              	.LVL14:
 166              	.L5:
  23:.\main.c      ****     for (i = 0; i < ROWS; i++) {
 167              		.loc 1 23 0 is_stmt 0 discriminator 1
 168 0028 022C     		cmp	r4, #2
 169 002a F2DD     		ble	.L6
  27:.\main.c      **** }
 170              		.loc 1 27 0 is_stmt 1
 171 002c 70BD     		pop	{r4, r5, r6, pc}
 172              	.LVL15:
 173              	.L8:
 174 002e 00BF     		.align	2
 175              	.L7:
 176 0030 00000000 		.word	plan
 177              		.cfi_endproc
 178              	.LFE65:
ARM GAS  C:\Users\Nick\AppData\Local\Temp\cc5XQjwu.s 			page 5


 179              		.size	displayPlanOnLcd, .-displayPlanOnLcd
 180              		.section	.text.getPlan,"ax",%progbits
 181              		.align	2
 182              		.global	getPlan
 183              		.thumb
 184              		.thumb_func
 185              		.type	getPlan, %function
 186              	getPlan:
 187              	.LFB66:
  29:.\main.c      **** void getPlan() {
 188              		.loc 1 29 0
 189              		.cfi_startproc
 190              		@ args = 0, pretend = 0, frame = 0
 191              		@ frame_needed = 0, uses_anonymous_args = 0
 192 0000 08B5     		push	{r3, lr}
 193              		.cfi_def_cfa_offset 8
 194              		.cfi_offset 3, -8
 195              		.cfi_offset 14, -4
  31:.\main.c      ****     plan = readPlanWithCamera();
 196              		.loc 1 31 0
 197 0002 FFF7FEFF 		bl	readPlanWithCamera
 198              	.LVL16:
 199 0006 054B     		ldr	r3, .L10
 200 0008 1860     		str	r0, [r3]
  32:.\main.c      ****     Lcd_PosPrintString(1, 0, "returned");
 201              		.loc 1 32 0
 202 000a 0120     		movs	r0, #1
 203 000c 0021     		movs	r1, #0
 204 000e FFF7FEFF 		bl	Lcd_Position
 205              	.LVL17:
 206 0012 0348     		ldr	r0, .L10+4
 207 0014 FFF7FEFF 		bl	Lcd_PrintString
 208              	.LVL18:
 209 0018 08BD     		pop	{r3, pc}
 210              	.L11:
 211 001a 00BF     		.align	2
 212              	.L10:
 213 001c 00000000 		.word	plan
 214 0020 00000000 		.word	.LC0
 215              		.cfi_endproc
 216              	.LFE66:
 217              		.size	getPlan, .-getPlan
 218              		.section	.text.main,"ax",%progbits
 219              		.align	2
 220              		.global	main
 221              		.thumb
 222              		.thumb_func
 223              		.type	main, %function
 224              	main:
 225              	.LFB68:
  40:.\main.c      **** }
  41:.\main.c      **** 
  42:.\main.c      **** 
  43:.\main.c      **** 
  44:.\main.c      **** int main()
  45:.\main.c      **** {
 226              		.loc 1 45 0
ARM GAS  C:\Users\Nick\AppData\Local\Temp\cc5XQjwu.s 			page 6


 227              		.cfi_startproc
 228              		@ args = 0, pretend = 0, frame = 0
 229              		@ frame_needed = 0, uses_anonymous_args = 0
 230 0000 F8B5     		push	{r3, r4, r5, r6, r7, lr}
 231              		.cfi_def_cfa_offset 24
 232              		.cfi_offset 3, -24
 233              		.cfi_offset 4, -20
 234              		.cfi_offset 5, -16
 235              		.cfi_offset 6, -12
 236              		.cfi_offset 7, -8
 237              		.cfi_offset 14, -4
  46:.\main.c      ****     // Interrupts
  47:.\main.c      ****     CyGlobalIntEnable; /* Enable global interrupts. */
 238              		.loc 1 47 0
 239              	@ 47 ".\main.c" 1
 240 0002 62B6     		CPSIE   i
 241              	@ 0 "" 2
  48:.\main.c      ****     IsrBtn0Pressed_StartEx(Btn0Pressed);
 242              		.loc 1 48 0
 243              		.thumb
 244 0004 1F48     		ldr	r0, .L14
 245 0006 FFF7FEFF 		bl	IsrBtn0Pressed_StartEx
 246              	.LVL19:
  49:.\main.c      ****     IsrBtn1Pressed_StartEx(Btn1Pressed);
 247              		.loc 1 49 0
 248 000a 1F48     		ldr	r0, .L14+4
 249 000c FFF7FEFF 		bl	IsrBtn1Pressed_StartEx
 250              	.LVL20:
  50:.\main.c      ****     IsrUsTimer_StartEx(UsSensorTrigger);
 251              		.loc 1 50 0
 252 0010 1E48     		ldr	r0, .L14+8
 253 0012 FFF7FEFF 		bl	IsrUsTimer_StartEx
 254              	.LVL21:
  51:.\main.c      ****     IsrMicroSwitch_StartEx(MicroSwitchTrigger);
 255              		.loc 1 51 0
 256 0016 1E48     		ldr	r0, .L14+12
 257 0018 FFF7FEFF 		bl	IsrMicroSwitch_StartEx
 258              	.LVL22:
  52:.\main.c      **** 
  53:.\main.c      ****     // Starts
  54:.\main.c      ****     CsBtns_Start();
 259              		.loc 1 54 0
 260 001c FFF7FEFF 		bl	CsBtns_PWM_Start
 261              	.LVL23:
  55:.\main.c      ****     Lcd_Start();
 262              		.loc 1 55 0
 263 0020 FFF7FEFF 		bl	Lcd_Start
 264              	.LVL24:
  56:.\main.c      **** //    Camera_Start();
  57:.\main.c      ****     UsPWM_Start();
 265              		.loc 1 57 0
 266 0024 FFF7FEFF 		bl	UsPWM_Start
 267              	.LVL25:
  58:.\main.c      ****     UsTimer_Start();
 268              		.loc 1 58 0
 269 0028 FFF7FEFF 		bl	UsTimer_Start
 270              	.LVL26:
ARM GAS  C:\Users\Nick\AppData\Local\Temp\cc5XQjwu.s 			page 7


  59:.\main.c      ****     ADC_Start();
 271              		.loc 1 59 0
 272 002c FFF7FEFF 		bl	ADC_Start
 273              	.LVL27:
  60:.\main.c      ****     ADC_StartConvert();
 274              		.loc 1 60 0
 275 0030 FFF7FEFF 		bl	ADC_StartConvert
 276              	.LVL28:
  61:.\main.c      ****     AMux_Start();
 277              		.loc 1 61 0
 278 0034 FFF7FEFF 		bl	AMux_Start
 279              	.LVL29:
  62:.\main.c      ****     
  63:.\main.c      ****     CyDelay(500); // TODO: Necessary to wait for Camera to start up?
 280              		.loc 1 63 0
 281 0038 4FF4FA70 		mov	r0, #500
 282 003c FFF7FEFF 		bl	CyDelay
 283              	.LVL30:
 284              	.LBB2:
  64:.\main.c      ****     
  65:.\main.c      **** //    getPlan();
  66:.\main.c      **** //    displayPlanOnLcd();
  67:.\main.c      ****     
  68:.\main.c      **** //    UsTimer_EnableTrigger();
  69:.\main.c      ****     
  70:.\main.c      ****     
  71:.\main.c      ****     for(;;)
  72:.\main.c      ****     {
  73:.\main.c      **** //        // Go to home code
  74:.\main.c      **** //        if (MicroSwitch_Read() == 0) {
  75:.\main.c      **** //            rotateToHome();
  76:.\main.c      **** //        }
  77:.\main.c      ****         
  78:.\main.c      ****         
  79:.\main.c      ****         
  80:.\main.c      **** //        Lcd_Position(0,0);
  81:.\main.c      **** //        Lcd_PrintString("Hello world!");
  82:.\main.c      ****         
  83:.\main.c      ****         
  84:.\main.c      ****         
  85:.\main.c      ****         displayShoulderPos();
  86:.\main.c      ****         int16 shoulderPos = getShoulderPos();
  87:.\main.c      ****         
  88:.\main.c      ****         Lcd_ClearDisplay();
 285              		.loc 1 88 0
 286 0040 0124     		movs	r4, #1
  89:.\main.c      **** //        Lcd_Position(0,0);
  90:.\main.c      **** //        Lcd_PrintDecUint16(ADC_CountsTo_mVolts(shoulderPos));
  91:.\main.c      **** //        Lcd_Position(0,8);
  92:.\main.c      **** //        Lcd_PrintString("mV");
  93:.\main.c      ****         Lcd_Position(1,0);
 287              		.loc 1 93 0
 288 0042 0027     		movs	r7, #0
  94:.\main.c      ****         Lcd_PrintDecUint16(shoulderPos);
  95:.\main.c      ****         Lcd_Position(1,8);
  96:.\main.c      ****         Lcd_PrintString("/ 4095");
 289              		.loc 1 96 0
ARM GAS  C:\Users\Nick\AppData\Local\Temp\cc5XQjwu.s 			page 8


 290 0044 134E     		ldr	r6, .L14+16
 291              	.L13:
  85:.\main.c      ****         displayShoulderPos();
 292              		.loc 1 85 0 discriminator 1
 293 0046 FFF7FEFF 		bl	displayShoulderPos
 294              	.LVL31:
  86:.\main.c      ****         int16 shoulderPos = getShoulderPos();
 295              		.loc 1 86 0 discriminator 1
 296 004a FFF7FEFF 		bl	getShoulderPos
 297              	.LVL32:
 298 004e 0546     		mov	r5, r0
 299              	.LVL33:
  88:.\main.c      ****         Lcd_ClearDisplay();
 300              		.loc 1 88 0 discriminator 1
 301 0050 2046     		mov	r0, r4
 302              	.LVL34:
 303 0052 FFF7FEFF 		bl	Lcd_WriteControl
 304              	.LVL35:
  93:.\main.c      ****         Lcd_Position(1,0);
 305              		.loc 1 93 0 discriminator 1
 306 0056 2046     		mov	r0, r4
 307 0058 3946     		mov	r1, r7
 308 005a FFF7FEFF 		bl	Lcd_Position
 309              	.LVL36:
  94:.\main.c      ****         Lcd_PrintDecUint16(shoulderPos);
 310              		.loc 1 94 0 discriminator 1
 311 005e A8B2     		uxth	r0, r5
 312 0060 FFF7FEFF 		bl	Lcd_PrintNumber
 313              	.LVL37:
  95:.\main.c      ****         Lcd_Position(1,8);
 314              		.loc 1 95 0 discriminator 1
 315 0064 2046     		mov	r0, r4
 316 0066 0821     		movs	r1, #8
 317 0068 FFF7FEFF 		bl	Lcd_Position
 318              	.LVL38:
 319              		.loc 1 96 0 discriminator 1
 320 006c 3046     		mov	r0, r6
 321 006e FFF7FEFF 		bl	Lcd_PrintString
 322              	.LVL39:
  97:.\main.c      ****         
  98:.\main.c      ****         shoulderGoToPos(2220);
 323              		.loc 1 98 0 discriminator 1
 324 0072 40F6AC00 		movw	r0, #2220
 325 0076 FFF7FEFF 		bl	shoulderGoToPos
 326              	.LVL40:
  99:.\main.c      ****         
 100:.\main.c      **** //        ElbowPos_Write(0);
 101:.\main.c      **** //        ElbowNeg_Write(1);
 102:.\main.c      **** //        CyDelay(1000);
 103:.\main.c      **** //        ElbowPos_Write(0);
 104:.\main.c      **** //        ElbowNeg_Write(0);
 105:.\main.c      **** //        CyDelay(700);
 106:.\main.c      ****         
 107:.\main.c      **** //        ElbowPos_Write(1);
 108:.\main.c      **** //        ElbowNeg_Write(1);
 109:.\main.c      **** //        ShoulderPos_Write(1);
 110:.\main.c      **** //        ShoulderNeg_Write(1);
ARM GAS  C:\Users\Nick\AppData\Local\Temp\cc5XQjwu.s 			page 9


 111:.\main.c      **** //        elbowGoToPos(ELBOW_30_DEG);
 112:.\main.c      ****         
 113:.\main.c      ****         CyDelay(300);
 327              		.loc 1 113 0 discriminator 1
 328 007a 4FF49670 		mov	r0, #300
 329 007e FFF7FEFF 		bl	CyDelay
 330              	.LVL41:
 331 0082 E0E7     		b	.L13
 332              	.L15:
 333              		.align	2
 334              	.L14:
 335 0084 00000000 		.word	Btn0Pressed
 336 0088 00000000 		.word	Btn1Pressed
 337 008c 00000000 		.word	UsSensorTrigger
 338 0090 00000000 		.word	MicroSwitchTrigger
 339 0094 0C000000 		.word	.LC1
 340              	.LBE2:
 341              		.cfi_endproc
 342              	.LFE68:
 343              		.size	main, .-main
 344              		.comm	plan,4,4
 345              		.comm	Camera_framebuffer,50688,4
 346              		.section	.rodata.str1.4,"aMS",%progbits,1
 347              		.align	2
 348              	.LC0:
 349 0000 72657475 		.ascii	"returned\000"
 349      726E6564 
 349      00
 350 0009 000000   		.space	3
 351              	.LC1:
 352 000c 2F203430 		.ascii	"/ 4095\000"
 352      393500
 353 0013 00       		.text
 354              	.Letext0:
 355              		.file 2 "c:\\program files (x86)\\cypress\\psoc creator\\3.2\\psoc creator\\import\\gnu\\arm\\4.8.
 356              		.file 3 "c:\\program files (x86)\\cypress\\psoc creator\\3.2\\psoc creator\\import\\gnu\\arm\\4.8.
 357              		.file 4 "Generated_Source\\PSoC5/cytypes.h"
 358              		.file 5 "Generated_Source\\PSoC5/core_cm3.h"
 359              		.file 6 "Generated_Source\\PSoC5/Camera.h"
 360              		.file 7 "Generated_Source\\PSoC5/LedGreen.h"
 361              		.file 8 ".\\motion.h"
 362              		.file 9 "Generated_Source\\PSoC5/LedBlue.h"
 363              		.file 10 "Generated_Source\\PSoC5/LedRed.h"
 364              		.file 11 "Generated_Source\\PSoC5/RotateCCW.h"
 365              		.file 12 "Generated_Source\\PSoC5/RotateCW.h"
 366              		.file 13 "Generated_Source\\PSoC5/Lcd.h"
 367              		.file 14 ".\\cv.h"
 368              		.file 15 "Generated_Source\\PSoC5/CyLib.h"
 369              		.file 16 "Generated_Source\\PSoC5/IsrBtn0Pressed.h"
 370              		.file 17 "Generated_Source\\PSoC5/IsrBtn1Pressed.h"
 371              		.file 18 "Generated_Source\\PSoC5/IsrUsTimer.h"
 372              		.file 19 "Generated_Source\\PSoC5/IsrMicroSwitch.h"
 373              		.file 20 "Generated_Source\\PSoC5/CsBtns_PWM.h"
 374              		.file 21 "Generated_Source\\PSoC5/UsPWM.h"
 375              		.file 22 "Generated_Source\\PSoC5/UsTimer.h"
 376              		.file 23 "Generated_Source\\PSoC5/ADC.h"
 377              		.file 24 "Generated_Source\\PSoC5/AMux.h"
ARM GAS  C:\Users\Nick\AppData\Local\Temp\cc5XQjwu.s 			page 10

