ARM GAS  C:\Users\Nick\AppData\Local\Temp\ccCy3Xjo.s 			page 1


   1              		.syntax unified
   2              		.cpu cortex-m3
   3              		.fpu softvfp
   4              		.eabi_attribute 20, 1
   5              		.eabi_attribute 21, 1
   6              		.eabi_attribute 23, 3
   7              		.eabi_attribute 24, 1
   8              		.eabi_attribute 25, 1
   9              		.eabi_attribute 26, 1
  10              		.eabi_attribute 30, 1
  11              		.eabi_attribute 34, 1
  12              		.eabi_attribute 18, 4
  13              		.thumb
  14              		.file	"motion.c"
  15              		.text
  16              	.Ltext0:
  17              		.cfi_sections	.debug_frame
  18              		.section	.text.getElbowPos,"ax",%progbits
  19              		.align	2
  20              		.global	getElbowPos
  21              		.thumb
  22              		.thumb_func
  23              		.type	getElbowPos, %function
  24              	getElbowPos:
  25              	.LFB63:
  26              		.file 1 ".\\motion.c"
   1:.\motion.c    **** #include <project.h>
   2:.\motion.c    **** #include "main.h"
   3:.\motion.c    **** #include "motion.h"
   4:.\motion.c    **** 
   5:.\motion.c    **** #define POS_BUFFER_ELBOW 5
   6:.\motion.c    **** #define POS_BUFFER_BIG_ELBOW 10
   7:.\motion.c    **** #define STEP_SIZE_ELBOW 60
   8:.\motion.c    **** 
   9:.\motion.c    **** #define POS_BUFFER_SHOULDER 10
  10:.\motion.c    **** #define POS_BUFFER_BIG_SHOULDER 20
  11:.\motion.c    **** #define STEP_SIZE_SHOULDER 60
  12:.\motion.c    **** 
  13:.\motion.c    **** int16 getElbowPos() {
  27              		.loc 1 13 0
  28              		.cfi_startproc
  29              		@ args = 0, pretend = 0, frame = 0
  30              		@ frame_needed = 0, uses_anonymous_args = 0
  31 0000 08B5     		push	{r3, lr}
  32              		.cfi_def_cfa_offset 8
  33              		.cfi_offset 3, -8
  34              		.cfi_offset 14, -4
  14:.\motion.c    ****     AMux_Select(AMUX_ELBOW);
  35              		.loc 1 14 0
  36 0002 0020     		movs	r0, #0
  37 0004 FFF7FEFF 		bl	AMux_FastSelect
  38              	.LVL0:
  15:.\motion.c    ****     ADC_IsEndConversion(ADC_WAIT_FOR_RESULT);
  39              		.loc 1 15 0
  40 0008 0020     		movs	r0, #0
  41 000a FFF7FEFF 		bl	ADC_IsEndConversion
  42              	.LVL1:
ARM GAS  C:\Users\Nick\AppData\Local\Temp\ccCy3Xjo.s 			page 2


  16:.\motion.c    ****     return ADC_GetResult16();
  43              		.loc 1 16 0
  44 000e FFF7FEFF 		bl	ADC_GetResult16
  45              	.LVL2:
  17:.\motion.c    **** }
  46              		.loc 1 17 0
  47 0012 08BD     		pop	{r3, pc}
  48              		.cfi_endproc
  49              	.LFE63:
  50              		.size	getElbowPos, .-getElbowPos
  51              		.section	.text.displayElbowPos,"ax",%progbits
  52              		.align	2
  53              		.global	displayElbowPos
  54              		.thumb
  55              		.thumb_func
  56              		.type	displayElbowPos, %function
  57              	displayElbowPos:
  58              	.LFB64:
  18:.\motion.c    **** void displayElbowPos() {
  59              		.loc 1 18 0
  60              		.cfi_startproc
  61              		@ args = 0, pretend = 0, frame = 0
  62              		@ frame_needed = 0, uses_anonymous_args = 0
  63 0000 08B5     		push	{r3, lr}
  64              		.cfi_def_cfa_offset 8
  65              		.cfi_offset 3, -8
  66              		.cfi_offset 14, -4
  19:.\motion.c    ****     Lcd_ClearDisplay();
  67              		.loc 1 19 0
  68 0002 0120     		movs	r0, #1
  69 0004 FFF7FEFF 		bl	Lcd_WriteControl
  70              	.LVL3:
  20:.\motion.c    ****     Lcd_Position(0,0);
  71              		.loc 1 20 0
  72 0008 0020     		movs	r0, #0
  73 000a 0146     		mov	r1, r0
  74 000c FFF7FEFF 		bl	Lcd_Position
  75              	.LVL4:
  21:.\motion.c    ****     Lcd_PrintDecUint16(ADC_CountsTo_mVolts(getElbowPos()));
  76              		.loc 1 21 0
  77 0010 FFF7FEFF 		bl	getElbowPos
  78              	.LVL5:
  79 0014 FFF7FEFF 		bl	ADC_CountsTo_mVolts
  80              	.LVL6:
  81 0018 80B2     		uxth	r0, r0
  82 001a FFF7FEFF 		bl	Lcd_PrintNumber
  83              	.LVL7:
  84 001e 08BD     		pop	{r3, pc}
  85              		.cfi_endproc
  86              	.LFE64:
  87              		.size	displayElbowPos, .-displayElbowPos
  88              		.section	.text.getShoulderPos,"ax",%progbits
  89              		.align	2
  90              		.global	getShoulderPos
  91              		.thumb
  92              		.thumb_func
  93              		.type	getShoulderPos, %function
ARM GAS  C:\Users\Nick\AppData\Local\Temp\ccCy3Xjo.s 			page 3


  94              	getShoulderPos:
  95              	.LFB65:
  22:.\motion.c    **** }
  23:.\motion.c    **** 
  24:.\motion.c    **** 
  25:.\motion.c    **** int16 getShoulderPos() {
  96              		.loc 1 25 0
  97              		.cfi_startproc
  98              		@ args = 0, pretend = 0, frame = 0
  99              		@ frame_needed = 0, uses_anonymous_args = 0
 100 0000 08B5     		push	{r3, lr}
 101              		.cfi_def_cfa_offset 8
 102              		.cfi_offset 3, -8
 103              		.cfi_offset 14, -4
  26:.\motion.c    ****     AMux_Select(AMUX_SHOULDER);
 104              		.loc 1 26 0
 105 0002 0120     		movs	r0, #1
 106 0004 FFF7FEFF 		bl	AMux_FastSelect
 107              	.LVL8:
  27:.\motion.c    ****     ADC_IsEndConversion(ADC_WAIT_FOR_RESULT);
 108              		.loc 1 27 0
 109 0008 0020     		movs	r0, #0
 110 000a FFF7FEFF 		bl	ADC_IsEndConversion
 111              	.LVL9:
  28:.\motion.c    ****     return ADC_GetResult16();
 112              		.loc 1 28 0
 113 000e FFF7FEFF 		bl	ADC_GetResult16
 114              	.LVL10:
  29:.\motion.c    **** }
 115              		.loc 1 29 0
 116 0012 08BD     		pop	{r3, pc}
 117              		.cfi_endproc
 118              	.LFE65:
 119              		.size	getShoulderPos, .-getShoulderPos
 120              		.section	.text.displayShoulderPos,"ax",%progbits
 121              		.align	2
 122              		.global	displayShoulderPos
 123              		.thumb
 124              		.thumb_func
 125              		.type	displayShoulderPos, %function
 126              	displayShoulderPos:
 127              	.LFB66:
  30:.\motion.c    **** void displayShoulderPos() {
 128              		.loc 1 30 0
 129              		.cfi_startproc
 130              		@ args = 0, pretend = 0, frame = 0
 131              		@ frame_needed = 0, uses_anonymous_args = 0
 132 0000 08B5     		push	{r3, lr}
 133              		.cfi_def_cfa_offset 8
 134              		.cfi_offset 3, -8
 135              		.cfi_offset 14, -4
  31:.\motion.c    ****     Lcd_ClearDisplay();
 136              		.loc 1 31 0
 137 0002 0120     		movs	r0, #1
 138 0004 FFF7FEFF 		bl	Lcd_WriteControl
 139              	.LVL11:
  32:.\motion.c    ****     Lcd_Position(0,0);
ARM GAS  C:\Users\Nick\AppData\Local\Temp\ccCy3Xjo.s 			page 4


 140              		.loc 1 32 0
 141 0008 0020     		movs	r0, #0
 142 000a 0146     		mov	r1, r0
 143 000c FFF7FEFF 		bl	Lcd_Position
 144              	.LVL12:
  33:.\motion.c    ****     Lcd_PrintDecUint16(ADC_CountsTo_mVolts(getShoulderPos()));
 145              		.loc 1 33 0
 146 0010 FFF7FEFF 		bl	getShoulderPos
 147              	.LVL13:
 148 0014 FFF7FEFF 		bl	ADC_CountsTo_mVolts
 149              	.LVL14:
 150 0018 80B2     		uxth	r0, r0
 151 001a FFF7FEFF 		bl	Lcd_PrintNumber
 152              	.LVL15:
 153 001e 08BD     		pop	{r3, pc}
 154              		.cfi_endproc
 155              	.LFE66:
 156              		.size	displayShoulderPos, .-displayShoulderPos
 157              		.section	.text.elbowUp,"ax",%progbits
 158              		.align	2
 159              		.global	elbowUp
 160              		.thumb
 161              		.thumb_func
 162              		.type	elbowUp, %function
 163              	elbowUp:
 164              	.LFB67:
  34:.\motion.c    **** }
  35:.\motion.c    **** 
  36:.\motion.c    **** void elbowUp() {
 165              		.loc 1 36 0
 166              		.cfi_startproc
 167              		@ args = 0, pretend = 0, frame = 0
 168              		@ frame_needed = 0, uses_anonymous_args = 0
 169 0000 08B5     		push	{r3, lr}
 170              		.cfi_def_cfa_offset 8
 171              		.cfi_offset 3, -8
 172              		.cfi_offset 14, -4
  37:.\motion.c    ****     ElbowPos_Write(0);
 173              		.loc 1 37 0
 174 0002 0020     		movs	r0, #0
 175 0004 FFF7FEFF 		bl	ElbowPos_Write
 176              	.LVL16:
  38:.\motion.c    ****     ElbowNeg_Write(1);
 177              		.loc 1 38 0
 178 0008 0120     		movs	r0, #1
 179 000a FFF7FEFF 		bl	ElbowNeg_Write
 180              	.LVL17:
 181 000e 08BD     		pop	{r3, pc}
 182              		.cfi_endproc
 183              	.LFE67:
 184              		.size	elbowUp, .-elbowUp
 185              		.section	.text.elbowDown,"ax",%progbits
 186              		.align	2
 187              		.global	elbowDown
 188              		.thumb
 189              		.thumb_func
 190              		.type	elbowDown, %function
ARM GAS  C:\Users\Nick\AppData\Local\Temp\ccCy3Xjo.s 			page 5


 191              	elbowDown:
 192              	.LFB68:
  39:.\motion.c    **** }
  40:.\motion.c    **** void elbowDown() {
 193              		.loc 1 40 0
 194              		.cfi_startproc
 195              		@ args = 0, pretend = 0, frame = 0
 196              		@ frame_needed = 0, uses_anonymous_args = 0
 197 0000 08B5     		push	{r3, lr}
 198              		.cfi_def_cfa_offset 8
 199              		.cfi_offset 3, -8
 200              		.cfi_offset 14, -4
  41:.\motion.c    ****     ElbowPos_Write(1);
 201              		.loc 1 41 0
 202 0002 0120     		movs	r0, #1
 203 0004 FFF7FEFF 		bl	ElbowPos_Write
 204              	.LVL18:
  42:.\motion.c    ****     ElbowNeg_Write(0);
 205              		.loc 1 42 0
 206 0008 0020     		movs	r0, #0
 207 000a FFF7FEFF 		bl	ElbowNeg_Write
 208              	.LVL19:
 209 000e 08BD     		pop	{r3, pc}
 210              		.cfi_endproc
 211              	.LFE68:
 212              		.size	elbowDown, .-elbowDown
 213              		.section	.text.elbowStop,"ax",%progbits
 214              		.align	2
 215              		.global	elbowStop
 216              		.thumb
 217              		.thumb_func
 218              		.type	elbowStop, %function
 219              	elbowStop:
 220              	.LFB69:
  43:.\motion.c    **** }
  44:.\motion.c    **** void elbowStop() {
 221              		.loc 1 44 0
 222              		.cfi_startproc
 223              		@ args = 0, pretend = 0, frame = 0
 224              		@ frame_needed = 0, uses_anonymous_args = 0
 225 0000 08B5     		push	{r3, lr}
 226              		.cfi_def_cfa_offset 8
 227              		.cfi_offset 3, -8
 228              		.cfi_offset 14, -4
  45:.\motion.c    ****     ElbowPos_Write(0);
 229              		.loc 1 45 0
 230 0002 0020     		movs	r0, #0
 231 0004 FFF7FEFF 		bl	ElbowPos_Write
 232              	.LVL20:
  46:.\motion.c    ****     ElbowNeg_Write(0);
 233              		.loc 1 46 0
 234 0008 0020     		movs	r0, #0
 235 000a FFF7FEFF 		bl	ElbowNeg_Write
 236              	.LVL21:
 237 000e 08BD     		pop	{r3, pc}
 238              		.cfi_endproc
 239              	.LFE69:
ARM GAS  C:\Users\Nick\AppData\Local\Temp\ccCy3Xjo.s 			page 6


 240              		.size	elbowStop, .-elbowStop
 241              		.section	.text.elbowGoToPos,"ax",%progbits
 242              		.align	2
 243              		.global	elbowGoToPos
 244              		.thumb
 245              		.thumb_func
 246              		.type	elbowGoToPos, %function
 247              	elbowGoToPos:
 248              	.LFB70:
  47:.\motion.c    **** }
  48:.\motion.c    **** 
  49:.\motion.c    **** uint8 elbowGoToPos(int16 goalPos) {
 249              		.loc 1 49 0
 250              		.cfi_startproc
 251              		@ args = 0, pretend = 0, frame = 0
 252              		@ frame_needed = 0, uses_anonymous_args = 0
 253              	.LVL22:
 254 0000 70B5     		push	{r4, r5, r6, lr}
 255              		.cfi_def_cfa_offset 16
 256              		.cfi_offset 4, -16
 257              		.cfi_offset 5, -12
 258              		.cfi_offset 6, -8
 259              		.cfi_offset 14, -4
 260 0002 0446     		mov	r4, r0
  50:.\motion.c    ****     int16 currPos = getElbowPos();
 261              		.loc 1 50 0
 262 0004 FFF7FEFF 		bl	getElbowPos
 263              	.LVL23:
  51:.\motion.c    ****     
  52:.\motion.c    ****     if ((currPos > goalPos - POS_BUFFER_BIG_ELBOW) && (currPos < goalPos + POS_BUFFER_BIG_ELBOW)) {
 264              		.loc 1 52 0
 265 0008 2646     		mov	r6, r4
 266 000a A4F10A03 		sub	r3, r4, #10
 267 000e 9842     		cmp	r0, r3
 268 0010 03DD     		ble	.L15
 269              		.loc 1 52 0 is_stmt 0 discriminator 1
 270 0012 04F10A03 		add	r3, r4, #10
 271 0016 9842     		cmp	r0, r3
 272 0018 15DB     		blt	.L14
 273              	.L15:
 274              	.LBB2:
  53:.\motion.c    ****         return 1;
  54:.\motion.c    ****     }
  55:.\motion.c    ****     
  56:.\motion.c    ****     while (1) {
  57:.\motion.c    ****         int16 currPos = getElbowPos();
  58:.\motion.c    ****         
  59:.\motion.c    ****         if ((currPos > goalPos - POS_BUFFER_ELBOW) && (currPos < goalPos + POS_BUFFER_ELBOW)) {
 275              		.loc 1 59 0 is_stmt 1
 276 001a 751F     		subs	r5, r6, #5
 277 001c 0536     		adds	r6, r6, #5
 278              	.LVL24:
 279              	.L16:
  57:.\motion.c    ****         int16 currPos = getElbowPos();
 280              		.loc 1 57 0
 281 001e FFF7FEFF 		bl	getElbowPos
 282              	.LVL25:
ARM GAS  C:\Users\Nick\AppData\Local\Temp\ccCy3Xjo.s 			page 7


 283              		.loc 1 59 0
 284 0022 A842     		cmp	r0, r5
 285 0024 05DD     		ble	.L11
 286              		.loc 1 59 0 is_stmt 0 discriminator 1
 287 0026 B042     		cmp	r0, r6
 288 0028 03DA     		bge	.L11
  60:.\motion.c    ****             elbowStop();
 289              		.loc 1 60 0 is_stmt 1
 290 002a FFF7FEFF 		bl	elbowStop
 291              	.LVL26:
  61:.\motion.c    ****             return 0;
 292              		.loc 1 61 0
 293 002e 0020     		movs	r0, #0
 294 0030 70BD     		pop	{r4, r5, r6, pc}
 295              	.LVL27:
 296              	.L11:
  62:.\motion.c    ****         }
  63:.\motion.c    ****         else if (currPos < goalPos) {
 297              		.loc 1 63 0
 298 0032 A042     		cmp	r0, r4
 299 0034 02DA     		bge	.L12
  64:.\motion.c    ****             elbowUp();
 300              		.loc 1 64 0
 301 0036 FFF7FEFF 		bl	elbowUp
 302              	.LVL28:
 303 003a F0E7     		b	.L16
 304              	.LVL29:
 305              	.L12:
  65:.\motion.c    ****         }
  66:.\motion.c    ****         else if (currPos > goalPos) {
 306              		.loc 1 66 0
 307 003c A042     		cmp	r0, r4
 308 003e EEDD     		ble	.L16
  67:.\motion.c    ****             elbowDown();
 309              		.loc 1 67 0
 310 0040 FFF7FEFF 		bl	elbowDown
 311              	.LVL30:
 312 0044 EBE7     		b	.L16
 313              	.LVL31:
 314              	.L14:
 315              	.LBE2:
  53:.\motion.c    ****         return 1;
 316              		.loc 1 53 0
 317 0046 0120     		movs	r0, #1
 318              	.LVL32:
  68:.\motion.c    ****         }
  69:.\motion.c    ****     }
  70:.\motion.c    **** }
 319              		.loc 1 70 0
 320 0048 70BD     		pop	{r4, r5, r6, pc}
 321              		.cfi_endproc
 322              	.LFE70:
 323              		.size	elbowGoToPos, .-elbowGoToPos
 324 004a 00BF     		.section	.text.elbowUpStep,"ax",%progbits
 325              		.align	2
 326              		.global	elbowUpStep
 327              		.thumb
ARM GAS  C:\Users\Nick\AppData\Local\Temp\ccCy3Xjo.s 			page 8


 328              		.thumb_func
 329              		.type	elbowUpStep, %function
 330              	elbowUpStep:
 331              	.LFB71:
  71:.\motion.c    **** 
  72:.\motion.c    **** void elbowUpStep() {
 332              		.loc 1 72 0
 333              		.cfi_startproc
 334              		@ args = 0, pretend = 0, frame = 0
 335              		@ frame_needed = 0, uses_anonymous_args = 0
 336 0000 70B5     		push	{r4, r5, r6, lr}
 337              		.cfi_def_cfa_offset 16
 338              		.cfi_offset 4, -16
 339              		.cfi_offset 5, -12
 340              		.cfi_offset 6, -8
 341              		.cfi_offset 14, -4
  73:.\motion.c    ****     int16 currPos = getElbowPos();
 342              		.loc 1 73 0
 343 0002 FFF7FEFF 		bl	getElbowPos
 344              	.LVL33:
  74:.\motion.c    ****     int16 newPos = currPos - STEP_SIZE_ELBOW;
 345              		.loc 1 74 0
 346 0006 85B2     		uxth	r5, r0
 347 0008 A5F13C04 		sub	r4, r5, #60
 348 000c A4B2     		uxth	r4, r4
 349 000e A6B2     		uxth	r6, r4
 350              	.LVL34:
  75:.\motion.c    ****     
  76:.\motion.c    ****     Lcd_ClearDisplay();
 351              		.loc 1 76 0
 352 0010 0120     		movs	r0, #1
 353              	.LVL35:
 354 0012 FFF7FEFF 		bl	Lcd_WriteControl
 355              	.LVL36:
  77:.\motion.c    ****     Lcd_Position(0,0);
 356              		.loc 1 77 0
 357 0016 0020     		movs	r0, #0
 358 0018 0146     		mov	r1, r0
 359 001a FFF7FEFF 		bl	Lcd_Position
 360              	.LVL37:
  78:.\motion.c    ****     Lcd_PrintDecUint16(currPos);
 361              		.loc 1 78 0
 362 001e 2846     		mov	r0, r5
 363 0020 FFF7FEFF 		bl	Lcd_PrintNumber
 364              	.LVL38:
  79:.\motion.c    ****     Lcd_Position(0,5);
 365              		.loc 1 79 0
 366 0024 0020     		movs	r0, #0
 367 0026 0521     		movs	r1, #5
 368 0028 FFF7FEFF 		bl	Lcd_Position
 369              	.LVL39:
  80:.\motion.c    ****     Lcd_PrintString("->");
 370              		.loc 1 80 0
 371 002c 0648     		ldr	r0, .L18
 372 002e FFF7FEFF 		bl	Lcd_PrintString
 373              	.LVL40:
  81:.\motion.c    ****     Lcd_Position(0,8);
ARM GAS  C:\Users\Nick\AppData\Local\Temp\ccCy3Xjo.s 			page 9


 374              		.loc 1 81 0
 375 0032 0020     		movs	r0, #0
 376 0034 0821     		movs	r1, #8
 377 0036 FFF7FEFF 		bl	Lcd_Position
 378              	.LVL41:
  82:.\motion.c    ****     Lcd_PrintDecUint16(newPos);
 379              		.loc 1 82 0
 380 003a 2046     		mov	r0, r4
 381 003c FFF7FEFF 		bl	Lcd_PrintNumber
 382              	.LVL42:
  83:.\motion.c    ****     
  84:.\motion.c    ****     elbowGoToPos(newPos);
 383              		.loc 1 84 0
 384 0040 30B2     		sxth	r0, r6
 385 0042 FFF7FEFF 		bl	elbowGoToPos
 386              	.LVL43:
 387 0046 70BD     		pop	{r4, r5, r6, pc}
 388              	.LVL44:
 389              	.L19:
 390              		.align	2
 391              	.L18:
 392 0048 00000000 		.word	.LC0
 393              		.cfi_endproc
 394              	.LFE71:
 395              		.size	elbowUpStep, .-elbowUpStep
 396              		.section	.text.elbowDownStep,"ax",%progbits
 397              		.align	2
 398              		.global	elbowDownStep
 399              		.thumb
 400              		.thumb_func
 401              		.type	elbowDownStep, %function
 402              	elbowDownStep:
 403              	.LFB72:
  85:.\motion.c    **** }
  86:.\motion.c    **** void elbowDownStep() {
 404              		.loc 1 86 0
 405              		.cfi_startproc
 406              		@ args = 0, pretend = 0, frame = 0
 407              		@ frame_needed = 0, uses_anonymous_args = 0
 408 0000 70B5     		push	{r4, r5, r6, lr}
 409              		.cfi_def_cfa_offset 16
 410              		.cfi_offset 4, -16
 411              		.cfi_offset 5, -12
 412              		.cfi_offset 6, -8
 413              		.cfi_offset 14, -4
  87:.\motion.c    ****     int16 currPos = getElbowPos();
 414              		.loc 1 87 0
 415 0002 FFF7FEFF 		bl	getElbowPos
 416              	.LVL45:
  88:.\motion.c    ****     int16 newPos = currPos + STEP_SIZE_ELBOW;
 417              		.loc 1 88 0
 418 0006 85B2     		uxth	r5, r0
 419 0008 05F13C04 		add	r4, r5, #60
 420 000c A4B2     		uxth	r4, r4
 421 000e A6B2     		uxth	r6, r4
 422              	.LVL46:
  89:.\motion.c    ****     
ARM GAS  C:\Users\Nick\AppData\Local\Temp\ccCy3Xjo.s 			page 10


  90:.\motion.c    ****     Lcd_ClearDisplay();
 423              		.loc 1 90 0
 424 0010 0120     		movs	r0, #1
 425              	.LVL47:
 426 0012 FFF7FEFF 		bl	Lcd_WriteControl
 427              	.LVL48:
  91:.\motion.c    ****     Lcd_Position(0,0);
 428              		.loc 1 91 0
 429 0016 0020     		movs	r0, #0
 430 0018 0146     		mov	r1, r0
 431 001a FFF7FEFF 		bl	Lcd_Position
 432              	.LVL49:
  92:.\motion.c    ****     Lcd_PrintDecUint16(currPos);
 433              		.loc 1 92 0
 434 001e 2846     		mov	r0, r5
 435 0020 FFF7FEFF 		bl	Lcd_PrintNumber
 436              	.LVL50:
  93:.\motion.c    ****     Lcd_Position(0,5);
 437              		.loc 1 93 0
 438 0024 0020     		movs	r0, #0
 439 0026 0521     		movs	r1, #5
 440 0028 FFF7FEFF 		bl	Lcd_Position
 441              	.LVL51:
  94:.\motion.c    ****     Lcd_PrintString("->");
 442              		.loc 1 94 0
 443 002c 0648     		ldr	r0, .L21
 444 002e FFF7FEFF 		bl	Lcd_PrintString
 445              	.LVL52:
  95:.\motion.c    ****     Lcd_Position(0,8);
 446              		.loc 1 95 0
 447 0032 0020     		movs	r0, #0
 448 0034 0821     		movs	r1, #8
 449 0036 FFF7FEFF 		bl	Lcd_Position
 450              	.LVL53:
  96:.\motion.c    ****     Lcd_PrintDecUint16(newPos);
 451              		.loc 1 96 0
 452 003a 2046     		mov	r0, r4
 453 003c FFF7FEFF 		bl	Lcd_PrintNumber
 454              	.LVL54:
  97:.\motion.c    ****     
  98:.\motion.c    ****     elbowGoToPos(newPos);
 455              		.loc 1 98 0
 456 0040 30B2     		sxth	r0, r6
 457 0042 FFF7FEFF 		bl	elbowGoToPos
 458              	.LVL55:
 459 0046 70BD     		pop	{r4, r5, r6, pc}
 460              	.LVL56:
 461              	.L22:
 462              		.align	2
 463              	.L21:
 464 0048 00000000 		.word	.LC0
 465              		.cfi_endproc
 466              	.LFE72:
 467              		.size	elbowDownStep, .-elbowDownStep
 468              		.section	.text.shoulderUp,"ax",%progbits
 469              		.align	2
 470              		.global	shoulderUp
ARM GAS  C:\Users\Nick\AppData\Local\Temp\ccCy3Xjo.s 			page 11


 471              		.thumb
 472              		.thumb_func
 473              		.type	shoulderUp, %function
 474              	shoulderUp:
 475              	.LFB75:
  99:.\motion.c    **** }
 100:.\motion.c    **** 
 101:.\motion.c    **** void shoulderUpStep() {
 102:.\motion.c    ****     int16 currPos = getShoulderPos();
 103:.\motion.c    ****     int16 newPos = currPos - STEP_SIZE_SHOULDER;
 104:.\motion.c    ****     
 105:.\motion.c    ****     Lcd_ClearDisplay();
 106:.\motion.c    ****     Lcd_Position(0,0);
 107:.\motion.c    ****     Lcd_PrintDecUint16(currPos);
 108:.\motion.c    ****     Lcd_Position(0,5);
 109:.\motion.c    ****     Lcd_PrintString("->");
 110:.\motion.c    ****     Lcd_Position(0,8);
 111:.\motion.c    ****     Lcd_PrintDecUint16(newPos);
 112:.\motion.c    ****     
 113:.\motion.c    ****     shoulderGoToPos(newPos);
 114:.\motion.c    **** }
 115:.\motion.c    **** void shoulderDownStep() {
 116:.\motion.c    ****     int16 currPos = getShoulderPos();
 117:.\motion.c    ****     int16 newPos = currPos + STEP_SIZE_SHOULDER;
 118:.\motion.c    ****     
 119:.\motion.c    ****     Lcd_ClearDisplay();
 120:.\motion.c    ****     Lcd_Position(0,0);
 121:.\motion.c    ****     Lcd_PrintDecUint16(currPos);
 122:.\motion.c    ****     Lcd_Position(0,5);
 123:.\motion.c    ****     Lcd_PrintString("->");
 124:.\motion.c    ****     Lcd_Position(0,8);
 125:.\motion.c    ****     Lcd_PrintDecUint16(newPos);
 126:.\motion.c    ****     
 127:.\motion.c    ****     shoulderGoToPos(newPos);
 128:.\motion.c    **** }
 129:.\motion.c    **** 
 130:.\motion.c    **** void shoulderUp() {
 476              		.loc 1 130 0
 477              		.cfi_startproc
 478              		@ args = 0, pretend = 0, frame = 0
 479              		@ frame_needed = 0, uses_anonymous_args = 0
 480 0000 08B5     		push	{r3, lr}
 481              		.cfi_def_cfa_offset 8
 482              		.cfi_offset 3, -8
 483              		.cfi_offset 14, -4
 131:.\motion.c    ****     ShoulderPos_Write(0);
 484              		.loc 1 131 0
 485 0002 0020     		movs	r0, #0
 486 0004 FFF7FEFF 		bl	ShoulderPos_Write
 487              	.LVL57:
 132:.\motion.c    ****     ShoulderNeg_Write(1);
 488              		.loc 1 132 0
 489 0008 0120     		movs	r0, #1
 490 000a FFF7FEFF 		bl	ShoulderNeg_Write
 491              	.LVL58:
 492 000e 08BD     		pop	{r3, pc}
 493              		.cfi_endproc
ARM GAS  C:\Users\Nick\AppData\Local\Temp\ccCy3Xjo.s 			page 12


 494              	.LFE75:
 495              		.size	shoulderUp, .-shoulderUp
 496              		.section	.text.shoulderDown,"ax",%progbits
 497              		.align	2
 498              		.global	shoulderDown
 499              		.thumb
 500              		.thumb_func
 501              		.type	shoulderDown, %function
 502              	shoulderDown:
 503              	.LFB76:
 133:.\motion.c    **** }
 134:.\motion.c    **** void shoulderDown() {
 504              		.loc 1 134 0
 505              		.cfi_startproc
 506              		@ args = 0, pretend = 0, frame = 0
 507              		@ frame_needed = 0, uses_anonymous_args = 0
 508 0000 08B5     		push	{r3, lr}
 509              		.cfi_def_cfa_offset 8
 510              		.cfi_offset 3, -8
 511              		.cfi_offset 14, -4
 135:.\motion.c    ****     ShoulderPos_Write(1);
 512              		.loc 1 135 0
 513 0002 0120     		movs	r0, #1
 514 0004 FFF7FEFF 		bl	ShoulderPos_Write
 515              	.LVL59:
 136:.\motion.c    ****     ShoulderNeg_Write(0);
 516              		.loc 1 136 0
 517 0008 0020     		movs	r0, #0
 518 000a FFF7FEFF 		bl	ShoulderNeg_Write
 519              	.LVL60:
 520 000e 08BD     		pop	{r3, pc}
 521              		.cfi_endproc
 522              	.LFE76:
 523              		.size	shoulderDown, .-shoulderDown
 524              		.section	.text.shoulderStop,"ax",%progbits
 525              		.align	2
 526              		.global	shoulderStop
 527              		.thumb
 528              		.thumb_func
 529              		.type	shoulderStop, %function
 530              	shoulderStop:
 531              	.LFB77:
 137:.\motion.c    **** }
 138:.\motion.c    **** void shoulderStop() {
 532              		.loc 1 138 0
 533              		.cfi_startproc
 534              		@ args = 0, pretend = 0, frame = 0
 535              		@ frame_needed = 0, uses_anonymous_args = 0
 536 0000 08B5     		push	{r3, lr}
 537              		.cfi_def_cfa_offset 8
 538              		.cfi_offset 3, -8
 539              		.cfi_offset 14, -4
 139:.\motion.c    ****     ShoulderPos_Write(0);
 540              		.loc 1 139 0
 541 0002 0020     		movs	r0, #0
 542 0004 FFF7FEFF 		bl	ShoulderPos_Write
 543              	.LVL61:
ARM GAS  C:\Users\Nick\AppData\Local\Temp\ccCy3Xjo.s 			page 13


 140:.\motion.c    ****     ShoulderNeg_Write(0);
 544              		.loc 1 140 0
 545 0008 0020     		movs	r0, #0
 546 000a FFF7FEFF 		bl	ShoulderNeg_Write
 547              	.LVL62:
 548 000e 08BD     		pop	{r3, pc}
 549              		.cfi_endproc
 550              	.LFE77:
 551              		.size	shoulderStop, .-shoulderStop
 552              		.section	.text.shoulderGoToPos,"ax",%progbits
 553              		.align	2
 554              		.global	shoulderGoToPos
 555              		.thumb
 556              		.thumb_func
 557              		.type	shoulderGoToPos, %function
 558              	shoulderGoToPos:
 559              	.LFB78:
 141:.\motion.c    **** }
 142:.\motion.c    **** 
 143:.\motion.c    **** uint8 shoulderGoToPos(int16 goalPos) {
 560              		.loc 1 143 0
 561              		.cfi_startproc
 562              		@ args = 0, pretend = 0, frame = 0
 563              		@ frame_needed = 0, uses_anonymous_args = 0
 564              	.LVL63:
 565 0000 70B5     		push	{r4, r5, r6, lr}
 566              		.cfi_def_cfa_offset 16
 567              		.cfi_offset 4, -16
 568              		.cfi_offset 5, -12
 569              		.cfi_offset 6, -8
 570              		.cfi_offset 14, -4
 571 0002 0446     		mov	r4, r0
 144:.\motion.c    ****     int16 currPos = getShoulderPos();
 572              		.loc 1 144 0
 573 0004 FFF7FEFF 		bl	getShoulderPos
 574              	.LVL64:
 145:.\motion.c    ****     
 146:.\motion.c    ****     if ((currPos > goalPos - POS_BUFFER_BIG_SHOULDER) && (currPos < goalPos + POS_BUFFER_BIG_SHOULD
 575              		.loc 1 146 0
 576 0008 2646     		mov	r6, r4
 577 000a A4F11403 		sub	r3, r4, #20
 578 000e 9842     		cmp	r0, r3
 579 0010 03DD     		ble	.L33
 580              		.loc 1 146 0 is_stmt 0 discriminator 1
 581 0012 04F11403 		add	r3, r4, #20
 582 0016 9842     		cmp	r0, r3
 583 0018 16DB     		blt	.L32
 584              	.L33:
 585              	.LBB3:
 147:.\motion.c    ****         return 1;
 148:.\motion.c    ****     }
 149:.\motion.c    ****     
 150:.\motion.c    ****     while (1) {
 151:.\motion.c    ****         int16 currPos = getShoulderPos();
 152:.\motion.c    ****         
 153:.\motion.c    ****         if ((currPos > goalPos - POS_BUFFER_SHOULDER) && (currPos < goalPos + POS_BUFFER_SHOULDER))
 586              		.loc 1 153 0 is_stmt 1
ARM GAS  C:\Users\Nick\AppData\Local\Temp\ccCy3Xjo.s 			page 14


 587 001a A6F10A05 		sub	r5, r6, #10
 588 001e 0A36     		adds	r6, r6, #10
 589              	.LVL65:
 590              	.L34:
 151:.\motion.c    ****         int16 currPos = getShoulderPos();
 591              		.loc 1 151 0
 592 0020 FFF7FEFF 		bl	getShoulderPos
 593              	.LVL66:
 594              		.loc 1 153 0
 595 0024 A842     		cmp	r0, r5
 596 0026 05DD     		ble	.L29
 597              		.loc 1 153 0 is_stmt 0 discriminator 1
 598 0028 B042     		cmp	r0, r6
 599 002a 03DA     		bge	.L29
 154:.\motion.c    ****             shoulderStop();
 600              		.loc 1 154 0 is_stmt 1
 601 002c FFF7FEFF 		bl	shoulderStop
 602              	.LVL67:
 155:.\motion.c    ****             return 0;
 603              		.loc 1 155 0
 604 0030 0020     		movs	r0, #0
 605 0032 70BD     		pop	{r4, r5, r6, pc}
 606              	.LVL68:
 607              	.L29:
 156:.\motion.c    ****         }
 157:.\motion.c    ****         else if (currPos < goalPos) {
 608              		.loc 1 157 0
 609 0034 A042     		cmp	r0, r4
 610 0036 02DA     		bge	.L30
 158:.\motion.c    ****             shoulderUp();
 611              		.loc 1 158 0
 612 0038 FFF7FEFF 		bl	shoulderUp
 613              	.LVL69:
 614 003c F0E7     		b	.L34
 615              	.LVL70:
 616              	.L30:
 159:.\motion.c    ****         }
 160:.\motion.c    ****         else if (currPos > goalPos) {
 617              		.loc 1 160 0
 618 003e A042     		cmp	r0, r4
 619 0040 EEDD     		ble	.L34
 161:.\motion.c    ****             shoulderDown();
 620              		.loc 1 161 0
 621 0042 FFF7FEFF 		bl	shoulderDown
 622              	.LVL71:
 623 0046 EBE7     		b	.L34
 624              	.LVL72:
 625              	.L32:
 626              	.LBE3:
 147:.\motion.c    ****         return 1;
 627              		.loc 1 147 0
 628 0048 0120     		movs	r0, #1
 629              	.LVL73:
 162:.\motion.c    ****         }
 163:.\motion.c    ****     }
 164:.\motion.c    **** }
 630              		.loc 1 164 0
ARM GAS  C:\Users\Nick\AppData\Local\Temp\ccCy3Xjo.s 			page 15


 631 004a 70BD     		pop	{r4, r5, r6, pc}
 632              		.cfi_endproc
 633              	.LFE78:
 634              		.size	shoulderGoToPos, .-shoulderGoToPos
 635              		.section	.text.shoulderUpStep,"ax",%progbits
 636              		.align	2
 637              		.global	shoulderUpStep
 638              		.thumb
 639              		.thumb_func
 640              		.type	shoulderUpStep, %function
 641              	shoulderUpStep:
 642              	.LFB73:
 101:.\motion.c    **** void shoulderUpStep() {
 643              		.loc 1 101 0
 644              		.cfi_startproc
 645              		@ args = 0, pretend = 0, frame = 0
 646              		@ frame_needed = 0, uses_anonymous_args = 0
 647 0000 70B5     		push	{r4, r5, r6, lr}
 648              		.cfi_def_cfa_offset 16
 649              		.cfi_offset 4, -16
 650              		.cfi_offset 5, -12
 651              		.cfi_offset 6, -8
 652              		.cfi_offset 14, -4
 102:.\motion.c    ****     int16 currPos = getShoulderPos();
 653              		.loc 1 102 0
 654 0002 FFF7FEFF 		bl	getShoulderPos
 655              	.LVL74:
 103:.\motion.c    ****     int16 newPos = currPos - STEP_SIZE_SHOULDER;
 656              		.loc 1 103 0
 657 0006 85B2     		uxth	r5, r0
 658 0008 A5F13C04 		sub	r4, r5, #60
 659 000c A4B2     		uxth	r4, r4
 660 000e A6B2     		uxth	r6, r4
 661              	.LVL75:
 105:.\motion.c    ****     Lcd_ClearDisplay();
 662              		.loc 1 105 0
 663 0010 0120     		movs	r0, #1
 664              	.LVL76:
 665 0012 FFF7FEFF 		bl	Lcd_WriteControl
 666              	.LVL77:
 106:.\motion.c    ****     Lcd_Position(0,0);
 667              		.loc 1 106 0
 668 0016 0020     		movs	r0, #0
 669 0018 0146     		mov	r1, r0
 670 001a FFF7FEFF 		bl	Lcd_Position
 671              	.LVL78:
 107:.\motion.c    ****     Lcd_PrintDecUint16(currPos);
 672              		.loc 1 107 0
 673 001e 2846     		mov	r0, r5
 674 0020 FFF7FEFF 		bl	Lcd_PrintNumber
 675              	.LVL79:
 108:.\motion.c    ****     Lcd_Position(0,5);
 676              		.loc 1 108 0
 677 0024 0020     		movs	r0, #0
 678 0026 0521     		movs	r1, #5
 679 0028 FFF7FEFF 		bl	Lcd_Position
 680              	.LVL80:
ARM GAS  C:\Users\Nick\AppData\Local\Temp\ccCy3Xjo.s 			page 16


 109:.\motion.c    ****     Lcd_PrintString("->");
 681              		.loc 1 109 0
 682 002c 0648     		ldr	r0, .L36
 683 002e FFF7FEFF 		bl	Lcd_PrintString
 684              	.LVL81:
 110:.\motion.c    ****     Lcd_Position(0,8);
 685              		.loc 1 110 0
 686 0032 0020     		movs	r0, #0
 687 0034 0821     		movs	r1, #8
 688 0036 FFF7FEFF 		bl	Lcd_Position
 689              	.LVL82:
 111:.\motion.c    ****     Lcd_PrintDecUint16(newPos);
 690              		.loc 1 111 0
 691 003a 2046     		mov	r0, r4
 692 003c FFF7FEFF 		bl	Lcd_PrintNumber
 693              	.LVL83:
 113:.\motion.c    ****     shoulderGoToPos(newPos);
 694              		.loc 1 113 0
 695 0040 30B2     		sxth	r0, r6
 696 0042 FFF7FEFF 		bl	shoulderGoToPos
 697              	.LVL84:
 698 0046 70BD     		pop	{r4, r5, r6, pc}
 699              	.LVL85:
 700              	.L37:
 701              		.align	2
 702              	.L36:
 703 0048 00000000 		.word	.LC0
 704              		.cfi_endproc
 705              	.LFE73:
 706              		.size	shoulderUpStep, .-shoulderUpStep
 707              		.section	.text.shoulderDownStep,"ax",%progbits
 708              		.align	2
 709              		.global	shoulderDownStep
 710              		.thumb
 711              		.thumb_func
 712              		.type	shoulderDownStep, %function
 713              	shoulderDownStep:
 714              	.LFB74:
 115:.\motion.c    **** void shoulderDownStep() {
 715              		.loc 1 115 0
 716              		.cfi_startproc
 717              		@ args = 0, pretend = 0, frame = 0
 718              		@ frame_needed = 0, uses_anonymous_args = 0
 719 0000 70B5     		push	{r4, r5, r6, lr}
 720              		.cfi_def_cfa_offset 16
 721              		.cfi_offset 4, -16
 722              		.cfi_offset 5, -12
 723              		.cfi_offset 6, -8
 724              		.cfi_offset 14, -4
 116:.\motion.c    ****     int16 currPos = getShoulderPos();
 725              		.loc 1 116 0
 726 0002 FFF7FEFF 		bl	getShoulderPos
 727              	.LVL86:
 117:.\motion.c    ****     int16 newPos = currPos + STEP_SIZE_SHOULDER;
 728              		.loc 1 117 0
 729 0006 85B2     		uxth	r5, r0
 730 0008 05F13C04 		add	r4, r5, #60
ARM GAS  C:\Users\Nick\AppData\Local\Temp\ccCy3Xjo.s 			page 17


 731 000c A4B2     		uxth	r4, r4
 732 000e A6B2     		uxth	r6, r4
 733              	.LVL87:
 119:.\motion.c    ****     Lcd_ClearDisplay();
 734              		.loc 1 119 0
 735 0010 0120     		movs	r0, #1
 736              	.LVL88:
 737 0012 FFF7FEFF 		bl	Lcd_WriteControl
 738              	.LVL89:
 120:.\motion.c    ****     Lcd_Position(0,0);
 739              		.loc 1 120 0
 740 0016 0020     		movs	r0, #0
 741 0018 0146     		mov	r1, r0
 742 001a FFF7FEFF 		bl	Lcd_Position
 743              	.LVL90:
 121:.\motion.c    ****     Lcd_PrintDecUint16(currPos);
 744              		.loc 1 121 0
 745 001e 2846     		mov	r0, r5
 746 0020 FFF7FEFF 		bl	Lcd_PrintNumber
 747              	.LVL91:
 122:.\motion.c    ****     Lcd_Position(0,5);
 748              		.loc 1 122 0
 749 0024 0020     		movs	r0, #0
 750 0026 0521     		movs	r1, #5
 751 0028 FFF7FEFF 		bl	Lcd_Position
 752              	.LVL92:
 123:.\motion.c    ****     Lcd_PrintString("->");
 753              		.loc 1 123 0
 754 002c 0648     		ldr	r0, .L39
 755 002e FFF7FEFF 		bl	Lcd_PrintString
 756              	.LVL93:
 124:.\motion.c    ****     Lcd_Position(0,8);
 757              		.loc 1 124 0
 758 0032 0020     		movs	r0, #0
 759 0034 0821     		movs	r1, #8
 760 0036 FFF7FEFF 		bl	Lcd_Position
 761              	.LVL94:
 125:.\motion.c    ****     Lcd_PrintDecUint16(newPos);
 762              		.loc 1 125 0
 763 003a 2046     		mov	r0, r4
 764 003c FFF7FEFF 		bl	Lcd_PrintNumber
 765              	.LVL95:
 127:.\motion.c    ****     shoulderGoToPos(newPos);
 766              		.loc 1 127 0
 767 0040 30B2     		sxth	r0, r6
 768 0042 FFF7FEFF 		bl	shoulderGoToPos
 769              	.LVL96:
 770 0046 70BD     		pop	{r4, r5, r6, pc}
 771              	.LVL97:
 772              	.L40:
 773              		.align	2
 774              	.L39:
 775 0048 00000000 		.word	.LC0
 776              		.cfi_endproc
 777              	.LFE74:
 778              		.size	shoulderDownStep, .-shoulderDownStep
 779              		.section	.text.rotateToHome,"ax",%progbits
ARM GAS  C:\Users\Nick\AppData\Local\Temp\ccCy3Xjo.s 			page 18


 780              		.align	2
 781              		.global	rotateToHome
 782              		.thumb
 783              		.thumb_func
 784              		.type	rotateToHome, %function
 785              	rotateToHome:
 786              	.LFB79:
 165:.\motion.c    **** 
 166:.\motion.c    **** void rotateToHome() {
 787              		.loc 1 166 0
 788              		.cfi_startproc
 789              		@ args = 0, pretend = 0, frame = 0
 790              		@ frame_needed = 0, uses_anonymous_args = 0
 791 0000 08B5     		push	{r3, lr}
 792              		.cfi_def_cfa_offset 8
 793              		.cfi_offset 3, -8
 794              		.cfi_offset 14, -4
 167:.\motion.c    ****     RotateCCW_Write(1);
 795              		.loc 1 167 0
 796 0002 0120     		movs	r0, #1
 797 0004 FFF7FEFF 		bl	RotateCCW_Write
 798              	.LVL98:
 168:.\motion.c    ****     RotateCW_Write(0);
 799              		.loc 1 168 0
 800 0008 0020     		movs	r0, #0
 801 000a FFF7FEFF 		bl	RotateCW_Write
 802              	.LVL99:
 803 000e 08BD     		pop	{r3, pc}
 804              		.cfi_endproc
 805              	.LFE79:
 806              		.size	rotateToHome, .-rotateToHome
 807              		.section	.text.rotateStepCCW,"ax",%progbits
 808              		.align	2
 809              		.global	rotateStepCCW
 810              		.thumb
 811              		.thumb_func
 812              		.type	rotateStepCCW, %function
 813              	rotateStepCCW:
 814              	.LFB80:
 169:.\motion.c    **** }
 170:.\motion.c    **** void rotateStepCCW(uint16 timeToMove) {
 815              		.loc 1 170 0
 816              		.cfi_startproc
 817              		@ args = 0, pretend = 0, frame = 0
 818              		@ frame_needed = 0, uses_anonymous_args = 0
 819              	.LVL100:
 820 0000 10B5     		push	{r4, lr}
 821              		.cfi_def_cfa_offset 8
 822              		.cfi_offset 4, -8
 823              		.cfi_offset 14, -4
 824 0002 0446     		mov	r4, r0
 171:.\motion.c    ****     RotateCCW_Write(1);
 825              		.loc 1 171 0
 826 0004 0120     		movs	r0, #1
 827              	.LVL101:
 828 0006 FFF7FEFF 		bl	RotateCCW_Write
 829              	.LVL102:
ARM GAS  C:\Users\Nick\AppData\Local\Temp\ccCy3Xjo.s 			page 19


 172:.\motion.c    ****     RotateCW_Write(0);
 830              		.loc 1 172 0
 831 000a 0020     		movs	r0, #0
 832 000c FFF7FEFF 		bl	RotateCW_Write
 833              	.LVL103:
 173:.\motion.c    ****     
 174:.\motion.c    ****     CyDelay(timeToMove);
 834              		.loc 1 174 0
 835 0010 2046     		mov	r0, r4
 836 0012 FFF7FEFF 		bl	CyDelay
 837              	.LVL104:
 175:.\motion.c    ****     
 176:.\motion.c    ****     RotateCCW_Write(0);
 838              		.loc 1 176 0
 839 0016 0020     		movs	r0, #0
 840 0018 FFF7FEFF 		bl	RotateCCW_Write
 841              	.LVL105:
 177:.\motion.c    ****     RotateCW_Write(0);
 842              		.loc 1 177 0
 843 001c 0020     		movs	r0, #0
 844 001e FFF7FEFF 		bl	RotateCW_Write
 845              	.LVL106:
 846 0022 10BD     		pop	{r4, pc}
 847              		.cfi_endproc
 848              	.LFE80:
 849              		.size	rotateStepCCW, .-rotateStepCCW
 850              		.section	.text.rotateStepCW,"ax",%progbits
 851              		.align	2
 852              		.global	rotateStepCW
 853              		.thumb
 854              		.thumb_func
 855              		.type	rotateStepCW, %function
 856              	rotateStepCW:
 857              	.LFB81:
 178:.\motion.c    **** }
 179:.\motion.c    **** void rotateStepCW(uint16 timeToMove) {
 858              		.loc 1 179 0
 859              		.cfi_startproc
 860              		@ args = 0, pretend = 0, frame = 0
 861              		@ frame_needed = 0, uses_anonymous_args = 0
 862              	.LVL107:
 863 0000 10B5     		push	{r4, lr}
 864              		.cfi_def_cfa_offset 8
 865              		.cfi_offset 4, -8
 866              		.cfi_offset 14, -4
 867 0002 0446     		mov	r4, r0
 180:.\motion.c    ****     RotateCCW_Write(0);
 868              		.loc 1 180 0
 869 0004 0020     		movs	r0, #0
 870              	.LVL108:
 871 0006 FFF7FEFF 		bl	RotateCCW_Write
 872              	.LVL109:
 181:.\motion.c    ****     RotateCW_Write(1);
 873              		.loc 1 181 0
 874 000a 0120     		movs	r0, #1
 875 000c FFF7FEFF 		bl	RotateCW_Write
 876              	.LVL110:
ARM GAS  C:\Users\Nick\AppData\Local\Temp\ccCy3Xjo.s 			page 20


 182:.\motion.c    ****     
 183:.\motion.c    ****     CyDelay(timeToMove);
 877              		.loc 1 183 0
 878 0010 2046     		mov	r0, r4
 879 0012 FFF7FEFF 		bl	CyDelay
 880              	.LVL111:
 184:.\motion.c    ****     
 185:.\motion.c    ****     RotateCCW_Write(0);
 881              		.loc 1 185 0
 882 0016 0020     		movs	r0, #0
 883 0018 FFF7FEFF 		bl	RotateCCW_Write
 884              	.LVL112:
 186:.\motion.c    ****     RotateCW_Write(0);
 885              		.loc 1 186 0
 886 001c 0020     		movs	r0, #0
 887 001e FFF7FEFF 		bl	RotateCW_Write
 888              	.LVL113:
 889 0022 10BD     		pop	{r4, pc}
 890              		.cfi_endproc
 891              	.LFE81:
 892              		.size	rotateStepCW, .-rotateStepCW
 893              		.section	.text.getPosCoords,"ax",%progbits
 894              		.align	2
 895              		.global	getPosCoords
 896              		.thumb
 897              		.thumb_func
 898              		.type	getPosCoords, %function
 899              	getPosCoords:
 900              	.LFB82:
 187:.\motion.c    **** }
 188:.\motion.c    **** 
 189:.\motion.c    **** uint16 * getPosCoords() {
 901              		.loc 1 189 0
 902              		.cfi_startproc
 903              		@ args = 0, pretend = 0, frame = 0
 904              		@ frame_needed = 0, uses_anonymous_args = 0
 905              		@ link register save eliminated.
 190:.\motion.c    ****     uint16 * coords[2] = {0, 0};
 191:.\motion.c    ****     return *(coords);
 192:.\motion.c    **** }
 906              		.loc 1 192 0
 907 0000 0020     		movs	r0, #0
 908 0002 7047     		bx	lr
 909              		.cfi_endproc
 910              	.LFE82:
 911              		.size	getPosCoords, .-getPosCoords
 912              		.global	__aeabi_ui2f
 913              		.global	__aeabi_f2d
 914              		.global	__aeabi_dmul
 915              		.global	__aeabi_dadd
 916              		.global	__aeabi_d2iz
 917              		.section	.text.elbowAngleToPotPos,"ax",%progbits
 918              		.align	2
 919              		.global	elbowAngleToPotPos
 920              		.thumb
 921              		.thumb_func
 922              		.type	elbowAngleToPotPos, %function
ARM GAS  C:\Users\Nick\AppData\Local\Temp\ccCy3Xjo.s 			page 21


 923              	elbowAngleToPotPos:
 924              	.LFB83:
 193:.\motion.c    **** 
 194:.\motion.c    **** int16 elbowAngleToPotPos(uint8 angle) {
 925              		.loc 1 194 0
 926              		.cfi_startproc
 927              		@ args = 0, pretend = 0, frame = 0
 928              		@ frame_needed = 0, uses_anonymous_args = 0
 929              	.LVL114:
 930 0000 08B5     		push	{r3, lr}
 931              		.cfi_def_cfa_offset 8
 932              		.cfi_offset 3, -8
 933              		.cfi_offset 14, -4
 195:.\motion.c    ****     return (int16) (-11.067 * ((float) angle) + 2385);
 934              		.loc 1 195 0
 935 0002 FFF7FEFF 		bl	__aeabi_ui2f
 936              	.LVL115:
 937 0006 FFF7FEFF 		bl	__aeabi_f2d
 938              	.LVL116:
 939 000a 07A3     		adr	r3, .L46
 940 000c D3E90023 		ldrd	r2, [r3]
 941 0010 FFF7FEFF 		bl	__aeabi_dmul
 942              	.LVL117:
 943 0014 06A3     		adr	r3, .L46+8
 944 0016 D3E90023 		ldrd	r2, [r3]
 945 001a FFF7FEFF 		bl	__aeabi_dadd
 946              	.LVL118:
 947 001e FFF7FEFF 		bl	__aeabi_d2iz
 948              	.LVL119:
 196:.\motion.c    **** }
 949              		.loc 1 196 0
 950 0022 00B2     		sxth	r0, r0
 951 0024 08BD     		pop	{r3, pc}
 952              	.L47:
 953 0026 00BF     		.align	3
 954              	.L46:
 955 0028 FCA9F1D2 		.word	-755914244
 956 002c 4D2226C0 		.word	-1071242675
 957 0030 00000000 		.word	0
 958 0034 00A2A240 		.word	1084400128
 959              		.cfi_endproc
 960              	.LFE83:
 961              		.size	elbowAngleToPotPos, .-elbowAngleToPotPos
 962              		.section	.text.shoulderAngleToPotPos,"ax",%progbits
 963              		.align	2
 964              		.global	shoulderAngleToPotPos
 965              		.thumb
 966              		.thumb_func
 967              		.type	shoulderAngleToPotPos, %function
 968              	shoulderAngleToPotPos:
 969              	.LFB84:
 197:.\motion.c    **** int16 shoulderAngleToPotPos(uint8 angle) { // Need more datapoints to confirm formula
 970              		.loc 1 197 0
 971              		.cfi_startproc
 972              		@ args = 0, pretend = 0, frame = 0
 973              		@ frame_needed = 0, uses_anonymous_args = 0
 974              	.LVL120:
ARM GAS  C:\Users\Nick\AppData\Local\Temp\ccCy3Xjo.s 			page 22


 975 0000 08B5     		push	{r3, lr}
 976              		.cfi_def_cfa_offset 8
 977              		.cfi_offset 3, -8
 978              		.cfi_offset 14, -4
 198:.\motion.c    ****     return (int16) (-3.333 * ((float) angle) + 2400);
 979              		.loc 1 198 0
 980 0002 FFF7FEFF 		bl	__aeabi_ui2f
 981              	.LVL121:
 982 0006 FFF7FEFF 		bl	__aeabi_f2d
 983              	.LVL122:
 984 000a 07A3     		adr	r3, .L49
 985 000c D3E90023 		ldrd	r2, [r3]
 986 0010 FFF7FEFF 		bl	__aeabi_dmul
 987              	.LVL123:
 988 0014 0022     		movs	r2, #0
 989 0016 064B     		ldr	r3, .L49+8
 990 0018 FFF7FEFF 		bl	__aeabi_dadd
 991              	.LVL124:
 992 001c FFF7FEFF 		bl	__aeabi_d2iz
 993              	.LVL125:
 199:.\motion.c    **** }
 994              		.loc 1 199 0
 995 0020 00B2     		sxth	r0, r0
 996 0022 08BD     		pop	{r3, pc}
 997              	.L50:
 998 0024 AFF30080 		.align	3
 999              	.L49:
 1000 0028 448B6CE7 		.word	-412316860
 1001 002c FBA90AC0 		.word	-1073042949
 1002 0030 00C0A240 		.word	1084407808
 1003              		.cfi_endproc
 1004              	.LFE84:
 1005              		.size	shoulderAngleToPotPos, .-shoulderAngleToPotPos
 1006              		.global	__aeabi_i2d
 1007              		.global	__aeabi_d2uiz
 1008 0034 AFF30080 		.section	.text.elbowPotPosToAngle,"ax",%progbits
 1009              		.align	2
 1010              		.global	elbowPotPosToAngle
 1011              		.thumb
 1012              		.thumb_func
 1013              		.type	elbowPotPosToAngle, %function
 1014              	elbowPotPosToAngle:
 1015              	.LFB85:
 200:.\motion.c    **** uint8 elbowPotPosToAngle(int16 potPos) {
 1016              		.loc 1 200 0
 1017              		.cfi_startproc
 1018              		@ args = 0, pretend = 0, frame = 0
 1019              		@ frame_needed = 0, uses_anonymous_args = 0
 1020              	.LVL126:
 1021 0000 08B5     		push	{r3, lr}
 1022              		.cfi_def_cfa_offset 8
 1023              		.cfi_offset 3, -8
 1024              		.cfi_offset 14, -4
 201:.\motion.c    ****     return (uint8) (0.09035 * (2385 - potPos));
 1025              		.loc 1 201 0
 1026 0002 C0F51560 		rsb	r0, r0, #2384
 1027              	.LVL127:
ARM GAS  C:\Users\Nick\AppData\Local\Temp\ccCy3Xjo.s 			page 23


 1028 0006 0130     		adds	r0, r0, #1
 1029 0008 FFF7FEFF 		bl	__aeabi_i2d
 1030              	.LVL128:
 1031 000c 04A3     		adr	r3, .L52
 1032 000e D3E90023 		ldrd	r2, [r3]
 1033 0012 FFF7FEFF 		bl	__aeabi_dmul
 1034              	.LVL129:
 1035 0016 FFF7FEFF 		bl	__aeabi_d2uiz
 1036              	.LVL130:
 202:.\motion.c    **** }
 1037              		.loc 1 202 0
 1038 001a C0B2     		uxtb	r0, r0
 1039 001c 08BD     		pop	{r3, pc}
 1040              	.L53:
 1041 001e 00BF     		.align	3
 1042              	.L52:
 1043 0020 C58F3177 		.word	1999736773
 1044 0024 2D21B73F 		.word	1068966189
 1045              		.cfi_endproc
 1046              	.LFE85:
 1047              		.size	elbowPotPosToAngle, .-elbowPotPosToAngle
 1048              		.section	.text.shoulderPotPosToAngle,"ax",%progbits
 1049              		.align	2
 1050              		.global	shoulderPotPosToAngle
 1051              		.thumb
 1052              		.thumb_func
 1053              		.type	shoulderPotPosToAngle, %function
 1054              	shoulderPotPosToAngle:
 1055              	.LFB86:
 203:.\motion.c    **** uint8 shoulderPotPosToAngle(int16 potPos) { // Need more datapoints to confirm formula
 1056              		.loc 1 203 0
 1057              		.cfi_startproc
 1058              		@ args = 0, pretend = 0, frame = 0
 1059              		@ frame_needed = 0, uses_anonymous_args = 0
 1060              	.LVL131:
 1061 0000 08B5     		push	{r3, lr}
 1062              		.cfi_def_cfa_offset 8
 1063              		.cfi_offset 3, -8
 1064              		.cfi_offset 14, -4
 204:.\motion.c    ****     return (uint8) (0.3 * (2400 - potPos));;
 1065              		.loc 1 204 0
 1066 0002 C0F51660 		rsb	r0, r0, #2400
 1067              	.LVL132:
 1068 0006 FFF7FEFF 		bl	__aeabi_i2d
 1069              	.LVL133:
 1070 000a 05A3     		adr	r3, .L55
 1071 000c D3E90023 		ldrd	r2, [r3]
 1072 0010 FFF7FEFF 		bl	__aeabi_dmul
 1073              	.LVL134:
 1074 0014 FFF7FEFF 		bl	__aeabi_d2uiz
 1075              	.LVL135:
 205:.\motion.c    **** }...
 1076              		.loc 1 205 0
 1077 0018 C0B2     		uxtb	r0, r0
 1078 001a 08BD     		pop	{r3, pc}
 1079              	.L56:
 1080 001c AFF30080 		.align	3
ARM GAS  C:\Users\Nick\AppData\Local\Temp\ccCy3Xjo.s 			page 24


 1081              	.L55:
 1082 0020 33333333 		.word	858993459
 1083 0024 3333D33F 		.word	1070805811
 1084              		.cfi_endproc
 1085              	.LFE86:
 1086              		.size	shoulderPotPosToAngle, .-shoulderPotPosToAngle
 1087              		.comm	Camera_framebuffer,50688,4
 1088              		.section	.rodata.str1.4,"aMS",%progbits,1
 1089              		.align	2
 1090              	.LC0:
 1091 0000 2D3E00   		.ascii	"->\000"
 1092 0003 00       		.text
 1093              	.Letext0:
 1094              		.file 2 "c:\\program files (x86)\\cypress\\psoc creator\\3.2\\psoc creator\\import\\gnu\\arm\\4.8.
 1095              		.file 3 "c:\\program files (x86)\\cypress\\psoc creator\\3.2\\psoc creator\\import\\gnu\\arm\\4.8.
 1096              		.file 4 "Generated_Source\\PSoC5/cytypes.h"
 1097              		.file 5 "Generated_Source\\PSoC5/core_cm3.h"
 1098              		.file 6 "Generated_Source\\PSoC5/Camera.h"
 1099              		.file 7 "Generated_Source\\PSoC5/AMux.h"
 1100              		.file 8 "Generated_Source\\PSoC5/Lcd.h"
 1101              		.file 9 "Generated_Source\\PSoC5/ADC.h"
 1102              		.file 10 "Generated_Source\\PSoC5/ElbowPos.h"
 1103              		.file 11 "Generated_Source\\PSoC5/ElbowNeg.h"
 1104              		.file 12 "Generated_Source\\PSoC5/ShoulderPos.h"
 1105              		.file 13 "Generated_Source\\PSoC5/ShoulderNeg.h"
 1106              		.file 14 "Generated_Source\\PSoC5/RotateCCW.h"
 1107              		.file 15 "Generated_Source\\PSoC5/RotateCW.h"
 1108              		.file 16 "Generated_Source\\PSoC5/CyLib.h"