ARM GAS  C:\Users\Nick\AppData\Local\Temp\cccUBDXf.s 			page 1


   1              		.syntax unified
   2              		.cpu cortex-m3
   3              		.fpu softvfp
   4              		.eabi_attribute 20, 1
   5              		.eabi_attribute 21, 1
   6              		.eabi_attribute 23, 3
   7              		.eabi_attribute 24, 1
   8              		.eabi_attribute 25, 1
   9              		.eabi_attribute 26, 1
  10              		.eabi_attribute 30, 1
  11              		.eabi_attribute 34, 1
  12              		.eabi_attribute 18, 4
  13              		.thumb
  14              		.file	"prelim.c"
  15              		.text
  16              	.Ltext0:
  17              		.cfi_sections	.debug_frame
  18              		.global	__aeabi_i2d
  19              		.global	__aeabi_dmul
  20              		.global	__aeabi_dsub
  21              		.global	__aeabi_d2uiz
  22              		.section	.text.angleToDistanceElbow,"ax",%progbits
  23              		.align	2
  24              		.global	angleToDistanceElbow
  25              		.thumb
  26              		.thumb_func
  27              		.type	angleToDistanceElbow, %function
  28              	angleToDistanceElbow:
  29              	.LFB63:
  30              		.file 1 ".\\prelim.c"
   1:.\prelim.c    **** #include <project.h>
   2:.\prelim.c    **** #include <math.h>
   3:.\prelim.c    **** #include "main.h"
   4:.\prelim.c    **** #include "motion.h"
   5:.\prelim.c    **** #include "sensors.h"
   6:.\prelim.c    **** 
   7:.\prelim.c    **** 
   8:.\prelim.c    **** //#define FINAL_SHOULDER_ANGLE 160
   9:.\prelim.c    **** //#define FINAL_ELBOW_ANGLE 160
  10:.\prelim.c    **** #define HOME_ANGLE_S 20
  11:.\prelim.c    **** #define HOME_ANGLE_E 45
  12:.\prelim.c    **** 
  13:.\prelim.c    **** //arbitrary distance
  14:.\prelim.c    **** #define DISTANCE_FROM_GROUND 1
  15:.\prelim.c    **** 
  16:.\prelim.c    **** //construction zone limits
  17:.\prelim.c    **** #define CZ_BOUND_BOTTOM 40
  18:.\prelim.c    **** #define CZ_BOUND_TOP 165
  19:.\prelim.c    **** #define CZ_BOUND_L -30
  20:.\prelim.c    **** #define CZ_BOUND_R 90
  21:.\prelim.c    **** #define CZ_MIDDLE 185
  22:.\prelim.c    **** 
  23:.\prelim.c    **** uint8 width[] = {29,76,65,-11,3,64,19,69,59,33,87,-28,65,-8,81,34,20,-4,-16,87}; 
  24:.\prelim.c    **** uint8 length[] = {162,131,69,106,46,153,65,156,121,49,154,68,141,59,73,102,128,150,116,78};
  25:.\prelim.c    **** 
  26:.\prelim.c    **** 
  27:.\prelim.c    **** uint16 angleToDistanceElbow(int16 E, int16 S){
ARM GAS  C:\Users\Nick\AppData\Local\Temp\cccUBDXf.s 			page 2


  31              		.loc 1 27 0
  32              		.cfi_startproc
  33              		@ args = 0, pretend = 0, frame = 0
  34              		@ frame_needed = 0, uses_anonymous_args = 0
  35              	.LVL0:
  36 0000 F8B5     		push	{r3, r4, r5, r6, r7, lr}
  37              		.cfi_def_cfa_offset 24
  38              		.cfi_offset 3, -24
  39              		.cfi_offset 4, -20
  40              		.cfi_offset 5, -16
  41              		.cfi_offset 6, -12
  42              		.cfi_offset 7, -8
  43              		.cfi_offset 14, -4
  44 0002 0746     		mov	r7, r0
  45 0004 0E46     		mov	r6, r1
  28:.\prelim.c    ****     uint16 y;
  29:.\prelim.c    ****     return y = sin(S)-0.9*sin(180-S-E);
  46              		.loc 1 29 0
  47 0006 0846     		mov	r0, r1
  48              	.LVL1:
  49 0008 FFF7FEFF 		bl	__aeabi_i2d
  50              	.LVL2:
  51 000c FFF7FEFF 		bl	sin
  52              	.LVL3:
  53 0010 0446     		mov	r4, r0
  54 0012 0D46     		mov	r5, r1
  55 0014 C6F1B400 		rsb	r0, r6, #180
  56 0018 C01B     		subs	r0, r0, r7
  57 001a FFF7FEFF 		bl	__aeabi_i2d
  58              	.LVL4:
  59 001e FFF7FEFF 		bl	sin
  60              	.LVL5:
  61 0022 07A3     		adr	r3, .L2
  62 0024 D3E90023 		ldrd	r2, [r3]
  63 0028 FFF7FEFF 		bl	__aeabi_dmul
  64              	.LVL6:
  65 002c 0246     		mov	r2, r0
  66 002e 0B46     		mov	r3, r1
  67 0030 2046     		mov	r0, r4
  68 0032 2946     		mov	r1, r5
  69 0034 FFF7FEFF 		bl	__aeabi_dsub
  70              	.LVL7:
  71 0038 FFF7FEFF 		bl	__aeabi_d2uiz
  72              	.LVL8:
  30:.\prelim.c    **** }
  73              		.loc 1 30 0
  74 003c 80B2     		uxth	r0, r0
  75 003e F8BD     		pop	{r3, r4, r5, r6, r7, pc}
  76              	.L3:
  77              		.align	3
  78              	.L2:
  79 0040 CDCCCCCC 		.word	-858993459
  80 0044 CCCCEC3F 		.word	1072483532
  81              		.cfi_endproc
  82              	.LFE63:
  83              		.size	angleToDistanceElbow, .-angleToDistanceElbow
  84              		.global	__aeabi_dadd
ARM GAS  C:\Users\Nick\AppData\Local\Temp\cccUBDXf.s 			page 3


  85              		.section	.text.angleToDistanceShoulder,"ax",%progbits
  86              		.align	2
  87              		.global	angleToDistanceShoulder
  88              		.thumb
  89              		.thumb_func
  90              		.type	angleToDistanceShoulder, %function
  91              	angleToDistanceShoulder:
  92              	.LFB64:
  31:.\prelim.c    **** 
  32:.\prelim.c    **** uint16 angleToDistanceShoulder(int16 E, int16 S){
  93              		.loc 1 32 0
  94              		.cfi_startproc
  95              		@ args = 0, pretend = 0, frame = 0
  96              		@ frame_needed = 0, uses_anonymous_args = 0
  97              	.LVL9:
  98 0000 F8B5     		push	{r3, r4, r5, r6, r7, lr}
  99              		.cfi_def_cfa_offset 24
 100              		.cfi_offset 3, -24
 101              		.cfi_offset 4, -20
 102              		.cfi_offset 5, -16
 103              		.cfi_offset 6, -12
 104              		.cfi_offset 7, -8
 105              		.cfi_offset 14, -4
 106 0002 0746     		mov	r7, r0
 107 0004 0E46     		mov	r6, r1
  33:.\prelim.c    ****     uint16 x;
  34:.\prelim.c    ****     x = cos(S)+0.9*cos(180-S-E);
 108              		.loc 1 34 0
 109 0006 0846     		mov	r0, r1
 110              	.LVL10:
 111 0008 FFF7FEFF 		bl	__aeabi_i2d
 112              	.LVL11:
 113 000c FFF7FEFF 		bl	cos
 114              	.LVL12:
 115 0010 0446     		mov	r4, r0
 116 0012 0D46     		mov	r5, r1
 117 0014 C6F1B400 		rsb	r0, r6, #180
 118 0018 C01B     		subs	r0, r0, r7
 119 001a FFF7FEFF 		bl	__aeabi_i2d
 120              	.LVL13:
 121 001e FFF7FEFF 		bl	cos
 122              	.LVL14:
 123 0022 07A3     		adr	r3, .L5
 124 0024 D3E90023 		ldrd	r2, [r3]
 125 0028 FFF7FEFF 		bl	__aeabi_dmul
 126              	.LVL15:
 127 002c 0246     		mov	r2, r0
 128 002e 0B46     		mov	r3, r1
 129 0030 2046     		mov	r0, r4
 130 0032 2946     		mov	r1, r5
 131 0034 FFF7FEFF 		bl	__aeabi_dadd
 132              	.LVL16:
 133 0038 FFF7FEFF 		bl	__aeabi_d2uiz
 134              	.LVL17:
  35:.\prelim.c    ****     return x; 
  36:.\prelim.c    **** }
 135              		.loc 1 36 0
ARM GAS  C:\Users\Nick\AppData\Local\Temp\cccUBDXf.s 			page 4


 136 003c 80B2     		uxth	r0, r0
 137 003e F8BD     		pop	{r3, r4, r5, r6, r7, pc}
 138              	.L6:
 139              		.align	3
 140              	.L5:
 141 0040 CDCCCCCC 		.word	-858993459
 142 0044 CCCCEC3F 		.word	1072483532
 143              		.cfi_endproc
 144              	.LFE64:
 145              		.size	angleToDistanceShoulder, .-angleToDistanceShoulder
 146              		.global	__aeabi_ddiv
 147              		.section	.text.distanceToAngleElbow,"ax",%progbits
 148              		.align	2
 149              		.global	distanceToAngleElbow
 150              		.thumb
 151              		.thumb_func
 152              		.type	distanceToAngleElbow, %function
 153              	distanceToAngleElbow:
 154              	.LFB65:
  37:.\prelim.c    **** 
  38:.\prelim.c    **** uint16 distanceToAngleElbow(int16 x, int16 y){
 155              		.loc 1 38 0
 156              		.cfi_startproc
 157              		@ args = 0, pretend = 0, frame = 0
 158              		@ frame_needed = 0, uses_anonymous_args = 0
 159              	.LVL18:
 160 0000 2DE9F041 		push	{r4, r5, r6, r7, r8, lr}
 161              		.cfi_def_cfa_offset 24
 162              		.cfi_offset 4, -24
 163              		.cfi_offset 5, -20
 164              		.cfi_offset 6, -16
 165              		.cfi_offset 7, -12
 166              		.cfi_offset 8, -8
 167              		.cfi_offset 14, -4
 168 0004 8046     		mov	r8, r0
  39:.\prelim.c    ****     uint16 E;
  40:.\prelim.c    ****     E = acos(-(pow(y,2)+pow(x,2)-pow(0.9,2)-1)/1.8);
 169              		.loc 1 40 0
 170 0006 0846     		mov	r0, r1
 171              	.LVL19:
 172 0008 FFF7FEFF 		bl	__aeabi_i2d
 173              	.LVL20:
 174 000c 0024     		movs	r4, #0
 175 000e 4FF08045 		mov	r5, #1073741824
 176 0012 2246     		mov	r2, r4
 177 0014 2B46     		mov	r3, r5
 178 0016 FFF7FEFF 		bl	pow
 179              	.LVL21:
 180 001a 0646     		mov	r6, r0
 181 001c 0F46     		mov	r7, r1
 182 001e 4046     		mov	r0, r8
 183 0020 FFF7FEFF 		bl	__aeabi_i2d
 184              	.LVL22:
 185 0024 2246     		mov	r2, r4
 186 0026 2B46     		mov	r3, r5
 187 0028 FFF7FEFF 		bl	pow
 188              	.LVL23:
ARM GAS  C:\Users\Nick\AppData\Local\Temp\cccUBDXf.s 			page 5


 189 002c 0246     		mov	r2, r0
 190 002e 0B46     		mov	r3, r1
 191 0030 3046     		mov	r0, r6
 192 0032 3946     		mov	r1, r7
 193 0034 FFF7FEFF 		bl	__aeabi_dadd
 194              	.LVL24:
 195 0038 0BA3     		adr	r3, .L8
 196 003a D3E90023 		ldrd	r2, [r3]
 197 003e FFF7FEFF 		bl	__aeabi_dsub
 198              	.LVL25:
 199 0042 0022     		movs	r2, #0
 200 0044 0C4B     		ldr	r3, .L8+16
 201 0046 FFF7FEFF 		bl	__aeabi_dsub
 202              	.LVL26:
 203 004a 01F10043 		add	r3, r1, #-2147483648
 204 004e 1946     		mov	r1, r3
 205 0050 07A3     		adr	r3, .L8+8
 206 0052 D3E90023 		ldrd	r2, [r3]
 207 0056 FFF7FEFF 		bl	__aeabi_ddiv
 208              	.LVL27:
 209 005a FFF7FEFF 		bl	acos
 210              	.LVL28:
 211 005e FFF7FEFF 		bl	__aeabi_d2uiz
 212              	.LVL29:
  41:.\prelim.c    ****     return E;
  42:.\prelim.c    **** }
 213              		.loc 1 42 0
 214 0062 80B2     		uxth	r0, r0
 215 0064 BDE8F081 		pop	{r4, r5, r6, r7, r8, pc}
 216              	.L9:
 217              		.align	3
 218              	.L8:
 219 0068 EC51B81E 		.word	515396076
 220 006c 85EBE93F 		.word	1072294789
 221 0070 CDCCCCCC 		.word	-858993459
 222 0074 CCCCFC3F 		.word	1073532108
 223 0078 0000F03F 		.word	1072693248
 224              		.cfi_endproc
 225              	.LFE65:
 226              		.size	distanceToAngleElbow, .-distanceToAngleElbow
 227              		.global	__aeabi_ui2d
 228 007c AFF30080 		.section	.text.distanceToAngleShoulder,"ax",%progbits
 229              		.align	2
 230              		.global	distanceToAngleShoulder
 231              		.thumb
 232              		.thumb_func
 233              		.type	distanceToAngleShoulder, %function
 234              	distanceToAngleShoulder:
 235              	.LFB66:
  43:.\prelim.c    **** 
  44:.\prelim.c    **** uint16 distanceToAngleShoulder(int16 x, int16 y){
 236              		.loc 1 44 0
 237              		.cfi_startproc
 238              		@ args = 0, pretend = 0, frame = 0
 239              		@ frame_needed = 0, uses_anonymous_args = 0
 240              	.LVL30:
 241 0000 2DE9F84F 		push	{r3, r4, r5, r6, r7, r8, r9, r10, fp, lr}
ARM GAS  C:\Users\Nick\AppData\Local\Temp\cccUBDXf.s 			page 6


 242              		.cfi_def_cfa_offset 40
 243              		.cfi_offset 3, -40
 244              		.cfi_offset 4, -36
 245              		.cfi_offset 5, -32
 246              		.cfi_offset 6, -28
 247              		.cfi_offset 7, -24
 248              		.cfi_offset 8, -20
 249              		.cfi_offset 9, -16
 250              		.cfi_offset 10, -12
 251              		.cfi_offset 11, -8
 252              		.cfi_offset 14, -4
 253 0004 8046     		mov	r8, r0
 254 0006 8946     		mov	r9, r1
  45:.\prelim.c    ****     uint16 S;
  46:.\prelim.c    ****     uint16 E = distanceToAngleElbow(x,y);
 255              		.loc 1 46 0
 256 0008 FFF7FEFF 		bl	distanceToAngleElbow
 257              	.LVL31:
  47:.\prelim.c    ****     S = asin(0.9*sin(E)/sqrt(pow(y,2)+pow(x,2)))+atan(y/x);
 258              		.loc 1 47 0
 259 000c FFF7FEFF 		bl	__aeabi_ui2d
 260              	.LVL32:
 261 0010 FFF7FEFF 		bl	sin
 262              	.LVL33:
 263 0014 20A3     		adr	r3, .L11
 264 0016 D3E90023 		ldrd	r2, [r3]
 265 001a FFF7FEFF 		bl	__aeabi_dmul
 266              	.LVL34:
 267 001e 8246     		mov	r10, r0
 268 0020 8B46     		mov	fp, r1
 269 0022 4846     		mov	r0, r9
 270 0024 FFF7FEFF 		bl	__aeabi_i2d
 271              	.LVL35:
 272 0028 0026     		movs	r6, #0
 273 002a 4FF08047 		mov	r7, #1073741824
 274 002e 3246     		mov	r2, r6
 275 0030 3B46     		mov	r3, r7
 276 0032 FFF7FEFF 		bl	pow
 277              	.LVL36:
 278 0036 0446     		mov	r4, r0
 279 0038 0D46     		mov	r5, r1
 280 003a 4046     		mov	r0, r8
 281 003c FFF7FEFF 		bl	__aeabi_i2d
 282              	.LVL37:
 283 0040 3246     		mov	r2, r6
 284 0042 3B46     		mov	r3, r7
 285 0044 FFF7FEFF 		bl	pow
 286              	.LVL38:
 287 0048 0646     		mov	r6, r0
 288 004a 0F46     		mov	r7, r1
 289 004c 2046     		mov	r0, r4
 290 004e 2946     		mov	r1, r5
 291 0050 3246     		mov	r2, r6
 292 0052 3B46     		mov	r3, r7
 293 0054 FFF7FEFF 		bl	__aeabi_dadd
 294              	.LVL39:
 295 0058 FFF7FEFF 		bl	sqrt
ARM GAS  C:\Users\Nick\AppData\Local\Temp\cccUBDXf.s 			page 7


 296              	.LVL40:
 297 005c 0246     		mov	r2, r0
 298 005e 0B46     		mov	r3, r1
 299 0060 5046     		mov	r0, r10
 300 0062 5946     		mov	r1, fp
 301 0064 FFF7FEFF 		bl	__aeabi_ddiv
 302              	.LVL41:
 303 0068 FFF7FEFF 		bl	asin
 304              	.LVL42:
 305 006c 0446     		mov	r4, r0
 306 006e 0D46     		mov	r5, r1
 307 0070 99FBF8F0 		sdiv	r0, r9, r8
 308 0074 FFF7FEFF 		bl	__aeabi_i2d
 309              	.LVL43:
 310 0078 FFF7FEFF 		bl	atan
 311              	.LVL44:
 312 007c 0246     		mov	r2, r0
 313 007e 0B46     		mov	r3, r1
 314 0080 2046     		mov	r0, r4
 315 0082 2946     		mov	r1, r5
 316 0084 FFF7FEFF 		bl	__aeabi_dadd
 317              	.LVL45:
 318 0088 FFF7FEFF 		bl	__aeabi_d2uiz
 319              	.LVL46:
  48:.\prelim.c    ****     return S;
  49:.\prelim.c    **** }
 320              		.loc 1 49 0
 321 008c 80B2     		uxth	r0, r0
 322 008e BDE8F88F 		pop	{r3, r4, r5, r6, r7, r8, r9, r10, fp, pc}
 323              	.L12:
 324 0092 00BFAFF3 		.align	3
 324      0080
 325              	.L11:
 326 0098 CDCCCCCC 		.word	-858993459
 327 009c CCCCEC3F 		.word	1072483532
 328              		.cfi_endproc
 329              	.LFE66:
 330              		.size	distanceToAngleShoulder, .-distanceToAngleShoulder
 331              		.section	.text.prelim,"ax",%progbits
 332              		.align	2
 333              		.global	prelim
 334              		.thumb
 335              		.thumb_func
 336              		.type	prelim, %function
 337              	prelim:
 338              	.LFB67:
  50:.\prelim.c    **** 
  51:.\prelim.c    **** 
  52:.\prelim.c    **** uint8 prelim()
  53:.\prelim.c    **** {
 339              		.loc 1 53 0
 340              		.cfi_startproc
 341              		@ args = 0, pretend = 0, frame = 0
 342              		@ frame_needed = 0, uses_anonymous_args = 0
 343 0000 2DE9F047 		push	{r4, r5, r6, r7, r8, r9, r10, lr}
 344              		.cfi_def_cfa_offset 32
 345              		.cfi_offset 4, -32
ARM GAS  C:\Users\Nick\AppData\Local\Temp\cccUBDXf.s 			page 8


 346              		.cfi_offset 5, -28
 347              		.cfi_offset 6, -24
 348              		.cfi_offset 7, -20
 349              		.cfi_offset 8, -16
 350              		.cfi_offset 9, -12
 351              		.cfi_offset 10, -8
 352              		.cfi_offset 14, -4
 353              	.LVL47:
  54:.\prelim.c    ****     uint8 state = 0;
  55:.\prelim.c    ****     int pucksPicked = 0;
  56:.\prelim.c    ****     int i = 0;
 354              		.loc 1 56 0
 355 0004 0027     		movs	r7, #0
  55:.\prelim.c    ****     int pucksPicked = 0;
 356              		.loc 1 55 0
 357 0006 B846     		mov	r8, r7
  54:.\prelim.c    ****     uint8 state = 0;
 358              		.loc 1 54 0
 359 0008 3D46     		mov	r5, r7
  57:.\prelim.c    ****     
  58:.\prelim.c    ****     uint8 finalShoulderAngle[] = {};
  59:.\prelim.c    ****     int finalElbowAngle[] = {};
  60:.\prelim.c    ****     int timeLim[] = {};
  61:.\prelim.c    ****     
  62:.\prelim.c    ****     while (1) {
  63:.\prelim.c    ****         switch(state) {
  64:.\prelim.c    ****             case 0: //moving to the arena
  65:.\prelim.c    ****         // changes depending on how much you move 
  66:.\prelim.c    ****         //need to randomise these values
  67:.\prelim.c    ****                 rotateStepCW(timeLim[i]); // Rotate away from home a bit
  68:.\prelim.c    **** 
  69:.\prelim.c    ****                 while ((getElbowPos()< finalElbowAngle[i]) || (getShoulderPos() < finalShoulderAngl
  70:.\prelim.c    ****                     elbowUpStep(); // Increases elbow "angle" a bit
  71:.\prelim.c    ****                     shoulderDownStep(); // Decreases shoulder "angle" a bit  
  72:.\prelim.c    ****                 } 
  73:.\prelim.c    ****                     //CyDelay(500); 
  74:.\prelim.c    ****                 state++;
  75:.\prelim.c    ****             case 1: //move to ground
  76:.\prelim.c    ****                 while (angleToDistanceElbow(getElbowPos(), getShoulderPos()) < DISTANCE_FROM_GROUND
  77:.\prelim.c    ****                     elbowDownStep();
  78:.\prelim.c    ****                     shoulderDownStep();
  79:.\prelim.c    ****                 }
  80:.\prelim.c    ****                 //CyDelay(500); 
  81:.\prelim.c    ****                 state++;
  82:.\prelim.c    ****             case 2: // turn on fan 
  83:.\prelim.c    ****                Fan_Write(1); // Fan on
  84:.\prelim.c    ****             case 3: // lift
  85:.\prelim.c    ****                 elbowUpStep();
  86:.\prelim.c    ****                 shoulderUpStep();
  87:.\prelim.c    ****                 //CyDelay(500); 
  88:.\prelim.c    ****                 state++;
  89:.\prelim.c    ****             case 4: //retract arm
  90:.\prelim.c    ****                 elbowGoToPos(HOME_ANGLE_E);
  91:.\prelim.c    ****                 shoulderGoToPos(HOME_ANGLE_S);
  92:.\prelim.c    ****                 //CyDelay(500); 
  93:.\prelim.c    ****                 state++;
  94:.\prelim.c    ****             case 5: //move to home
ARM GAS  C:\Users\Nick\AppData\Local\Temp\cccUBDXf.s 			page 9


  95:.\prelim.c    ****                 rotateToHome(); // Rotates until microswitch clicked and in home position
  96:.\prelim.c    ****                 //CyDelay(500); 
  97:.\prelim.c    ****                 state++;
  98:.\prelim.c    ****             case 6:// drop puck
  99:.\prelim.c    ****                 while (1) {
 100:.\prelim.c    ****                     if (MicroSwitch_Read() == 1) {
 101:.\prelim.c    ****                         break;
 102:.\prelim.c    ****                     }
 103:.\prelim.c    ****                     else {
 104:.\prelim.c    ****                         CyDelay(300);
 360              		.loc 1 104 0
 361 000a 4FF49674 		mov	r4, #300
 105:.\prelim.c    ****                     }
 106:.\prelim.c    ****                 }
 107:.\prelim.c    ****                 Fan_Write(0);
 362              		.loc 1 107 0
 363 000e B946     		mov	r9, r7
  83:.\prelim.c    ****                Fan_Write(1); // Fan on
 364              		.loc 1 83 0
 365 0010 4FF0010A 		mov	r10, #1
 366              	.LVL48:
 367              	.L35:
  63:.\prelim.c    ****         switch(state) {
 368              		.loc 1 63 0
 369 0014 072D     		cmp	r5, #7
 370 0016 FDD8     		bhi	.L35
 371 0018 DFE805F0 		tbb	[pc, r5]
 372              	.L17:
 373 001c 04       		.byte	(.L16-.L17)/2
 374 001d 20       		.byte	(.L36-.L17)/2
 375 001e 2D       		.byte	(.L19-.L17)/2
 376 001f 30       		.byte	(.L20-.L17)/2
 377 0020 36       		.byte	(.L21-.L17)/2
 378 0021 3E       		.byte	(.L22-.L17)/2
 379 0022 42       		.byte	(.L38-.L17)/2
 380 0023 5C       		.byte	(.L37-.L17)/2
 381              		.p2align 1
 382              	.L16:
  67:.\prelim.c    ****                 rotateStepCW(timeLim[i]); // Rotate away from home a bit
 383              		.loc 1 67 0
 384 0024 3DF82700 		ldrh	r0, [sp, r7, lsl #2]
 385 0028 FFF7FEFF 		bl	rotateStepCW
 386              	.LVL49:
  69:.\prelim.c    ****                 while ((getElbowPos()< finalElbowAngle[i]) || (getShoulderPos() < finalShoulderAngl
 387              		.loc 1 69 0
 388 002c 03E0     		b	.L25
 389              	.L26:
  70:.\prelim.c    ****                     elbowUpStep(); // Increases elbow "angle" a bit
 390              		.loc 1 70 0
 391 002e FFF7FEFF 		bl	elbowUpStep
 392              	.LVL50:
  71:.\prelim.c    ****                     shoulderDownStep(); // Decreases shoulder "angle" a bit  
 393              		.loc 1 71 0
 394 0032 FFF7FEFF 		bl	shoulderDownStep
 395              	.LVL51:
 396              	.L25:
  69:.\prelim.c    ****                 while ((getElbowPos()< finalElbowAngle[i]) || (getShoulderPos() < finalShoulderAngl
ARM GAS  C:\Users\Nick\AppData\Local\Temp\cccUBDXf.s 			page 10


 397              		.loc 1 69 0 discriminator 1
 398 0036 FFF7FEFF 		bl	getElbowPos
 399              	.LVL52:
 400 003a 5DF82730 		ldr	r3, [sp, r7, lsl #2]
 401 003e 9842     		cmp	r0, r3
 402 0040 F5DB     		blt	.L26
  69:.\prelim.c    ****                 while ((getElbowPos()< finalElbowAngle[i]) || (getShoulderPos() < finalShoulderAngl
 403              		.loc 1 69 0 is_stmt 0 discriminator 2
 404 0042 FFF7FEFF 		bl	getShoulderPos
 405              	.LVL53:
 406 0046 1DF80730 		ldrb	r3, [sp, r7]	@ zero_extendqisi2
 407 004a 9842     		cmp	r0, r3
 408 004c EFDB     		blt	.L26
  74:.\prelim.c    ****                 state++;
 409              		.loc 1 74 0 is_stmt 1
 410 004e 0135     		adds	r5, r5, #1
 411              	.LVL54:
 412 0050 EDB2     		uxtb	r5, r5
 413              	.LVL55:
 414 0052 03E0     		b	.L36
 415              	.LVL56:
 416              	.L28:
  77:.\prelim.c    ****                     elbowDownStep();
 417              		.loc 1 77 0
 418 0054 FFF7FEFF 		bl	elbowDownStep
 419              	.LVL57:
  78:.\prelim.c    ****                     shoulderDownStep();
 420              		.loc 1 78 0
 421 0058 FFF7FEFF 		bl	shoulderDownStep
 422              	.LVL58:
 423              	.L36:
  76:.\prelim.c    ****                 while (angleToDistanceElbow(getElbowPos(), getShoulderPos()) < DISTANCE_FROM_GROUND
 424              		.loc 1 76 0 discriminator 1
 425 005c FFF7FEFF 		bl	getElbowPos
 426              	.LVL59:
 427 0060 0646     		mov	r6, r0
 428 0062 FFF7FEFF 		bl	getShoulderPos
 429              	.LVL60:
 430 0066 0146     		mov	r1, r0
 431 0068 3046     		mov	r0, r6
 432 006a FFF7FEFF 		bl	angleToDistanceElbow
 433              	.LVL61:
 434 006e 0028     		cmp	r0, #0
 435 0070 F0D0     		beq	.L28
  81:.\prelim.c    ****                 state++;
 436              		.loc 1 81 0
 437 0072 0135     		adds	r5, r5, #1
 438 0074 EDB2     		uxtb	r5, r5
 439              	.LVL62:
 440              	.L19:
  83:.\prelim.c    ****                Fan_Write(1); // Fan on
 441              		.loc 1 83 0
 442 0076 5046     		mov	r0, r10
 443 0078 FFF7FEFF 		bl	Fan_Write
 444              	.LVL63:
 445              	.L20:
  85:.\prelim.c    ****                 elbowUpStep();
ARM GAS  C:\Users\Nick\AppData\Local\Temp\cccUBDXf.s 			page 11


 446              		.loc 1 85 0
 447 007c FFF7FEFF 		bl	elbowUpStep
 448              	.LVL64:
  86:.\prelim.c    ****                 shoulderUpStep();
 449              		.loc 1 86 0
 450 0080 FFF7FEFF 		bl	shoulderUpStep
 451              	.LVL65:
  88:.\prelim.c    ****                 state++;
 452              		.loc 1 88 0
 453 0084 0135     		adds	r5, r5, #1
 454              	.LVL66:
 455 0086 EDB2     		uxtb	r5, r5
 456              	.LVL67:
 457              	.L21:
  90:.\prelim.c    ****                 elbowGoToPos(HOME_ANGLE_E);
 458              		.loc 1 90 0
 459 0088 2D20     		movs	r0, #45
 460 008a FFF7FEFF 		bl	elbowGoToPos
 461              	.LVL68:
  91:.\prelim.c    ****                 shoulderGoToPos(HOME_ANGLE_S);
 462              		.loc 1 91 0
 463 008e 1420     		movs	r0, #20
 464 0090 FFF7FEFF 		bl	shoulderGoToPos
 465              	.LVL69:
  93:.\prelim.c    ****                 state++;
 466              		.loc 1 93 0
 467 0094 0135     		adds	r5, r5, #1
 468              	.LVL70:
 469 0096 EDB2     		uxtb	r5, r5
 470              	.LVL71:
 471              	.L22:
  95:.\prelim.c    ****                 rotateToHome(); // Rotates until microswitch clicked and in home position
 472              		.loc 1 95 0
 473 0098 FFF7FEFF 		bl	rotateToHome
 474              	.LVL72:
  97:.\prelim.c    ****                 state++;
 475              		.loc 1 97 0
 476 009c 0135     		adds	r5, r5, #1
 477              	.LVL73:
 478 009e EDB2     		uxtb	r5, r5
 479              	.LVL74:
 480              	.L38:
 100:.\prelim.c    ****                     if (MicroSwitch_Read() == 1) {
 481              		.loc 1 100 0
 482 00a0 FFF7FEFF 		bl	MicroSwitch_Read
 483              	.LVL75:
 484 00a4 0128     		cmp	r0, #1
 485 00a6 03D0     		beq	.L29
 104:.\prelim.c    ****                         CyDelay(300);
 486              		.loc 1 104 0
 487 00a8 2046     		mov	r0, r4
 488 00aa FFF7FEFF 		bl	CyDelay
 489              	.LVL76:
 106:.\prelim.c    ****                 }
 490              		.loc 1 106 0
 491 00ae F7E7     		b	.L38
 492              	.L29:
ARM GAS  C:\Users\Nick\AppData\Local\Temp\cccUBDXf.s 			page 12


 493              		.loc 1 107 0
 494 00b0 4846     		mov	r0, r9
 495 00b2 FFF7FEFF 		bl	Fan_Write
 496              	.LVL77:
 108:.\prelim.c    ****                 pucksPicked++;
 497              		.loc 1 108 0
 498 00b6 08F10108 		add	r8, r8, #1
 499              	.LVL78:
 109:.\prelim.c    ****                 if (pucksPicked<20){
 500              		.loc 1 109 0
 501 00ba B8F1130F 		cmp	r8, #19
 502 00be 02DC     		bgt	.L31
 110:.\prelim.c    ****                     i++;
 503              		.loc 1 110 0
 504 00c0 0137     		adds	r7, r7, #1
 505              	.LVL79:
 111:.\prelim.c    ****                     state = 0;                    
 506              		.loc 1 111 0
 507 00c2 4D46     		mov	r5, r9
 508 00c4 06E0     		b	.L37
 509              	.LVL80:
 510              	.L31:
 112:.\prelim.c    ****                 }
 113:.\prelim.c    ****                 else {
 114:.\prelim.c    ****                     state++;
 511              		.loc 1 114 0
 512 00c6 0135     		adds	r5, r5, #1
 513 00c8 EDB2     		uxtb	r5, r5
 514              	.LVL81:
 515 00ca 03E0     		b	.L37
 516              	.LVL82:
 517              	.L34:
 115:.\prelim.c    ****                 }
 116:.\prelim.c    ****                 //CyDelay(500);
 117:.\prelim.c    ****             case 7: 
 118:.\prelim.c    ****                 while ((getElbowPos() > 0) && (getShoulderPos() > 90)) {
 119:.\prelim.c    ****                     shoulderUpStep();
 518              		.loc 1 119 0
 519 00cc FFF7FEFF 		bl	shoulderUpStep
 520              	.LVL83:
 120:.\prelim.c    ****                     elbowDownStep();
 521              		.loc 1 120 0
 522 00d0 FFF7FEFF 		bl	elbowDownStep
 523              	.LVL84:
 524              	.L37:
 118:.\prelim.c    ****                 while ((getElbowPos() > 0) && (getShoulderPos() > 90)) {
 525              		.loc 1 118 0 discriminator 1
 526 00d4 FFF7FEFF 		bl	getElbowPos
 527              	.LVL85:
 528 00d8 0028     		cmp	r0, #0
 529 00da 9BDD     		ble	.L35
 118:.\prelim.c    ****                 while ((getElbowPos() > 0) && (getShoulderPos() > 90)) {
 530              		.loc 1 118 0 is_stmt 0 discriminator 2
 531 00dc FFF7FEFF 		bl	getShoulderPos
 532              	.LVL86:
 533 00e0 5A28     		cmp	r0, #90
 534 00e2 F3DC     		bgt	.L34
ARM GAS  C:\Users\Nick\AppData\Local\Temp\cccUBDXf.s 			page 13


 535 00e4 96E7     		b	.L35
 536              		.cfi_endproc
 537              	.LFE67:
 538              		.size	prelim, .-prelim
 539              		.global	length
 540              		.global	width
 541              		.comm	Camera_framebuffer,50688,4
 542 00e6 00BF     		.data
 543              		.align	2
 544              		.type	length, %object
 545              		.size	length, 20
 546              	length:
 547 0000 A2       		.byte	-94
 548 0001 83       		.byte	-125
 549 0002 45       		.byte	69
 550 0003 6A       		.byte	106
 551 0004 2E       		.byte	46
 552 0005 99       		.byte	-103
 553 0006 41       		.byte	65
 554 0007 9C       		.byte	-100
 555 0008 79       		.byte	121
 556 0009 31       		.byte	49
 557 000a 9A       		.byte	-102
 558 000b 44       		.byte	68
 559 000c 8D       		.byte	-115
 560 000d 3B       		.byte	59
 561 000e 49       		.byte	73
 562 000f 66       		.byte	102
 563 0010 80       		.byte	-128
 564 0011 96       		.byte	-106
 565 0012 74       		.byte	116
 566 0013 4E       		.byte	78
 567              		.type	width, %object
 568              		.size	width, 20
 569              	width:
 570 0014 1D       		.byte	29
 571 0015 4C       		.byte	76
 572 0016 41       		.byte	65
 573 0017 F5       		.byte	-11
 574 0018 03       		.byte	3
 575 0019 40       		.byte	64
 576 001a 13       		.byte	19
 577 001b 45       		.byte	69
 578 001c 3B       		.byte	59
 579 001d 21       		.byte	33
 580 001e 57       		.byte	87
 581 001f E4       		.byte	-28
 582 0020 41       		.byte	65
 583 0021 F8       		.byte	-8
 584 0022 51       		.byte	81
 585 0023 22       		.byte	34
 586 0024 14       		.byte	20
 587 0025 FC       		.byte	-4
 588 0026 F0       		.byte	-16
 589 0027 57       		.byte	87
 590              		.text
 591              	.Letext0:
ARM GAS  C:\Users\Nick\AppData\Local\Temp\cccUBDXf.s 			page 14


 592              		.file 2 "c:\\program files (x86)\\cypress\\psoc creator\\3.2\\psoc creator\\import\\gnu\\arm\\4.8.
 593              		.file 3 "c:\\program files (x86)\\cypress\\psoc creator\\3.2\\psoc creator\\import\\gnu\\arm\\4.8.
 594              		.file 4 "Generated_Source\\PSoC5/cytypes.h"
 595              		.file 5 "Generated_Source\\PSoC5/core_cm3.h"
 596              		.file 6 "Generated_Source\\PSoC5/Camera.h"
 597              		.file 7 "c:\\program files (x86)\\cypress\\psoc creator\\3.2\\psoc creator\\import\\gnu\\arm\\4.8.
 598              		.file 8 ".\\motion.h"
 599              		.file 9 "Generated_Source\\PSoC5/Fan.h"
 600              		.file 10 "Generated_Source\\PSoC5/CyLib.h"
 601              		.file 11 "Generated_Source\\PSoC5/MicroSwitch.h"