ARM GAS  C:\Users\Nick\AppData\Local\Temp\cctcbkFa.s 			page 1


   1              		.syntax unified
   2              		.cpu cortex-m3
   3              		.fpu softvfp
   4              		.eabi_attribute 20, 1
   5              		.eabi_attribute 21, 1
   6              		.eabi_attribute 23, 3
   7              		.eabi_attribute 24, 1
   8              		.eabi_attribute 25, 1
   9              		.eabi_attribute 26, 1
  10              		.eabi_attribute 30, 1
  11              		.eabi_attribute 34, 1
  12              		.eabi_attribute 18, 4
  13              		.thumb
  14              		.file	"sensors.c"
  15              		.text
  16              	.Ltext0:
  17              		.cfi_sections	.debug_frame
  18              		.section	.text.UsSensorTrigger,"ax",%progbits
  19              		.align	2
  20              		.global	UsSensorTrigger
  21              		.thumb
  22              		.thumb_func
  23              		.type	UsSensorTrigger, %function
  24              	UsSensorTrigger:
  25              	.LFB63:
  26              		.file 1 ".\\sensors.c"
   1:.\sensors.c   **** #include <project.h>
   2:.\sensors.c   **** #include "main.h"
   3:.\sensors.c   **** 
   4:.\sensors.c   **** uint32 rc;
   5:.\sensors.c   **** uint32 dist;
   6:.\sensors.c   **** 
   7:.\sensors.c   **** void UsSensorTrigger() {
  27              		.loc 1 7 0
  28              		.cfi_startproc
  29              		@ args = 0, pretend = 0, frame = 0
  30              		@ frame_needed = 0, uses_anonymous_args = 0
  31 0000 08B5     		push	{r3, lr}
  32              		.cfi_def_cfa_offset 8
  33              		.cfi_offset 3, -8
  34              		.cfi_offset 14, -4
   8:.\sensors.c   ****     UsTimer_DisableTrigger();
  35              		.loc 1 8 0
  36 0002 FFF7FEFF 		bl	UsTimer_DisableTrigger
  37              	.LVL0:
   9:.\sensors.c   ****     UsTimer_ReadStatusRegister();
  38              		.loc 1 9 0
  39 0006 FFF7FEFF 		bl	UsTimer_ReadStatusRegister
  40              	.LVL1:
  10:.\sensors.c   ****     rc = UsTimer_ReadCapture();
  41              		.loc 1 10 0
  42 000a FFF7FEFF 		bl	UsTimer_ReadCapture
  43              	.LVL2:
  44 000e 124B     		ldr	r3, .L2
  45 0010 1860     		str	r0, [r3]
  11:.\sensors.c   ****     dist = (38000 - rc) * 10 / 58;
  46              		.loc 1 11 0
ARM GAS  C:\Users\Nick\AppData\Local\Temp\cctcbkFa.s 			page 2


  47 0012 6FF00903 		mvn	r3, #9
  48 0016 03FB00F0 		mul	r0, r3, r0
  49 001a 00F5B920 		add	r0, r0, #378880
  50 001e 00F58C60 		add	r0, r0, #1120
  51 0022 0E4B     		ldr	r3, .L2+4
  52 0024 A3FB0020 		umull	r2, r0, r3, r0
  53 0028 4009     		lsrs	r0, r0, #5
  54 002a 0D4B     		ldr	r3, .L2+8
  55 002c 1860     		str	r0, [r3]
  12:.\sensors.c   ****     
  13:.\sensors.c   ****     LedYellow_Write(!LedYellow_Read());
  56              		.loc 1 13 0
  57 002e FFF7FEFF 		bl	LedYellow_Read
  58              	.LVL3:
  59 0032 D0F10100 		rsbs	r0, r0, #1
  60 0036 38BF     		it	cc
  61 0038 0020     		movcc	r0, #0
  62 003a FFF7FEFF 		bl	LedYellow_Write
  63              	.LVL4:
  14:.\sensors.c   ****     
  15:.\sensors.c   **** //    CyDelay(500);
  16:.\sensors.c   ****     
  17:.\sensors.c   ****     UsTimer_ClearFIFO();
  64              		.loc 1 17 0
  65 003e FFF7FEFF 		bl	UsTimer_ClearFIFO
  66              	.LVL5:
  18:.\sensors.c   ****     UsTimer_WritePeriod(UsTimer_INIT_PERIOD);
  67              		.loc 1 18 0
  68 0042 49F26F40 		movw	r0, #37999
  69 0046 FFF7FEFF 		bl	UsTimer_WritePeriod
  70              	.LVL6:
  19:.\sensors.c   ****     UsTimer_WriteCounter(UsTimer_INIT_PERIOD);
  71              		.loc 1 19 0
  72 004a 49F26F40 		movw	r0, #37999
  73 004e FFF7FEFF 		bl	UsTimer_WriteCounter
  74              	.LVL7:
  20:.\sensors.c   ****     UsTimer_EnableTrigger();
  75              		.loc 1 20 0
  76 0052 FFF7FEFF 		bl	UsTimer_EnableTrigger
  77              	.LVL8:
  78 0056 08BD     		pop	{r3, pc}
  79              	.L3:
  80              		.align	2
  81              	.L2:
  82 0058 00000000 		.word	rc
  83 005c 09CB3D8D 		.word	-1925330167
  84 0060 00000000 		.word	dist
  85              		.cfi_endproc
  86              	.LFE63:
  87              		.size	UsSensorTrigger, .-UsSensorTrigger
  88              		.section	.text.getDist,"ax",%progbits
  89              		.align	2
  90              		.global	getDist
  91              		.thumb
  92              		.thumb_func
  93              		.type	getDist, %function
  94              	getDist:
ARM GAS  C:\Users\Nick\AppData\Local\Temp\cctcbkFa.s 			page 3


  95              	.LFB64:
  21:.\sensors.c   **** }
  22:.\sensors.c   **** 
  23:.\sensors.c   **** uint16 getDist() {
  96              		.loc 1 23 0
  97              		.cfi_startproc
  98              		@ args = 0, pretend = 0, frame = 0
  99              		@ frame_needed = 0, uses_anonymous_args = 0
 100              		@ link register save eliminated.
  24:.\sensors.c   ****     return dist;
  25:.\sensors.c   **** }
 101              		.loc 1 25 0
 102 0000 014B     		ldr	r3, .L5
 103 0002 1888     		ldrh	r0, [r3]
 104 0004 7047     		bx	lr
 105              	.L6:
 106 0006 00BF     		.align	2
 107              	.L5:
 108 0008 00000000 		.word	dist
 109              		.cfi_endproc
 110              	.LFE64:
 111              		.size	getDist, .-getDist
 112              		.section	.text.drawDistToLcd,"ax",%progbits
 113              		.align	2
 114              		.global	drawDistToLcd
 115              		.thumb
 116              		.thumb_func
 117              		.type	drawDistToLcd, %function
 118              	drawDistToLcd:
 119              	.LFB65:
  26:.\sensors.c   **** 
  27:.\sensors.c   **** void drawDistToLcd() {
 120              		.loc 1 27 0
 121              		.cfi_startproc
 122              		@ args = 0, pretend = 0, frame = 0
 123              		@ frame_needed = 0, uses_anonymous_args = 0
 124 0000 08B5     		push	{r3, lr}
 125              		.cfi_def_cfa_offset 8
 126              		.cfi_offset 3, -8
 127              		.cfi_offset 14, -4
  28:.\sensors.c   ****     Lcd_ClearDisplay();
 128              		.loc 1 28 0
 129 0002 0120     		movs	r0, #1
 130 0004 FFF7FEFF 		bl	Lcd_WriteControl
 131              	.LVL9:
  29:.\sensors.c   ****     Lcd_Position(0,0);
 132              		.loc 1 29 0
 133 0008 0020     		movs	r0, #0
 134 000a 0146     		mov	r1, r0
 135 000c FFF7FEFF 		bl	Lcd_Position
 136              	.LVL10:
  30:.\sensors.c   ****     Lcd_PrintDecUint16((uint16) rc);
 137              		.loc 1 30 0
 138 0010 064B     		ldr	r3, .L8
 139 0012 1888     		ldrh	r0, [r3]
 140 0014 FFF7FEFF 		bl	Lcd_PrintNumber
 141              	.LVL11:
ARM GAS  C:\Users\Nick\AppData\Local\Temp\cctcbkFa.s 			page 4


  31:.\sensors.c   ****     Lcd_Position(1,0);
 142              		.loc 1 31 0
 143 0018 0120     		movs	r0, #1
 144 001a 0021     		movs	r1, #0
 145 001c FFF7FEFF 		bl	Lcd_Position
 146              	.LVL12:
  32:.\sensors.c   ****     Lcd_PrintDecUint16((uint16) dist);
 147              		.loc 1 32 0
 148 0020 034B     		ldr	r3, .L8+4
 149 0022 1888     		ldrh	r0, [r3]
 150 0024 FFF7FEFF 		bl	Lcd_PrintNumber
 151              	.LVL13:
 152 0028 08BD     		pop	{r3, pc}
 153              	.L9:
 154 002a 00BF     		.align	2
 155              	.L8:
 156 002c 00000000 		.word	rc
 157 0030 00000000 		.word	dist
 158              		.cfi_endproc
 159              	.LFE65:
 160              		.size	drawDistToLcd, .-drawDistToLcd
 161              		.section	.text.getColour,"ax",%progbits
 162              		.align	2
 163              		.global	getColour
 164              		.thumb
 165              		.thumb_func
 166              		.type	getColour, %function
 167              	getColour:
 168              	.LFB66:
  33:.\sensors.c   **** }
  34:.\sensors.c   **** 
  35:.\sensors.c   **** 
  36:.\sensors.c   **** void getColour() {
 169              		.loc 1 36 0
 170              		.cfi_startproc
 171              		@ args = 0, pretend = 0, frame = 0
 172              		@ frame_needed = 0, uses_anonymous_args = 0
 173 0000 10B5     		push	{r4, lr}
 174              		.cfi_def_cfa_offset 8
 175              		.cfi_offset 4, -8
 176              		.cfi_offset 14, -4
  37:.\sensors.c   ****     ADC_Start();
 177              		.loc 1 37 0
 178 0002 FFF7FEFF 		bl	ADC_Start
 179              	.LVL14:
  38:.\sensors.c   ****     ADC_StartConvert();
 180              		.loc 1 38 0
 181 0006 FFF7FEFF 		bl	ADC_StartConvert
 182              	.LVL15:
  39:.\sensors.c   ****     AMux_Select(AMUX_COLOUR_1);
 183              		.loc 1 39 0
 184 000a 0220     		movs	r0, #2
 185 000c FFF7FEFF 		bl	AMux_FastSelect
 186              	.LVL16:
  40:.\sensors.c   ****     ADC_IsEndConversion(ADC_WAIT_FOR_RESULT);
 187              		.loc 1 40 0
 188 0010 0020     		movs	r0, #0
ARM GAS  C:\Users\Nick\AppData\Local\Temp\cctcbkFa.s 			page 5


 189 0012 FFF7FEFF 		bl	ADC_IsEndConversion
 190              	.LVL17:
  41:.\sensors.c   ****     
  42:.\sensors.c   ****     int16 result = ADC_GetResult16();
 191              		.loc 1 42 0
 192 0016 FFF7FEFF 		bl	ADC_GetResult16
 193              	.LVL18:
  43:.\sensors.c   ****     
  44:.\sensors.c   ****     //this is if the result matches up with ambient lighting
  45:.\sensors.c   ****     if(result == 0){
 194              		.loc 1 45 0
 195 001a 0446     		mov	r4, r0
 196 001c A0B9     		cbnz	r0, .L11
  46:.\sensors.c   ****         Lcd_ClearDisplay();
 197              		.loc 1 46 0
 198 001e 0120     		movs	r0, #1
 199              	.LVL19:
 200 0020 FFF7FEFF 		bl	Lcd_WriteControl
 201              	.LVL20:
  47:.\sensors.c   ****         Lcd_WriteControl(Lcd_CLEAR_DISPLAY);
 202              		.loc 1 47 0
 203 0024 0120     		movs	r0, #1
 204 0026 FFF7FEFF 		bl	Lcd_WriteControl
 205              	.LVL21:
  48:.\sensors.c   ****         Lcd_Position(0,0);
 206              		.loc 1 48 0
 207 002a 0020     		movs	r0, #0
 208 002c 0146     		mov	r1, r0
 209 002e FFF7FEFF 		bl	Lcd_Position
 210              	.LVL22:
  49:.\sensors.c   ****         Lcd_PrintDecUint16(result);
 211              		.loc 1 49 0
 212 0032 A0B2     		uxth	r0, r4
 213 0034 FFF7FEFF 		bl	Lcd_PrintNumber
 214              	.LVL23:
  50:.\sensors.c   ****         Lcd_PosPrintString(1,0, "AMBIENT");
 215              		.loc 1 50 0
 216 0038 0120     		movs	r0, #1
 217 003a 0021     		movs	r1, #0
 218 003c FFF7FEFF 		bl	Lcd_Position
 219              	.LVL24:
 220 0040 2D48     		ldr	r0, .L16
 221 0042 FFF7FEFF 		bl	Lcd_PrintString
 222              	.LVL25:
 223 0046 10BD     		pop	{r4, pc}
 224              	.LVL26:
 225              	.L11:
  51:.\sensors.c   ****     }
  52:.\sensors.c   ****     //this is if the result matches up with picking up red light
  53:.\sensors.c   ****     else if(result == 0){
 226              		.loc 1 53 0
 227 0048 A0B9     		cbnz	r0, .L13
  54:.\sensors.c   ****         Lcd_ClearDisplay();
 228              		.loc 1 54 0
 229 004a 0120     		movs	r0, #1
 230              	.LVL27:
 231 004c FFF7FEFF 		bl	Lcd_WriteControl
ARM GAS  C:\Users\Nick\AppData\Local\Temp\cctcbkFa.s 			page 6


 232              	.LVL28:
  55:.\sensors.c   ****         Lcd_WriteControl(Lcd_CLEAR_DISPLAY);
 233              		.loc 1 55 0
 234 0050 0120     		movs	r0, #1
 235 0052 FFF7FEFF 		bl	Lcd_WriteControl
 236              	.LVL29:
  56:.\sensors.c   ****         Lcd_Position(0,0);
 237              		.loc 1 56 0
 238 0056 0020     		movs	r0, #0
 239 0058 0146     		mov	r1, r0
 240 005a FFF7FEFF 		bl	Lcd_Position
 241              	.LVL30:
  57:.\sensors.c   ****         Lcd_PrintDecUint16(result);
 242              		.loc 1 57 0
 243 005e A0B2     		uxth	r0, r4
 244 0060 FFF7FEFF 		bl	Lcd_PrintNumber
 245              	.LVL31:
  58:.\sensors.c   ****         Lcd_PosPrintString(1,0, "RED");
 246              		.loc 1 58 0
 247 0064 0120     		movs	r0, #1
 248 0066 0021     		movs	r1, #0
 249 0068 FFF7FEFF 		bl	Lcd_Position
 250              	.LVL32:
 251 006c 2348     		ldr	r0, .L16+4
 252 006e FFF7FEFF 		bl	Lcd_PrintString
 253              	.LVL33:
 254 0072 10BD     		pop	{r4, pc}
 255              	.LVL34:
 256              	.L13:
  59:.\sensors.c   ****     }
  60:.\sensors.c   ****     
  61:.\sensors.c   ****     //this is if the result matches up with picking up blue light
  62:.\sensors.c   ****     else if(result == 0){
 257              		.loc 1 62 0
 258 0074 A0B9     		cbnz	r0, .L14
  63:.\sensors.c   ****         Lcd_ClearDisplay();
 259              		.loc 1 63 0
 260 0076 0120     		movs	r0, #1
 261              	.LVL35:
 262 0078 FFF7FEFF 		bl	Lcd_WriteControl
 263              	.LVL36:
  64:.\sensors.c   ****         Lcd_WriteControl(Lcd_CLEAR_DISPLAY);
 264              		.loc 1 64 0
 265 007c 0120     		movs	r0, #1
 266 007e FFF7FEFF 		bl	Lcd_WriteControl
 267              	.LVL37:
  65:.\sensors.c   ****         Lcd_Position(0,0);
 268              		.loc 1 65 0
 269 0082 0020     		movs	r0, #0
 270 0084 0146     		mov	r1, r0
 271 0086 FFF7FEFF 		bl	Lcd_Position
 272              	.LVL38:
  66:.\sensors.c   ****         Lcd_PrintDecUint16(result);
 273              		.loc 1 66 0
 274 008a A0B2     		uxth	r0, r4
 275 008c FFF7FEFF 		bl	Lcd_PrintNumber
 276              	.LVL39:
ARM GAS  C:\Users\Nick\AppData\Local\Temp\cctcbkFa.s 			page 7


  67:.\sensors.c   ****         Lcd_PosPrintString(1,0, "BLUE");
 277              		.loc 1 67 0
 278 0090 0120     		movs	r0, #1
 279 0092 0021     		movs	r1, #0
 280 0094 FFF7FEFF 		bl	Lcd_Position
 281              	.LVL40:
 282 0098 1948     		ldr	r0, .L16+8
 283 009a FFF7FEFF 		bl	Lcd_PrintString
 284              	.LVL41:
 285 009e 10BD     		pop	{r4, pc}
 286              	.LVL42:
 287              	.L14:
  68:.\sensors.c   ****     }
  69:.\sensors.c   ****     
  70:.\sensors.c   ****     //this is if the result matches up with picking up green light
  71:.\sensors.c   ****     else if(result == 0){
 288              		.loc 1 71 0
 289 00a0 A0B9     		cbnz	r0, .L15
  72:.\sensors.c   ****         Lcd_ClearDisplay();
 290              		.loc 1 72 0
 291 00a2 0120     		movs	r0, #1
 292              	.LVL43:
 293 00a4 FFF7FEFF 		bl	Lcd_WriteControl
 294              	.LVL44:
  73:.\sensors.c   ****         Lcd_WriteControl(Lcd_CLEAR_DISPLAY);
 295              		.loc 1 73 0
 296 00a8 0120     		movs	r0, #1
 297 00aa FFF7FEFF 		bl	Lcd_WriteControl
 298              	.LVL45:
  74:.\sensors.c   ****         Lcd_Position(0,0);
 299              		.loc 1 74 0
 300 00ae 0020     		movs	r0, #0
 301 00b0 0146     		mov	r1, r0
 302 00b2 FFF7FEFF 		bl	Lcd_Position
 303              	.LVL46:
  75:.\sensors.c   ****         Lcd_PrintDecUint16(result);
 304              		.loc 1 75 0
 305 00b6 A0B2     		uxth	r0, r4
 306 00b8 FFF7FEFF 		bl	Lcd_PrintNumber
 307              	.LVL47:
  76:.\sensors.c   ****         Lcd_PosPrintString(1,0, "GREEN");
 308              		.loc 1 76 0
 309 00bc 0120     		movs	r0, #1
 310 00be 0021     		movs	r1, #0
 311 00c0 FFF7FEFF 		bl	Lcd_Position
 312              	.LVL48:
 313 00c4 0F48     		ldr	r0, .L16+12
 314 00c6 FFF7FEFF 		bl	Lcd_PrintString
 315              	.LVL49:
 316 00ca 10BD     		pop	{r4, pc}
 317              	.LVL50:
 318              	.L15:
  77:.\sensors.c   ****     }
  78:.\sensors.c   ****     //this is a case that has not been explained
  79:.\sensors.c   ****     else {
  80:.\sensors.c   ****         Lcd_ClearDisplay();
 319              		.loc 1 80 0
ARM GAS  C:\Users\Nick\AppData\Local\Temp\cctcbkFa.s 			page 8


 320 00cc 0120     		movs	r0, #1
 321              	.LVL51:
 322 00ce FFF7FEFF 		bl	Lcd_WriteControl
 323              	.LVL52:
  81:.\sensors.c   ****         Lcd_WriteControl(Lcd_CLEAR_DISPLAY);
 324              		.loc 1 81 0
 325 00d2 0120     		movs	r0, #1
 326 00d4 FFF7FEFF 		bl	Lcd_WriteControl
 327              	.LVL53:
  82:.\sensors.c   ****         Lcd_Position(0,0);
 328              		.loc 1 82 0
 329 00d8 0020     		movs	r0, #0
 330 00da 0146     		mov	r1, r0
 331 00dc FFF7FEFF 		bl	Lcd_Position
 332              	.LVL54:
  83:.\sensors.c   ****         Lcd_PrintDecUint16(result);
 333              		.loc 1 83 0
 334 00e0 A0B2     		uxth	r0, r4
 335 00e2 FFF7FEFF 		bl	Lcd_PrintNumber
 336              	.LVL55:
  84:.\sensors.c   ****         Lcd_PosPrintString(1,0, "UMMM....");
 337              		.loc 1 84 0
 338 00e6 0120     		movs	r0, #1
 339 00e8 0021     		movs	r1, #0
 340 00ea FFF7FEFF 		bl	Lcd_Position
 341              	.LVL56:
 342 00ee 0648     		ldr	r0, .L16+16
 343 00f0 FFF7FEFF 		bl	Lcd_PrintString
 344              	.LVL57:
 345 00f4 10BD     		pop	{r4, pc}
 346              	.L17:
 347 00f6 00BF     		.align	2
 348              	.L16:
 349 00f8 00000000 		.word	.LC0
 350 00fc 08000000 		.word	.LC1
 351 0100 0C000000 		.word	.LC2
 352 0104 14000000 		.word	.LC3
 353 0108 1C000000 		.word	.LC4
 354              		.cfi_endproc
 355              	.LFE66:
 356              		.size	getColour, .-getColour
 357              		.comm	dist,4,4
 358              		.comm	rc,4,4
 359              		.comm	Camera_framebuffer,50688,4
 360              		.section	.rodata.str1.4,"aMS",%progbits,1
 361              		.align	2
 362              	.LC0:
 363 0000 414D4249 		.ascii	"AMBIENT\000"
 363      454E5400 
 364              	.LC1:
 365 0008 52454400 		.ascii	"RED\000"
 366              	.LC2:
 367 000c 424C5545 		.ascii	"BLUE\000"
 367      00
 368 0011 000000   		.space	3
 369              	.LC3:
 370 0014 47524545 		.ascii	"GREEN\000"
ARM GAS  C:\Users\Nick\AppData\Local\Temp\cctcbkFa.s 			page 9


 370      4E00
 371 001a 0000     		.space	2
 372              	.LC4:
 373 001c 554D4D4D 		.ascii	"UMMM....\000"
 373      2E2E2E2E 
 373      00
 374 0025 000000   		.text
 375              	.Letext0:
 376              		.file 2 "c:\\program files (x86)\\cypress\\psoc creator\\3.2\\psoc creator\\import\\gnu\\arm\\4.8.
 377              		.file 3 "c:\\program files (x86)\\cypress\\psoc creator\\3.2\\psoc creator\\import\\gnu\\arm\\4.8.
 378              		.file 4 "Generated_Source\\PSoC5/cytypes.h"
 379              		.file 5 "Generated_Source\\PSoC5/core_cm3.h"
 380              		.file 6 "Generated_Source\\PSoC5/Camera.h"
 381              		.file 7 "Generated_Source\\PSoC5/UsTimer.h"
 382              		.file 8 "Generated_Source\\PSoC5/LedYellow.h"
 383              		.file 9 "Generated_Source\\PSoC5/Lcd.h"
 384              		.file 10 "Generated_Source\\PSoC5/ADC.h"
 385              		.file 11 "Generated_Source\\PSoC5/AMux.h"