ARM GAS  C:\Users\Nick\AppData\Local\Temp\ccHirBbv.s 			page 1


   1              		.syntax unified
   2              		.cpu cortex-m3
   3              		.fpu softvfp
   4              		.eabi_attribute 20, 1
   5              		.eabi_attribute 21, 1
   6              		.eabi_attribute 23, 3
   7              		.eabi_attribute 24, 1
   8              		.eabi_attribute 25, 1
   9              		.eabi_attribute 26, 1
  10              		.eabi_attribute 30, 1
  11              		.eabi_attribute 34, 1
  12              		.eabi_attribute 18, 4
  13              		.thumb
  14              		.file	"UsMicroSecs.c"
  15              		.text
  16              	.Ltext0:
  17              		.cfi_sections	.debug_frame
  18              		.section	.text.UsMicroSecs_Write,"ax",%progbits
  19              		.align	2
  20              		.global	UsMicroSecs_Write
  21              		.thumb
  22              		.thumb_func
  23              		.type	UsMicroSecs_Write, %function
  24              	UsMicroSecs_Write:
  25              	.LFB0:
  26              		.file 1 ".\\Generated_Source\\PSoC5\\UsMicroSecs.c"
   1:.\Generated_Source\PSoC5/UsMicroSecs.c **** /*******************************************************************************
   2:.\Generated_Source\PSoC5/UsMicroSecs.c **** * File Name: UsMicroSecs.c  
   3:.\Generated_Source\PSoC5/UsMicroSecs.c **** * Version 2.10
   4:.\Generated_Source\PSoC5/UsMicroSecs.c **** *
   5:.\Generated_Source\PSoC5/UsMicroSecs.c **** * Description:
   6:.\Generated_Source\PSoC5/UsMicroSecs.c **** *  This file contains API to enable firmware control of a Pins component.
   7:.\Generated_Source\PSoC5/UsMicroSecs.c **** *
   8:.\Generated_Source\PSoC5/UsMicroSecs.c **** * Note:
   9:.\Generated_Source\PSoC5/UsMicroSecs.c **** *
  10:.\Generated_Source\PSoC5/UsMicroSecs.c **** ********************************************************************************
  11:.\Generated_Source\PSoC5/UsMicroSecs.c **** * Copyright 2008-2014, Cypress Semiconductor Corporation.  All rights reserved.
  12:.\Generated_Source\PSoC5/UsMicroSecs.c **** * You may use this file only in accordance with the license, terms, conditions, 
  13:.\Generated_Source\PSoC5/UsMicroSecs.c **** * disclaimers, and limitations in the end user license agreement accompanying 
  14:.\Generated_Source\PSoC5/UsMicroSecs.c **** * the software package with which this file was provided.
  15:.\Generated_Source\PSoC5/UsMicroSecs.c **** *******************************************************************************/
  16:.\Generated_Source\PSoC5/UsMicroSecs.c **** 
  17:.\Generated_Source\PSoC5/UsMicroSecs.c **** #include "cytypes.h"
  18:.\Generated_Source\PSoC5/UsMicroSecs.c **** #include "UsMicroSecs.h"
  19:.\Generated_Source\PSoC5/UsMicroSecs.c **** 
  20:.\Generated_Source\PSoC5/UsMicroSecs.c **** /* APIs are not generated for P15[7:6] on PSoC 5 */
  21:.\Generated_Source\PSoC5/UsMicroSecs.c **** #if !(CY_PSOC5A &&\
  22:.\Generated_Source\PSoC5/UsMicroSecs.c **** 	 UsMicroSecs__PORT == 15 && ((UsMicroSecs__MASK & 0xC0) != 0))
  23:.\Generated_Source\PSoC5/UsMicroSecs.c **** 
  24:.\Generated_Source\PSoC5/UsMicroSecs.c **** 
  25:.\Generated_Source\PSoC5/UsMicroSecs.c **** /*******************************************************************************
  26:.\Generated_Source\PSoC5/UsMicroSecs.c **** * Function Name: UsMicroSecs_Write
  27:.\Generated_Source\PSoC5/UsMicroSecs.c **** ********************************************************************************
  28:.\Generated_Source\PSoC5/UsMicroSecs.c **** *
  29:.\Generated_Source\PSoC5/UsMicroSecs.c **** * Summary:
  30:.\Generated_Source\PSoC5/UsMicroSecs.c **** *  Assign a new value to the digital port's data output register.  
  31:.\Generated_Source\PSoC5/UsMicroSecs.c **** *
ARM GAS  C:\Users\Nick\AppData\Local\Temp\ccHirBbv.s 			page 2


  32:.\Generated_Source\PSoC5/UsMicroSecs.c **** * Parameters:  
  33:.\Generated_Source\PSoC5/UsMicroSecs.c **** *  prtValue:  The value to be assigned to the Digital Port. 
  34:.\Generated_Source\PSoC5/UsMicroSecs.c **** *
  35:.\Generated_Source\PSoC5/UsMicroSecs.c **** * Return: 
  36:.\Generated_Source\PSoC5/UsMicroSecs.c **** *  None
  37:.\Generated_Source\PSoC5/UsMicroSecs.c **** *  
  38:.\Generated_Source\PSoC5/UsMicroSecs.c **** *******************************************************************************/
  39:.\Generated_Source\PSoC5/UsMicroSecs.c **** void UsMicroSecs_Write(uint8 value) 
  40:.\Generated_Source\PSoC5/UsMicroSecs.c **** {
  27              		.loc 1 40 0
  28              		.cfi_startproc
  29              		@ args = 0, pretend = 0, frame = 0
  30              		@ frame_needed = 0, uses_anonymous_args = 0
  31              		@ link register save eliminated.
  32              	.LVL0:
  41:.\Generated_Source\PSoC5/UsMicroSecs.c ****     uint8 staticBits = (UsMicroSecs_DR & (uint8)(~UsMicroSecs_MASK));
  33              		.loc 1 41 0
  34 0000 014B     		ldr	r3, .L2
  35 0002 1A78     		ldrb	r2, [r3]	@ zero_extendqisi2
  36              	.LVL1:
  42:.\Generated_Source\PSoC5/UsMicroSecs.c ****     UsMicroSecs_DR = staticBits | ((uint8)(value << UsMicroSecs_SHIFT) & UsMicroSecs_MASK);
  37              		.loc 1 42 0
  38 0004 1870     		strb	r0, [r3]
  39 0006 7047     		bx	lr
  40              	.L3:
  41              		.align	2
  42              	.L2:
  43 0008 10510040 		.word	1073762576
  44              		.cfi_endproc
  45              	.LFE0:
  46              		.size	UsMicroSecs_Write, .-UsMicroSecs_Write
  47              		.section	.text.UsMicroSecs_SetDriveMode,"ax",%progbits
  48              		.align	2
  49              		.global	UsMicroSecs_SetDriveMode
  50              		.thumb
  51              		.thumb_func
  52              		.type	UsMicroSecs_SetDriveMode, %function
  53              	UsMicroSecs_SetDriveMode:
  54              	.LFB1:
  43:.\Generated_Source\PSoC5/UsMicroSecs.c **** }
  44:.\Generated_Source\PSoC5/UsMicroSecs.c **** 
  45:.\Generated_Source\PSoC5/UsMicroSecs.c **** 
  46:.\Generated_Source\PSoC5/UsMicroSecs.c **** /*******************************************************************************
  47:.\Generated_Source\PSoC5/UsMicroSecs.c **** * Function Name: UsMicroSecs_SetDriveMode
  48:.\Generated_Source\PSoC5/UsMicroSecs.c **** ********************************************************************************
  49:.\Generated_Source\PSoC5/UsMicroSecs.c **** *
  50:.\Generated_Source\PSoC5/UsMicroSecs.c **** * Summary:
  51:.\Generated_Source\PSoC5/UsMicroSecs.c **** *  Change the drive mode on the pins of the port.
  52:.\Generated_Source\PSoC5/UsMicroSecs.c **** * 
  53:.\Generated_Source\PSoC5/UsMicroSecs.c **** * Parameters:  
  54:.\Generated_Source\PSoC5/UsMicroSecs.c **** *  mode:  Change the pins to one of the following drive modes.
  55:.\Generated_Source\PSoC5/UsMicroSecs.c **** *
  56:.\Generated_Source\PSoC5/UsMicroSecs.c **** *  UsMicroSecs_DM_STRONG     Strong Drive 
  57:.\Generated_Source\PSoC5/UsMicroSecs.c **** *  UsMicroSecs_DM_OD_HI      Open Drain, Drives High 
  58:.\Generated_Source\PSoC5/UsMicroSecs.c **** *  UsMicroSecs_DM_OD_LO      Open Drain, Drives Low 
  59:.\Generated_Source\PSoC5/UsMicroSecs.c **** *  UsMicroSecs_DM_RES_UP     Resistive Pull Up 
  60:.\Generated_Source\PSoC5/UsMicroSecs.c **** *  UsMicroSecs_DM_RES_DWN    Resistive Pull Down 
ARM GAS  C:\Users\Nick\AppData\Local\Temp\ccHirBbv.s 			page 3


  61:.\Generated_Source\PSoC5/UsMicroSecs.c **** *  UsMicroSecs_DM_RES_UPDWN  Resistive Pull Up/Down 
  62:.\Generated_Source\PSoC5/UsMicroSecs.c **** *  UsMicroSecs_DM_DIG_HIZ    High Impedance Digital 
  63:.\Generated_Source\PSoC5/UsMicroSecs.c **** *  UsMicroSecs_DM_ALG_HIZ    High Impedance Analog 
  64:.\Generated_Source\PSoC5/UsMicroSecs.c **** *
  65:.\Generated_Source\PSoC5/UsMicroSecs.c **** * Return: 
  66:.\Generated_Source\PSoC5/UsMicroSecs.c **** *  None
  67:.\Generated_Source\PSoC5/UsMicroSecs.c **** *
  68:.\Generated_Source\PSoC5/UsMicroSecs.c **** *******************************************************************************/
  69:.\Generated_Source\PSoC5/UsMicroSecs.c **** void UsMicroSecs_SetDriveMode(uint8 mode) 
  70:.\Generated_Source\PSoC5/UsMicroSecs.c **** {
  55              		.loc 1 70 0
  56              		.cfi_startproc
  57              		@ args = 0, pretend = 0, frame = 0
  58              		@ frame_needed = 0, uses_anonymous_args = 0
  59              		@ link register save eliminated.
  60              	.LVL2:
  71:.\Generated_Source\PSoC5/UsMicroSecs.c **** 	CyPins_SetPinDriveMode(UsMicroSecs_0, mode);
  61              		.loc 1 71 0
  62 0000 194B     		ldr	r3, .L5
  63 0002 1A78     		ldrb	r2, [r3]	@ zero_extendqisi2
  64 0004 00F00E00 		and	r0, r0, #14
  65              	.LVL3:
  66 0008 02F0F102 		and	r2, r2, #241
  67 000c 0243     		orrs	r2, r2, r0
  68 000e 1A70     		strb	r2, [r3]
  72:.\Generated_Source\PSoC5/UsMicroSecs.c **** 	CyPins_SetPinDriveMode(UsMicroSecs_1, mode);
  69              		.loc 1 72 0
  70 0010 0133     		adds	r3, r3, #1
  71 0012 1A78     		ldrb	r2, [r3]	@ zero_extendqisi2
  72 0014 02F0F102 		and	r2, r2, #241
  73 0018 0243     		orrs	r2, r2, r0
  74 001a 1A70     		strb	r2, [r3]
  73:.\Generated_Source\PSoC5/UsMicroSecs.c **** 	CyPins_SetPinDriveMode(UsMicroSecs_2, mode);
  75              		.loc 1 73 0
  76 001c 0133     		adds	r3, r3, #1
  77 001e 1A78     		ldrb	r2, [r3]	@ zero_extendqisi2
  78 0020 02F0F102 		and	r2, r2, #241
  79 0024 0243     		orrs	r2, r2, r0
  80 0026 1A70     		strb	r2, [r3]
  74:.\Generated_Source\PSoC5/UsMicroSecs.c **** 	CyPins_SetPinDriveMode(UsMicroSecs_3, mode);
  81              		.loc 1 74 0
  82 0028 0133     		adds	r3, r3, #1
  83 002a 1A78     		ldrb	r2, [r3]	@ zero_extendqisi2
  84 002c 02F0F102 		and	r2, r2, #241
  85 0030 0243     		orrs	r2, r2, r0
  86 0032 1A70     		strb	r2, [r3]
  75:.\Generated_Source\PSoC5/UsMicroSecs.c **** 	CyPins_SetPinDriveMode(UsMicroSecs_4, mode);
  87              		.loc 1 75 0
  88 0034 0133     		adds	r3, r3, #1
  89 0036 1A78     		ldrb	r2, [r3]	@ zero_extendqisi2
  90 0038 02F0F102 		and	r2, r2, #241
  91 003c 0243     		orrs	r2, r2, r0
  92 003e 1A70     		strb	r2, [r3]
  76:.\Generated_Source\PSoC5/UsMicroSecs.c **** 	CyPins_SetPinDriveMode(UsMicroSecs_5, mode);
  93              		.loc 1 76 0
  94 0040 0133     		adds	r3, r3, #1
  95 0042 1A78     		ldrb	r2, [r3]	@ zero_extendqisi2
ARM GAS  C:\Users\Nick\AppData\Local\Temp\ccHirBbv.s 			page 4


  96 0044 02F0F102 		and	r2, r2, #241
  97 0048 0243     		orrs	r2, r2, r0
  98 004a 1A70     		strb	r2, [r3]
  77:.\Generated_Source\PSoC5/UsMicroSecs.c **** 	CyPins_SetPinDriveMode(UsMicroSecs_6, mode);
  99              		.loc 1 77 0
 100 004c 0133     		adds	r3, r3, #1
 101 004e 1A78     		ldrb	r2, [r3]	@ zero_extendqisi2
 102 0050 02F0F102 		and	r2, r2, #241
 103 0054 0243     		orrs	r2, r2, r0
 104 0056 1A70     		strb	r2, [r3]
  78:.\Generated_Source\PSoC5/UsMicroSecs.c **** 	CyPins_SetPinDriveMode(UsMicroSecs_7, mode);
 105              		.loc 1 78 0
 106 0058 0133     		adds	r3, r3, #1
 107 005a 1A78     		ldrb	r2, [r3]	@ zero_extendqisi2
 108 005c 02F0F102 		and	r2, r2, #241
 109 0060 1043     		orrs	r0, r0, r2
 110 0062 1870     		strb	r0, [r3]
 111 0064 7047     		bx	lr
 112              	.L6:
 113 0066 00BF     		.align	2
 114              	.L5:
 115 0068 08500040 		.word	1073762312
 116              		.cfi_endproc
 117              	.LFE1:
 118              		.size	UsMicroSecs_SetDriveMode, .-UsMicroSecs_SetDriveMode
 119              		.section	.text.UsMicroSecs_Read,"ax",%progbits
 120              		.align	2
 121              		.global	UsMicroSecs_Read
 122              		.thumb
 123              		.thumb_func
 124              		.type	UsMicroSecs_Read, %function
 125              	UsMicroSecs_Read:
 126              	.LFB2:
  79:.\Generated_Source\PSoC5/UsMicroSecs.c **** }
  80:.\Generated_Source\PSoC5/UsMicroSecs.c **** 
  81:.\Generated_Source\PSoC5/UsMicroSecs.c **** 
  82:.\Generated_Source\PSoC5/UsMicroSecs.c **** /*******************************************************************************
  83:.\Generated_Source\PSoC5/UsMicroSecs.c **** * Function Name: UsMicroSecs_Read
  84:.\Generated_Source\PSoC5/UsMicroSecs.c **** ********************************************************************************
  85:.\Generated_Source\PSoC5/UsMicroSecs.c **** *
  86:.\Generated_Source\PSoC5/UsMicroSecs.c **** * Summary:
  87:.\Generated_Source\PSoC5/UsMicroSecs.c **** *  Read the current value on the pins of the Digital Port in right justified 
  88:.\Generated_Source\PSoC5/UsMicroSecs.c **** *  form.
  89:.\Generated_Source\PSoC5/UsMicroSecs.c **** *
  90:.\Generated_Source\PSoC5/UsMicroSecs.c **** * Parameters:  
  91:.\Generated_Source\PSoC5/UsMicroSecs.c **** *  None
  92:.\Generated_Source\PSoC5/UsMicroSecs.c **** *
  93:.\Generated_Source\PSoC5/UsMicroSecs.c **** * Return: 
  94:.\Generated_Source\PSoC5/UsMicroSecs.c **** *  Returns the current value of the Digital Port as a right justified number
  95:.\Generated_Source\PSoC5/UsMicroSecs.c **** *  
  96:.\Generated_Source\PSoC5/UsMicroSecs.c **** * Note:
  97:.\Generated_Source\PSoC5/UsMicroSecs.c **** *  Macro UsMicroSecs_ReadPS calls this function. 
  98:.\Generated_Source\PSoC5/UsMicroSecs.c **** *  
  99:.\Generated_Source\PSoC5/UsMicroSecs.c **** *******************************************************************************/
 100:.\Generated_Source\PSoC5/UsMicroSecs.c **** uint8 UsMicroSecs_Read(void) 
 101:.\Generated_Source\PSoC5/UsMicroSecs.c **** {
 127              		.loc 1 101 0
ARM GAS  C:\Users\Nick\AppData\Local\Temp\ccHirBbv.s 			page 5


 128              		.cfi_startproc
 129              		@ args = 0, pretend = 0, frame = 0
 130              		@ frame_needed = 0, uses_anonymous_args = 0
 131              		@ link register save eliminated.
 102:.\Generated_Source\PSoC5/UsMicroSecs.c ****     return (UsMicroSecs_PS & UsMicroSecs_MASK) >> UsMicroSecs_SHIFT;
 132              		.loc 1 102 0
 133 0000 014B     		ldr	r3, .L8
 134 0002 1878     		ldrb	r0, [r3]	@ zero_extendqisi2
 103:.\Generated_Source\PSoC5/UsMicroSecs.c **** }
 135              		.loc 1 103 0
 136 0004 7047     		bx	lr
 137              	.L9:
 138 0006 00BF     		.align	2
 139              	.L8:
 140 0008 11510040 		.word	1073762577
 141              		.cfi_endproc
 142              	.LFE2:
 143              		.size	UsMicroSecs_Read, .-UsMicroSecs_Read
 144              		.section	.text.UsMicroSecs_ReadDataReg,"ax",%progbits
 145              		.align	2
 146              		.global	UsMicroSecs_ReadDataReg
 147              		.thumb
 148              		.thumb_func
 149              		.type	UsMicroSecs_ReadDataReg, %function
 150              	UsMicroSecs_ReadDataReg:
 151              	.LFB3:
 104:.\Generated_Source\PSoC5/UsMicroSecs.c **** 
 105:.\Generated_Source\PSoC5/UsMicroSecs.c **** 
 106:.\Generated_Source\PSoC5/UsMicroSecs.c **** /*******************************************************************************
 107:.\Generated_Source\PSoC5/UsMicroSecs.c **** * Function Name: UsMicroSecs_ReadDataReg
 108:.\Generated_Source\PSoC5/UsMicroSecs.c **** ********************************************************************************
 109:.\Generated_Source\PSoC5/UsMicroSecs.c **** *
 110:.\Generated_Source\PSoC5/UsMicroSecs.c **** * Summary:
 111:.\Generated_Source\PSoC5/UsMicroSecs.c **** *  Read the current value assigned to a Digital Port's data output register
 112:.\Generated_Source\PSoC5/UsMicroSecs.c **** *
 113:.\Generated_Source\PSoC5/UsMicroSecs.c **** * Parameters:  
 114:.\Generated_Source\PSoC5/UsMicroSecs.c **** *  None 
 115:.\Generated_Source\PSoC5/UsMicroSecs.c **** *
 116:.\Generated_Source\PSoC5/UsMicroSecs.c **** * Return: 
 117:.\Generated_Source\PSoC5/UsMicroSecs.c **** *  Returns the current value assigned to the Digital Port's data output register
 118:.\Generated_Source\PSoC5/UsMicroSecs.c **** *  
 119:.\Generated_Source\PSoC5/UsMicroSecs.c **** *******************************************************************************/
 120:.\Generated_Source\PSoC5/UsMicroSecs.c **** uint8 UsMicroSecs_ReadDataReg(void) 
 121:.\Generated_Source\PSoC5/UsMicroSecs.c **** {
 152              		.loc 1 121 0
 153              		.cfi_startproc
 154              		@ args = 0, pretend = 0, frame = 0
 155              		@ frame_needed = 0, uses_anonymous_args = 0
 156              		@ link register save eliminated.
 122:.\Generated_Source\PSoC5/UsMicroSecs.c ****     return (UsMicroSecs_DR & UsMicroSecs_MASK) >> UsMicroSecs_SHIFT;
 157              		.loc 1 122 0
 158 0000 014B     		ldr	r3, .L11
 159 0002 1878     		ldrb	r0, [r3]	@ zero_extendqisi2
 123:.\Generated_Source\PSoC5/UsMicroSecs.c **** }
 160              		.loc 1 123 0
 161 0004 7047     		bx	lr
 162              	.L12:
ARM GAS  C:\Users\Nick\AppData\Local\Temp\ccHirBbv.s 			page 6


 163 0006 00BF     		.align	2
 164              	.L11:
 165 0008 10510040 		.word	1073762576
 166              		.cfi_endproc
 167              	.LFE3:
 168              		.size	UsMicroSecs_ReadDataReg, .-UsMicroSecs_ReadDataReg
 169              		.text
 170              	.Letext0:
 171              		.file 2 ".\\Generated_Source\\PSoC5\\cytypes.h"