ARM GAS  C:\Users\Nick\AppData\Local\Temp\ccEkhlf3.s 			page 1


   1              		.syntax unified
   2              		.cpu cortex-m3
   3              		.fpu softvfp
   4              		.eabi_attribute 20, 1
   5              		.eabi_attribute 21, 1
   6              		.eabi_attribute 23, 3
   7              		.eabi_attribute 24, 1
   8              		.eabi_attribute 25, 1
   9              		.eabi_attribute 26, 1
  10              		.eabi_attribute 30, 1
  11              		.eabi_attribute 34, 1
  12              		.eabi_attribute 18, 4
  13              		.thumb
  14              		.file	"UsPWM.c"
  15              		.text
  16              	.Ltext0:
  17              		.cfi_sections	.debug_frame
  18              		.section	.text.UsPWM_Enable,"ax",%progbits
  19              		.align	2
  20              		.global	UsPWM_Enable
  21              		.thumb
  22              		.thumb_func
  23              		.type	UsPWM_Enable, %function
  24              	UsPWM_Enable:
  25              	.LFB2:
  26              		.file 1 ".\\Generated_Source\\PSoC5\\UsPWM.c"
   1:.\Generated_Source\PSoC5/UsPWM.c **** /*******************************************************************************
   2:.\Generated_Source\PSoC5/UsPWM.c **** * File Name: UsPWM.c
   3:.\Generated_Source\PSoC5/UsPWM.c **** * Version 3.30
   4:.\Generated_Source\PSoC5/UsPWM.c **** *
   5:.\Generated_Source\PSoC5/UsPWM.c **** * Description:
   6:.\Generated_Source\PSoC5/UsPWM.c **** *  The PWM User Module consist of an 8 or 16-bit counter with two 8 or 16-bit
   7:.\Generated_Source\PSoC5/UsPWM.c **** *  comparitors. Each instance of this user module is capable of generating
   8:.\Generated_Source\PSoC5/UsPWM.c **** *  two PWM outputs with the same period. The pulse width is selectable between
   9:.\Generated_Source\PSoC5/UsPWM.c **** *  1 and 255/65535. The period is selectable between 2 and 255/65536 clocks.
  10:.\Generated_Source\PSoC5/UsPWM.c **** *  The compare value output may be configured to be active when the present
  11:.\Generated_Source\PSoC5/UsPWM.c **** *  counter is less than or less than/equal to the compare value.
  12:.\Generated_Source\PSoC5/UsPWM.c **** *  A terminal count output is also provided. It generates a pulse one clock
  13:.\Generated_Source\PSoC5/UsPWM.c **** *  width wide when the counter is equal to zero.
  14:.\Generated_Source\PSoC5/UsPWM.c **** *
  15:.\Generated_Source\PSoC5/UsPWM.c **** * Note:
  16:.\Generated_Source\PSoC5/UsPWM.c **** *
  17:.\Generated_Source\PSoC5/UsPWM.c **** *******************************************************************************
  18:.\Generated_Source\PSoC5/UsPWM.c **** * Copyright 2008-2014, Cypress Semiconductor Corporation.  All rights reserved.
  19:.\Generated_Source\PSoC5/UsPWM.c **** * You may use this file only in accordance with the license, terms, conditions,
  20:.\Generated_Source\PSoC5/UsPWM.c **** * disclaimers, and limitations in the end user license agreement accompanying
  21:.\Generated_Source\PSoC5/UsPWM.c **** * the software package with which this file was provided.
  22:.\Generated_Source\PSoC5/UsPWM.c **** ********************************************************************************/
  23:.\Generated_Source\PSoC5/UsPWM.c **** 
  24:.\Generated_Source\PSoC5/UsPWM.c **** #include "UsPWM.h"
  25:.\Generated_Source\PSoC5/UsPWM.c **** 
  26:.\Generated_Source\PSoC5/UsPWM.c **** /* Error message for removed <resource> through optimization */
  27:.\Generated_Source\PSoC5/UsPWM.c **** #ifdef UsPWM_PWMUDB_genblk1_ctrlreg__REMOVED
  28:.\Generated_Source\PSoC5/UsPWM.c ****     #error PWM_v3_30 detected with a constant 0 for the enable or \
  29:.\Generated_Source\PSoC5/UsPWM.c ****          constant 1 for reset. This will prevent the component from operating.
  30:.\Generated_Source\PSoC5/UsPWM.c **** #endif /* UsPWM_PWMUDB_genblk1_ctrlreg__REMOVED */
  31:.\Generated_Source\PSoC5/UsPWM.c **** 
ARM GAS  C:\Users\Nick\AppData\Local\Temp\ccEkhlf3.s 			page 2


  32:.\Generated_Source\PSoC5/UsPWM.c **** uint8 UsPWM_initVar = 0u;
  33:.\Generated_Source\PSoC5/UsPWM.c **** 
  34:.\Generated_Source\PSoC5/UsPWM.c **** 
  35:.\Generated_Source\PSoC5/UsPWM.c **** /*******************************************************************************
  36:.\Generated_Source\PSoC5/UsPWM.c **** * Function Name: UsPWM_Start
  37:.\Generated_Source\PSoC5/UsPWM.c **** ********************************************************************************
  38:.\Generated_Source\PSoC5/UsPWM.c **** *
  39:.\Generated_Source\PSoC5/UsPWM.c **** * Summary:
  40:.\Generated_Source\PSoC5/UsPWM.c **** *  The start function initializes the pwm with the default values, the
  41:.\Generated_Source\PSoC5/UsPWM.c **** *  enables the counter to begin counting.  It does not enable interrupts,
  42:.\Generated_Source\PSoC5/UsPWM.c **** *  the EnableInt command should be called if interrupt generation is required.
  43:.\Generated_Source\PSoC5/UsPWM.c **** *
  44:.\Generated_Source\PSoC5/UsPWM.c **** * Parameters:
  45:.\Generated_Source\PSoC5/UsPWM.c **** *  None
  46:.\Generated_Source\PSoC5/UsPWM.c **** *
  47:.\Generated_Source\PSoC5/UsPWM.c **** * Return:
  48:.\Generated_Source\PSoC5/UsPWM.c **** *  None
  49:.\Generated_Source\PSoC5/UsPWM.c **** *
  50:.\Generated_Source\PSoC5/UsPWM.c **** * Global variables:
  51:.\Generated_Source\PSoC5/UsPWM.c **** *  UsPWM_initVar: Is modified when this function is called for the
  52:.\Generated_Source\PSoC5/UsPWM.c **** *   first time. Is used to ensure that initialization happens only once.
  53:.\Generated_Source\PSoC5/UsPWM.c **** *
  54:.\Generated_Source\PSoC5/UsPWM.c **** *******************************************************************************/
  55:.\Generated_Source\PSoC5/UsPWM.c **** void UsPWM_Start(void) 
  56:.\Generated_Source\PSoC5/UsPWM.c **** {
  57:.\Generated_Source\PSoC5/UsPWM.c ****     /* If not Initialized then initialize all required hardware and software */
  58:.\Generated_Source\PSoC5/UsPWM.c ****     if(UsPWM_initVar == 0u)
  59:.\Generated_Source\PSoC5/UsPWM.c ****     {
  60:.\Generated_Source\PSoC5/UsPWM.c ****         UsPWM_Init();
  61:.\Generated_Source\PSoC5/UsPWM.c ****         UsPWM_initVar = 1u;
  62:.\Generated_Source\PSoC5/UsPWM.c ****     }
  63:.\Generated_Source\PSoC5/UsPWM.c ****     UsPWM_Enable();
  64:.\Generated_Source\PSoC5/UsPWM.c **** 
  65:.\Generated_Source\PSoC5/UsPWM.c **** }
  66:.\Generated_Source\PSoC5/UsPWM.c **** 
  67:.\Generated_Source\PSoC5/UsPWM.c **** 
  68:.\Generated_Source\PSoC5/UsPWM.c **** /*******************************************************************************
  69:.\Generated_Source\PSoC5/UsPWM.c **** * Function Name: UsPWM_Init
  70:.\Generated_Source\PSoC5/UsPWM.c **** ********************************************************************************
  71:.\Generated_Source\PSoC5/UsPWM.c **** *
  72:.\Generated_Source\PSoC5/UsPWM.c **** * Summary:
  73:.\Generated_Source\PSoC5/UsPWM.c **** *  Initialize component's parameters to the parameters set by user in the
  74:.\Generated_Source\PSoC5/UsPWM.c **** *  customizer of the component placed onto schematic. Usually called in
  75:.\Generated_Source\PSoC5/UsPWM.c **** *  UsPWM_Start().
  76:.\Generated_Source\PSoC5/UsPWM.c **** *
  77:.\Generated_Source\PSoC5/UsPWM.c **** * Parameters:
  78:.\Generated_Source\PSoC5/UsPWM.c **** *  None
  79:.\Generated_Source\PSoC5/UsPWM.c **** *
  80:.\Generated_Source\PSoC5/UsPWM.c **** * Return:
  81:.\Generated_Source\PSoC5/UsPWM.c **** *  None
  82:.\Generated_Source\PSoC5/UsPWM.c **** *
  83:.\Generated_Source\PSoC5/UsPWM.c **** *******************************************************************************/
  84:.\Generated_Source\PSoC5/UsPWM.c **** void UsPWM_Init(void) 
  85:.\Generated_Source\PSoC5/UsPWM.c **** {
  86:.\Generated_Source\PSoC5/UsPWM.c ****     #if (UsPWM_UsingFixedFunction || UsPWM_UseControl)
  87:.\Generated_Source\PSoC5/UsPWM.c ****         uint8 ctrl;
  88:.\Generated_Source\PSoC5/UsPWM.c ****     #endif /* (UsPWM_UsingFixedFunction || UsPWM_UseControl) */
ARM GAS  C:\Users\Nick\AppData\Local\Temp\ccEkhlf3.s 			page 3


  89:.\Generated_Source\PSoC5/UsPWM.c **** 
  90:.\Generated_Source\PSoC5/UsPWM.c ****     #if(!UsPWM_UsingFixedFunction)
  91:.\Generated_Source\PSoC5/UsPWM.c ****         #if(UsPWM_UseStatus)
  92:.\Generated_Source\PSoC5/UsPWM.c ****             /* Interrupt State Backup for Critical Region*/
  93:.\Generated_Source\PSoC5/UsPWM.c ****             uint8 UsPWM_interruptState;
  94:.\Generated_Source\PSoC5/UsPWM.c ****         #endif /* (UsPWM_UseStatus) */
  95:.\Generated_Source\PSoC5/UsPWM.c ****     #endif /* (!UsPWM_UsingFixedFunction) */
  96:.\Generated_Source\PSoC5/UsPWM.c **** 
  97:.\Generated_Source\PSoC5/UsPWM.c ****     #if (UsPWM_UsingFixedFunction)
  98:.\Generated_Source\PSoC5/UsPWM.c ****         /* You are allowed to write the compare value (FF only) */
  99:.\Generated_Source\PSoC5/UsPWM.c ****         UsPWM_CONTROL |= UsPWM_CFG0_MODE;
 100:.\Generated_Source\PSoC5/UsPWM.c ****         #if (UsPWM_DeadBand2_4)
 101:.\Generated_Source\PSoC5/UsPWM.c ****             UsPWM_CONTROL |= UsPWM_CFG0_DB;
 102:.\Generated_Source\PSoC5/UsPWM.c ****         #endif /* (UsPWM_DeadBand2_4) */
 103:.\Generated_Source\PSoC5/UsPWM.c **** 
 104:.\Generated_Source\PSoC5/UsPWM.c ****         ctrl = UsPWM_CONTROL3 & ((uint8 )(~UsPWM_CTRL_CMPMODE1_MASK));
 105:.\Generated_Source\PSoC5/UsPWM.c ****         UsPWM_CONTROL3 = ctrl | UsPWM_DEFAULT_COMPARE1_MODE;
 106:.\Generated_Source\PSoC5/UsPWM.c **** 
 107:.\Generated_Source\PSoC5/UsPWM.c ****          /* Clear and Set SYNCTC and SYNCCMP bits of RT1 register */
 108:.\Generated_Source\PSoC5/UsPWM.c ****         UsPWM_RT1 &= ((uint8)(~UsPWM_RT1_MASK));
 109:.\Generated_Source\PSoC5/UsPWM.c ****         UsPWM_RT1 |= UsPWM_SYNC;
 110:.\Generated_Source\PSoC5/UsPWM.c **** 
 111:.\Generated_Source\PSoC5/UsPWM.c ****         /*Enable DSI Sync all all inputs of the PWM*/
 112:.\Generated_Source\PSoC5/UsPWM.c ****         UsPWM_RT1 &= ((uint8)(~UsPWM_SYNCDSI_MASK));
 113:.\Generated_Source\PSoC5/UsPWM.c ****         UsPWM_RT1 |= UsPWM_SYNCDSI_EN;
 114:.\Generated_Source\PSoC5/UsPWM.c **** 
 115:.\Generated_Source\PSoC5/UsPWM.c ****     #elif (UsPWM_UseControl)
 116:.\Generated_Source\PSoC5/UsPWM.c ****         /* Set the default compare mode defined in the parameter */
 117:.\Generated_Source\PSoC5/UsPWM.c ****         ctrl = UsPWM_CONTROL & ((uint8)(~UsPWM_CTRL_CMPMODE2_MASK)) &
 118:.\Generated_Source\PSoC5/UsPWM.c ****                 ((uint8)(~UsPWM_CTRL_CMPMODE1_MASK));
 119:.\Generated_Source\PSoC5/UsPWM.c ****         UsPWM_CONTROL = ctrl | UsPWM_DEFAULT_COMPARE2_MODE |
 120:.\Generated_Source\PSoC5/UsPWM.c ****                                    UsPWM_DEFAULT_COMPARE1_MODE;
 121:.\Generated_Source\PSoC5/UsPWM.c ****     #endif /* (UsPWM_UsingFixedFunction) */
 122:.\Generated_Source\PSoC5/UsPWM.c **** 
 123:.\Generated_Source\PSoC5/UsPWM.c ****     #if (!UsPWM_UsingFixedFunction)
 124:.\Generated_Source\PSoC5/UsPWM.c ****         #if (UsPWM_Resolution == 8)
 125:.\Generated_Source\PSoC5/UsPWM.c ****             /* Set FIFO 0 to 1 byte register for period*/
 126:.\Generated_Source\PSoC5/UsPWM.c ****             UsPWM_AUX_CONTROLDP0 |= (UsPWM_AUX_CTRL_FIFO0_CLR);
 127:.\Generated_Source\PSoC5/UsPWM.c ****         #else /* (UsPWM_Resolution == 16)*/
 128:.\Generated_Source\PSoC5/UsPWM.c ****             /* Set FIFO 0 to 1 byte register for period */
 129:.\Generated_Source\PSoC5/UsPWM.c ****             UsPWM_AUX_CONTROLDP0 |= (UsPWM_AUX_CTRL_FIFO0_CLR);
 130:.\Generated_Source\PSoC5/UsPWM.c ****             UsPWM_AUX_CONTROLDP1 |= (UsPWM_AUX_CTRL_FIFO0_CLR);
 131:.\Generated_Source\PSoC5/UsPWM.c ****         #endif /* (UsPWM_Resolution == 8) */
 132:.\Generated_Source\PSoC5/UsPWM.c **** 
 133:.\Generated_Source\PSoC5/UsPWM.c ****         UsPWM_WriteCounter(UsPWM_INIT_PERIOD_VALUE);
 134:.\Generated_Source\PSoC5/UsPWM.c ****     #endif /* (!UsPWM_UsingFixedFunction) */
 135:.\Generated_Source\PSoC5/UsPWM.c **** 
 136:.\Generated_Source\PSoC5/UsPWM.c ****     UsPWM_WritePeriod(UsPWM_INIT_PERIOD_VALUE);
 137:.\Generated_Source\PSoC5/UsPWM.c **** 
 138:.\Generated_Source\PSoC5/UsPWM.c ****         #if (UsPWM_UseOneCompareMode)
 139:.\Generated_Source\PSoC5/UsPWM.c ****             UsPWM_WriteCompare(UsPWM_INIT_COMPARE_VALUE1);
 140:.\Generated_Source\PSoC5/UsPWM.c ****         #else
 141:.\Generated_Source\PSoC5/UsPWM.c ****             UsPWM_WriteCompare1(UsPWM_INIT_COMPARE_VALUE1);
 142:.\Generated_Source\PSoC5/UsPWM.c ****             UsPWM_WriteCompare2(UsPWM_INIT_COMPARE_VALUE2);
 143:.\Generated_Source\PSoC5/UsPWM.c ****         #endif /* (UsPWM_UseOneCompareMode) */
 144:.\Generated_Source\PSoC5/UsPWM.c **** 
 145:.\Generated_Source\PSoC5/UsPWM.c ****         #if (UsPWM_KillModeMinTime)
ARM GAS  C:\Users\Nick\AppData\Local\Temp\ccEkhlf3.s 			page 4


 146:.\Generated_Source\PSoC5/UsPWM.c ****             UsPWM_WriteKillTime(UsPWM_MinimumKillTime);
 147:.\Generated_Source\PSoC5/UsPWM.c ****         #endif /* (UsPWM_KillModeMinTime) */
 148:.\Generated_Source\PSoC5/UsPWM.c **** 
 149:.\Generated_Source\PSoC5/UsPWM.c ****         #if (UsPWM_DeadBandUsed)
 150:.\Generated_Source\PSoC5/UsPWM.c ****             UsPWM_WriteDeadTime(UsPWM_INIT_DEAD_TIME);
 151:.\Generated_Source\PSoC5/UsPWM.c ****         #endif /* (UsPWM_DeadBandUsed) */
 152:.\Generated_Source\PSoC5/UsPWM.c **** 
 153:.\Generated_Source\PSoC5/UsPWM.c ****     #if (UsPWM_UseStatus || UsPWM_UsingFixedFunction)
 154:.\Generated_Source\PSoC5/UsPWM.c ****         UsPWM_SetInterruptMode(UsPWM_INIT_INTERRUPTS_MODE);
 155:.\Generated_Source\PSoC5/UsPWM.c ****     #endif /* (UsPWM_UseStatus || UsPWM_UsingFixedFunction) */
 156:.\Generated_Source\PSoC5/UsPWM.c **** 
 157:.\Generated_Source\PSoC5/UsPWM.c ****     #if (UsPWM_UsingFixedFunction)
 158:.\Generated_Source\PSoC5/UsPWM.c ****         /* Globally Enable the Fixed Function Block chosen */
 159:.\Generated_Source\PSoC5/UsPWM.c ****         UsPWM_GLOBAL_ENABLE |= UsPWM_BLOCK_EN_MASK;
 160:.\Generated_Source\PSoC5/UsPWM.c ****         /* Set the Interrupt source to come from the status register */
 161:.\Generated_Source\PSoC5/UsPWM.c ****         UsPWM_CONTROL2 |= UsPWM_CTRL2_IRQ_SEL;
 162:.\Generated_Source\PSoC5/UsPWM.c ****     #else
 163:.\Generated_Source\PSoC5/UsPWM.c ****         #if(UsPWM_UseStatus)
 164:.\Generated_Source\PSoC5/UsPWM.c **** 
 165:.\Generated_Source\PSoC5/UsPWM.c ****             /* CyEnterCriticalRegion and CyExitCriticalRegion are used to mark following region cri
 166:.\Generated_Source\PSoC5/UsPWM.c ****             /* Enter Critical Region*/
 167:.\Generated_Source\PSoC5/UsPWM.c ****             UsPWM_interruptState = CyEnterCriticalSection();
 168:.\Generated_Source\PSoC5/UsPWM.c ****             /* Use the interrupt output of the status register for IRQ output */
 169:.\Generated_Source\PSoC5/UsPWM.c ****             UsPWM_STATUS_AUX_CTRL |= UsPWM_STATUS_ACTL_INT_EN_MASK;
 170:.\Generated_Source\PSoC5/UsPWM.c **** 
 171:.\Generated_Source\PSoC5/UsPWM.c ****              /* Exit Critical Region*/
 172:.\Generated_Source\PSoC5/UsPWM.c ****             CyExitCriticalSection(UsPWM_interruptState);
 173:.\Generated_Source\PSoC5/UsPWM.c **** 
 174:.\Generated_Source\PSoC5/UsPWM.c ****             /* Clear the FIFO to enable the UsPWM_STATUS_FIFOFULL
 175:.\Generated_Source\PSoC5/UsPWM.c ****                    bit to be set on FIFO full. */
 176:.\Generated_Source\PSoC5/UsPWM.c ****             UsPWM_ClearFIFO();
 177:.\Generated_Source\PSoC5/UsPWM.c ****         #endif /* (UsPWM_UseStatus) */
 178:.\Generated_Source\PSoC5/UsPWM.c ****     #endif /* (UsPWM_UsingFixedFunction) */
 179:.\Generated_Source\PSoC5/UsPWM.c **** }
 180:.\Generated_Source\PSoC5/UsPWM.c **** 
 181:.\Generated_Source\PSoC5/UsPWM.c **** 
 182:.\Generated_Source\PSoC5/UsPWM.c **** /*******************************************************************************
 183:.\Generated_Source\PSoC5/UsPWM.c **** * Function Name: UsPWM_Enable
 184:.\Generated_Source\PSoC5/UsPWM.c **** ********************************************************************************
 185:.\Generated_Source\PSoC5/UsPWM.c **** *
 186:.\Generated_Source\PSoC5/UsPWM.c **** * Summary:
 187:.\Generated_Source\PSoC5/UsPWM.c **** *  Enables the PWM block operation
 188:.\Generated_Source\PSoC5/UsPWM.c **** *
 189:.\Generated_Source\PSoC5/UsPWM.c **** * Parameters:
 190:.\Generated_Source\PSoC5/UsPWM.c **** *  None
 191:.\Generated_Source\PSoC5/UsPWM.c **** *
 192:.\Generated_Source\PSoC5/UsPWM.c **** * Return:
 193:.\Generated_Source\PSoC5/UsPWM.c **** *  None
 194:.\Generated_Source\PSoC5/UsPWM.c **** *
 195:.\Generated_Source\PSoC5/UsPWM.c **** * Side Effects:
 196:.\Generated_Source\PSoC5/UsPWM.c **** *  This works only if software enable mode is chosen
 197:.\Generated_Source\PSoC5/UsPWM.c **** *
 198:.\Generated_Source\PSoC5/UsPWM.c **** *******************************************************************************/
 199:.\Generated_Source\PSoC5/UsPWM.c **** void UsPWM_Enable(void) 
 200:.\Generated_Source\PSoC5/UsPWM.c **** {
  27              		.loc 1 200 0
  28              		.cfi_startproc
ARM GAS  C:\Users\Nick\AppData\Local\Temp\ccEkhlf3.s 			page 5


  29              		@ args = 0, pretend = 0, frame = 0
  30              		@ frame_needed = 0, uses_anonymous_args = 0
  31              		@ link register save eliminated.
 201:.\Generated_Source\PSoC5/UsPWM.c ****     /* Globally Enable the Fixed Function Block chosen */
 202:.\Generated_Source\PSoC5/UsPWM.c ****     #if (UsPWM_UsingFixedFunction)
 203:.\Generated_Source\PSoC5/UsPWM.c ****         UsPWM_GLOBAL_ENABLE |= UsPWM_BLOCK_EN_MASK;
 204:.\Generated_Source\PSoC5/UsPWM.c ****         UsPWM_GLOBAL_STBY_ENABLE |= UsPWM_BLOCK_STBY_EN_MASK;
 205:.\Generated_Source\PSoC5/UsPWM.c ****     #endif /* (UsPWM_UsingFixedFunction) */
 206:.\Generated_Source\PSoC5/UsPWM.c **** 
 207:.\Generated_Source\PSoC5/UsPWM.c ****     /* Enable the PWM from the control register  */
 208:.\Generated_Source\PSoC5/UsPWM.c ****     #if (UsPWM_UseControl || UsPWM_UsingFixedFunction)
 209:.\Generated_Source\PSoC5/UsPWM.c ****         UsPWM_CONTROL |= UsPWM_CTRL_ENABLE;
  32              		.loc 1 209 0
  33 0000 024B     		ldr	r3, .L2
  34 0002 1A78     		ldrb	r2, [r3]	@ zero_extendqisi2
  35 0004 42F08002 		orr	r2, r2, #128
  36 0008 1A70     		strb	r2, [r3]
  37 000a 7047     		bx	lr
  38              	.L3:
  39              		.align	2
  40              	.L2:
  41 000c 74640040 		.word	1073767540
  42              		.cfi_endproc
  43              	.LFE2:
  44              		.size	UsPWM_Enable, .-UsPWM_Enable
  45              		.section	.text.UsPWM_Stop,"ax",%progbits
  46              		.align	2
  47              		.global	UsPWM_Stop
  48              		.thumb
  49              		.thumb_func
  50              		.type	UsPWM_Stop, %function
  51              	UsPWM_Stop:
  52              	.LFB3:
 210:.\Generated_Source\PSoC5/UsPWM.c ****     #endif /* (UsPWM_UseControl || UsPWM_UsingFixedFunction) */
 211:.\Generated_Source\PSoC5/UsPWM.c **** }
 212:.\Generated_Source\PSoC5/UsPWM.c **** 
 213:.\Generated_Source\PSoC5/UsPWM.c **** 
 214:.\Generated_Source\PSoC5/UsPWM.c **** /*******************************************************************************
 215:.\Generated_Source\PSoC5/UsPWM.c **** * Function Name: UsPWM_Stop
 216:.\Generated_Source\PSoC5/UsPWM.c **** ********************************************************************************
 217:.\Generated_Source\PSoC5/UsPWM.c **** *
 218:.\Generated_Source\PSoC5/UsPWM.c **** * Summary:
 219:.\Generated_Source\PSoC5/UsPWM.c **** *  The stop function halts the PWM, but does not change any modes or disable
 220:.\Generated_Source\PSoC5/UsPWM.c **** *  interrupts.
 221:.\Generated_Source\PSoC5/UsPWM.c **** *
 222:.\Generated_Source\PSoC5/UsPWM.c **** * Parameters:
 223:.\Generated_Source\PSoC5/UsPWM.c **** *  None
 224:.\Generated_Source\PSoC5/UsPWM.c **** *
 225:.\Generated_Source\PSoC5/UsPWM.c **** * Return:
 226:.\Generated_Source\PSoC5/UsPWM.c **** *  None
 227:.\Generated_Source\PSoC5/UsPWM.c **** *
 228:.\Generated_Source\PSoC5/UsPWM.c **** * Side Effects:
 229:.\Generated_Source\PSoC5/UsPWM.c **** *  If the Enable mode is set to Hardware only then this function
 230:.\Generated_Source\PSoC5/UsPWM.c **** *  has no effect on the operation of the PWM
 231:.\Generated_Source\PSoC5/UsPWM.c **** *
 232:.\Generated_Source\PSoC5/UsPWM.c **** *******************************************************************************/
 233:.\Generated_Source\PSoC5/UsPWM.c **** void UsPWM_Stop(void) 
ARM GAS  C:\Users\Nick\AppData\Local\Temp\ccEkhlf3.s 			page 6


 234:.\Generated_Source\PSoC5/UsPWM.c **** {
  53              		.loc 1 234 0
  54              		.cfi_startproc
  55              		@ args = 0, pretend = 0, frame = 0
  56              		@ frame_needed = 0, uses_anonymous_args = 0
  57              		@ link register save eliminated.
 235:.\Generated_Source\PSoC5/UsPWM.c ****     #if (UsPWM_UseControl || UsPWM_UsingFixedFunction)
 236:.\Generated_Source\PSoC5/UsPWM.c ****         UsPWM_CONTROL &= ((uint8)(~UsPWM_CTRL_ENABLE));
  58              		.loc 1 236 0
  59 0000 024B     		ldr	r3, .L5
  60 0002 1A78     		ldrb	r2, [r3]	@ zero_extendqisi2
  61 0004 02F07F02 		and	r2, r2, #127
  62 0008 1A70     		strb	r2, [r3]
  63 000a 7047     		bx	lr
  64              	.L6:
  65              		.align	2
  66              	.L5:
  67 000c 74640040 		.word	1073767540
  68              		.cfi_endproc
  69              	.LFE3:
  70              		.size	UsPWM_Stop, .-UsPWM_Stop
  71              		.section	.text.UsPWM_WriteCounter,"ax",%progbits
  72              		.align	2
  73              		.global	UsPWM_WriteCounter
  74              		.thumb
  75              		.thumb_func
  76              		.type	UsPWM_WriteCounter, %function
  77              	UsPWM_WriteCounter:
  78              	.LFB4:
 237:.\Generated_Source\PSoC5/UsPWM.c ****     #endif /* (UsPWM_UseControl || UsPWM_UsingFixedFunction) */
 238:.\Generated_Source\PSoC5/UsPWM.c **** 
 239:.\Generated_Source\PSoC5/UsPWM.c ****     /* Globally disable the Fixed Function Block chosen */
 240:.\Generated_Source\PSoC5/UsPWM.c ****     #if (UsPWM_UsingFixedFunction)
 241:.\Generated_Source\PSoC5/UsPWM.c ****         UsPWM_GLOBAL_ENABLE &= ((uint8)(~UsPWM_BLOCK_EN_MASK));
 242:.\Generated_Source\PSoC5/UsPWM.c ****         UsPWM_GLOBAL_STBY_ENABLE &= ((uint8)(~UsPWM_BLOCK_STBY_EN_MASK));
 243:.\Generated_Source\PSoC5/UsPWM.c ****     #endif /* (UsPWM_UsingFixedFunction) */
 244:.\Generated_Source\PSoC5/UsPWM.c **** }
 245:.\Generated_Source\PSoC5/UsPWM.c **** 
 246:.\Generated_Source\PSoC5/UsPWM.c **** #if (UsPWM_UseOneCompareMode)
 247:.\Generated_Source\PSoC5/UsPWM.c ****     #if (UsPWM_CompareMode1SW)
 248:.\Generated_Source\PSoC5/UsPWM.c **** 
 249:.\Generated_Source\PSoC5/UsPWM.c **** 
 250:.\Generated_Source\PSoC5/UsPWM.c ****         /*******************************************************************************
 251:.\Generated_Source\PSoC5/UsPWM.c ****         * Function Name: UsPWM_SetCompareMode
 252:.\Generated_Source\PSoC5/UsPWM.c ****         ********************************************************************************
 253:.\Generated_Source\PSoC5/UsPWM.c ****         *
 254:.\Generated_Source\PSoC5/UsPWM.c ****         * Summary:
 255:.\Generated_Source\PSoC5/UsPWM.c ****         *  This function writes the Compare Mode for the pwm output when in Dither mode,
 256:.\Generated_Source\PSoC5/UsPWM.c ****         *  Center Align Mode or One Output Mode.
 257:.\Generated_Source\PSoC5/UsPWM.c ****         *
 258:.\Generated_Source\PSoC5/UsPWM.c ****         * Parameters:
 259:.\Generated_Source\PSoC5/UsPWM.c ****         *  comparemode:  The new compare mode for the PWM output. Use the compare types
 260:.\Generated_Source\PSoC5/UsPWM.c ****         *                defined in the H file as input arguments.
 261:.\Generated_Source\PSoC5/UsPWM.c ****         *
 262:.\Generated_Source\PSoC5/UsPWM.c ****         * Return:
 263:.\Generated_Source\PSoC5/UsPWM.c ****         *  None
 264:.\Generated_Source\PSoC5/UsPWM.c ****         *
ARM GAS  C:\Users\Nick\AppData\Local\Temp\ccEkhlf3.s 			page 7


 265:.\Generated_Source\PSoC5/UsPWM.c ****         *******************************************************************************/
 266:.\Generated_Source\PSoC5/UsPWM.c ****         void UsPWM_SetCompareMode(uint8 comparemode) 
 267:.\Generated_Source\PSoC5/UsPWM.c ****         {
 268:.\Generated_Source\PSoC5/UsPWM.c ****             #if(UsPWM_UsingFixedFunction)
 269:.\Generated_Source\PSoC5/UsPWM.c **** 
 270:.\Generated_Source\PSoC5/UsPWM.c ****                 #if(0 != UsPWM_CTRL_CMPMODE1_SHIFT)
 271:.\Generated_Source\PSoC5/UsPWM.c ****                     uint8 comparemodemasked = ((uint8)((uint8)comparemode << UsPWM_CTRL_CMPMODE1_SH
 272:.\Generated_Source\PSoC5/UsPWM.c ****                 #else
 273:.\Generated_Source\PSoC5/UsPWM.c ****                     uint8 comparemodemasked = comparemode;
 274:.\Generated_Source\PSoC5/UsPWM.c ****                 #endif /* (0 != UsPWM_CTRL_CMPMODE1_SHIFT) */
 275:.\Generated_Source\PSoC5/UsPWM.c **** 
 276:.\Generated_Source\PSoC5/UsPWM.c ****                 UsPWM_CONTROL3 &= ((uint8)(~UsPWM_CTRL_CMPMODE1_MASK)); /*Clear Existing Data */
 277:.\Generated_Source\PSoC5/UsPWM.c ****                 UsPWM_CONTROL3 |= comparemodemasked;
 278:.\Generated_Source\PSoC5/UsPWM.c **** 
 279:.\Generated_Source\PSoC5/UsPWM.c ****             #elif (UsPWM_UseControl)
 280:.\Generated_Source\PSoC5/UsPWM.c **** 
 281:.\Generated_Source\PSoC5/UsPWM.c ****                 #if(0 != UsPWM_CTRL_CMPMODE1_SHIFT)
 282:.\Generated_Source\PSoC5/UsPWM.c ****                     uint8 comparemode1masked = ((uint8)((uint8)comparemode << UsPWM_CTRL_CMPMODE1_S
 283:.\Generated_Source\PSoC5/UsPWM.c ****                                                 UsPWM_CTRL_CMPMODE1_MASK;
 284:.\Generated_Source\PSoC5/UsPWM.c ****                 #else
 285:.\Generated_Source\PSoC5/UsPWM.c ****                     uint8 comparemode1masked = comparemode & UsPWM_CTRL_CMPMODE1_MASK;
 286:.\Generated_Source\PSoC5/UsPWM.c ****                 #endif /* (0 != UsPWM_CTRL_CMPMODE1_SHIFT) */
 287:.\Generated_Source\PSoC5/UsPWM.c **** 
 288:.\Generated_Source\PSoC5/UsPWM.c ****                 #if(0 != UsPWM_CTRL_CMPMODE2_SHIFT)
 289:.\Generated_Source\PSoC5/UsPWM.c ****                     uint8 comparemode2masked = ((uint8)((uint8)comparemode << UsPWM_CTRL_CMPMODE2_S
 290:.\Generated_Source\PSoC5/UsPWM.c ****                                                UsPWM_CTRL_CMPMODE2_MASK;
 291:.\Generated_Source\PSoC5/UsPWM.c ****                 #else
 292:.\Generated_Source\PSoC5/UsPWM.c ****                     uint8 comparemode2masked = comparemode & UsPWM_CTRL_CMPMODE2_MASK;
 293:.\Generated_Source\PSoC5/UsPWM.c ****                 #endif /* (0 != UsPWM_CTRL_CMPMODE2_SHIFT) */
 294:.\Generated_Source\PSoC5/UsPWM.c **** 
 295:.\Generated_Source\PSoC5/UsPWM.c ****                 /*Clear existing mode */
 296:.\Generated_Source\PSoC5/UsPWM.c ****                 UsPWM_CONTROL &= ((uint8)(~(UsPWM_CTRL_CMPMODE1_MASK |
 297:.\Generated_Source\PSoC5/UsPWM.c ****                                             UsPWM_CTRL_CMPMODE2_MASK)));
 298:.\Generated_Source\PSoC5/UsPWM.c ****                 UsPWM_CONTROL |= (comparemode1masked | comparemode2masked);
 299:.\Generated_Source\PSoC5/UsPWM.c **** 
 300:.\Generated_Source\PSoC5/UsPWM.c ****             #else
 301:.\Generated_Source\PSoC5/UsPWM.c ****                 uint8 temp = comparemode;
 302:.\Generated_Source\PSoC5/UsPWM.c ****             #endif /* (UsPWM_UsingFixedFunction) */
 303:.\Generated_Source\PSoC5/UsPWM.c ****         }
 304:.\Generated_Source\PSoC5/UsPWM.c ****     #endif /* UsPWM_CompareMode1SW */
 305:.\Generated_Source\PSoC5/UsPWM.c **** 
 306:.\Generated_Source\PSoC5/UsPWM.c **** #else /* UseOneCompareMode */
 307:.\Generated_Source\PSoC5/UsPWM.c **** 
 308:.\Generated_Source\PSoC5/UsPWM.c ****     #if (UsPWM_CompareMode1SW)
 309:.\Generated_Source\PSoC5/UsPWM.c **** 
 310:.\Generated_Source\PSoC5/UsPWM.c **** 
 311:.\Generated_Source\PSoC5/UsPWM.c ****         /*******************************************************************************
 312:.\Generated_Source\PSoC5/UsPWM.c ****         * Function Name: UsPWM_SetCompareMode1
 313:.\Generated_Source\PSoC5/UsPWM.c ****         ********************************************************************************
 314:.\Generated_Source\PSoC5/UsPWM.c ****         *
 315:.\Generated_Source\PSoC5/UsPWM.c ****         * Summary:
 316:.\Generated_Source\PSoC5/UsPWM.c ****         *  This function writes the Compare Mode for the pwm or pwm1 output
 317:.\Generated_Source\PSoC5/UsPWM.c ****         *
 318:.\Generated_Source\PSoC5/UsPWM.c ****         * Parameters:
 319:.\Generated_Source\PSoC5/UsPWM.c ****         *  comparemode:  The new compare mode for the PWM output. Use the compare types
 320:.\Generated_Source\PSoC5/UsPWM.c ****         *                defined in the H file as input arguments.
 321:.\Generated_Source\PSoC5/UsPWM.c ****         *
ARM GAS  C:\Users\Nick\AppData\Local\Temp\ccEkhlf3.s 			page 8


 322:.\Generated_Source\PSoC5/UsPWM.c ****         * Return:
 323:.\Generated_Source\PSoC5/UsPWM.c ****         *  None
 324:.\Generated_Source\PSoC5/UsPWM.c ****         *
 325:.\Generated_Source\PSoC5/UsPWM.c ****         *******************************************************************************/
 326:.\Generated_Source\PSoC5/UsPWM.c ****         void UsPWM_SetCompareMode1(uint8 comparemode) 
 327:.\Generated_Source\PSoC5/UsPWM.c ****         {
 328:.\Generated_Source\PSoC5/UsPWM.c ****             #if(0 != UsPWM_CTRL_CMPMODE1_SHIFT)
 329:.\Generated_Source\PSoC5/UsPWM.c ****                 uint8 comparemodemasked = ((uint8)((uint8)comparemode << UsPWM_CTRL_CMPMODE1_SHIFT)
 330:.\Generated_Source\PSoC5/UsPWM.c ****                                            UsPWM_CTRL_CMPMODE1_MASK;
 331:.\Generated_Source\PSoC5/UsPWM.c ****             #else
 332:.\Generated_Source\PSoC5/UsPWM.c ****                 uint8 comparemodemasked = comparemode & UsPWM_CTRL_CMPMODE1_MASK;
 333:.\Generated_Source\PSoC5/UsPWM.c ****             #endif /* (0 != UsPWM_CTRL_CMPMODE1_SHIFT) */
 334:.\Generated_Source\PSoC5/UsPWM.c **** 
 335:.\Generated_Source\PSoC5/UsPWM.c ****             #if (UsPWM_UseControl)
 336:.\Generated_Source\PSoC5/UsPWM.c ****                 UsPWM_CONTROL &= ((uint8)(~UsPWM_CTRL_CMPMODE1_MASK)); /*Clear existing mode */
 337:.\Generated_Source\PSoC5/UsPWM.c ****                 UsPWM_CONTROL |= comparemodemasked;
 338:.\Generated_Source\PSoC5/UsPWM.c ****             #endif /* (UsPWM_UseControl) */
 339:.\Generated_Source\PSoC5/UsPWM.c ****         }
 340:.\Generated_Source\PSoC5/UsPWM.c ****     #endif /* UsPWM_CompareMode1SW */
 341:.\Generated_Source\PSoC5/UsPWM.c **** 
 342:.\Generated_Source\PSoC5/UsPWM.c **** #if (UsPWM_CompareMode2SW)
 343:.\Generated_Source\PSoC5/UsPWM.c **** 
 344:.\Generated_Source\PSoC5/UsPWM.c **** 
 345:.\Generated_Source\PSoC5/UsPWM.c ****     /*******************************************************************************
 346:.\Generated_Source\PSoC5/UsPWM.c ****     * Function Name: UsPWM_SetCompareMode2
 347:.\Generated_Source\PSoC5/UsPWM.c ****     ********************************************************************************
 348:.\Generated_Source\PSoC5/UsPWM.c ****     *
 349:.\Generated_Source\PSoC5/UsPWM.c ****     * Summary:
 350:.\Generated_Source\PSoC5/UsPWM.c ****     *  This function writes the Compare Mode for the pwm or pwm2 output
 351:.\Generated_Source\PSoC5/UsPWM.c ****     *
 352:.\Generated_Source\PSoC5/UsPWM.c ****     * Parameters:
 353:.\Generated_Source\PSoC5/UsPWM.c ****     *  comparemode:  The new compare mode for the PWM output. Use the compare types
 354:.\Generated_Source\PSoC5/UsPWM.c ****     *                defined in the H file as input arguments.
 355:.\Generated_Source\PSoC5/UsPWM.c ****     *
 356:.\Generated_Source\PSoC5/UsPWM.c ****     * Return:
 357:.\Generated_Source\PSoC5/UsPWM.c ****     *  None
 358:.\Generated_Source\PSoC5/UsPWM.c ****     *
 359:.\Generated_Source\PSoC5/UsPWM.c ****     *******************************************************************************/
 360:.\Generated_Source\PSoC5/UsPWM.c ****     void UsPWM_SetCompareMode2(uint8 comparemode) 
 361:.\Generated_Source\PSoC5/UsPWM.c ****     {
 362:.\Generated_Source\PSoC5/UsPWM.c **** 
 363:.\Generated_Source\PSoC5/UsPWM.c ****         #if(0 != UsPWM_CTRL_CMPMODE2_SHIFT)
 364:.\Generated_Source\PSoC5/UsPWM.c ****             uint8 comparemodemasked = ((uint8)((uint8)comparemode << UsPWM_CTRL_CMPMODE2_SHIFT)) &
 365:.\Generated_Source\PSoC5/UsPWM.c ****                                                  UsPWM_CTRL_CMPMODE2_MASK;
 366:.\Generated_Source\PSoC5/UsPWM.c ****         #else
 367:.\Generated_Source\PSoC5/UsPWM.c ****             uint8 comparemodemasked = comparemode & UsPWM_CTRL_CMPMODE2_MASK;
 368:.\Generated_Source\PSoC5/UsPWM.c ****         #endif /* (0 != UsPWM_CTRL_CMPMODE2_SHIFT) */
 369:.\Generated_Source\PSoC5/UsPWM.c **** 
 370:.\Generated_Source\PSoC5/UsPWM.c ****         #if (UsPWM_UseControl)
 371:.\Generated_Source\PSoC5/UsPWM.c ****             UsPWM_CONTROL &= ((uint8)(~UsPWM_CTRL_CMPMODE2_MASK)); /*Clear existing mode */
 372:.\Generated_Source\PSoC5/UsPWM.c ****             UsPWM_CONTROL |= comparemodemasked;
 373:.\Generated_Source\PSoC5/UsPWM.c ****         #endif /* (UsPWM_UseControl) */
 374:.\Generated_Source\PSoC5/UsPWM.c ****     }
 375:.\Generated_Source\PSoC5/UsPWM.c ****     #endif /*UsPWM_CompareMode2SW */
 376:.\Generated_Source\PSoC5/UsPWM.c **** 
 377:.\Generated_Source\PSoC5/UsPWM.c **** #endif /* UseOneCompareMode */
 378:.\Generated_Source\PSoC5/UsPWM.c **** 
ARM GAS  C:\Users\Nick\AppData\Local\Temp\ccEkhlf3.s 			page 9


 379:.\Generated_Source\PSoC5/UsPWM.c **** 
 380:.\Generated_Source\PSoC5/UsPWM.c **** #if (!UsPWM_UsingFixedFunction)
 381:.\Generated_Source\PSoC5/UsPWM.c **** 
 382:.\Generated_Source\PSoC5/UsPWM.c **** 
 383:.\Generated_Source\PSoC5/UsPWM.c ****     /*******************************************************************************
 384:.\Generated_Source\PSoC5/UsPWM.c ****     * Function Name: UsPWM_WriteCounter
 385:.\Generated_Source\PSoC5/UsPWM.c ****     ********************************************************************************
 386:.\Generated_Source\PSoC5/UsPWM.c ****     *
 387:.\Generated_Source\PSoC5/UsPWM.c ****     * Summary:
 388:.\Generated_Source\PSoC5/UsPWM.c ****     *  Writes a new counter value directly to the counter register. This will be
 389:.\Generated_Source\PSoC5/UsPWM.c ****     *  implemented for that currently running period and only that period. This API
 390:.\Generated_Source\PSoC5/UsPWM.c ****     *  is valid only for UDB implementation and not available for fixed function
 391:.\Generated_Source\PSoC5/UsPWM.c ****     *  PWM implementation.
 392:.\Generated_Source\PSoC5/UsPWM.c ****     *
 393:.\Generated_Source\PSoC5/UsPWM.c ****     * Parameters:
 394:.\Generated_Source\PSoC5/UsPWM.c ****     *  counter:  The period new period counter value.
 395:.\Generated_Source\PSoC5/UsPWM.c ****     *
 396:.\Generated_Source\PSoC5/UsPWM.c ****     * Return:
 397:.\Generated_Source\PSoC5/UsPWM.c ****     *  None
 398:.\Generated_Source\PSoC5/UsPWM.c ****     *
 399:.\Generated_Source\PSoC5/UsPWM.c ****     * Side Effects:
 400:.\Generated_Source\PSoC5/UsPWM.c ****     *  The PWM Period will be reloaded when a counter value will be a zero
 401:.\Generated_Source\PSoC5/UsPWM.c ****     *
 402:.\Generated_Source\PSoC5/UsPWM.c ****     *******************************************************************************/
 403:.\Generated_Source\PSoC5/UsPWM.c ****     void UsPWM_WriteCounter(uint16 counter) \
 404:.\Generated_Source\PSoC5/UsPWM.c ****                                        
 405:.\Generated_Source\PSoC5/UsPWM.c ****     {
  79              		.loc 1 405 0
  80              		.cfi_startproc
  81              		@ args = 0, pretend = 0, frame = 0
  82              		@ frame_needed = 0, uses_anonymous_args = 0
  83              		@ link register save eliminated.
  84              	.LVL0:
 406:.\Generated_Source\PSoC5/UsPWM.c ****         CY_SET_REG16(UsPWM_COUNTER_LSB_PTR, counter);
  85              		.loc 1 406 0
  86 0000 014B     		ldr	r3, .L8
  87 0002 1880     		strh	r0, [r3]	@ movhi
  88 0004 7047     		bx	lr
  89              	.L9:
  90 0006 00BF     		.align	2
  91              	.L8:
  92 0008 08680040 		.word	1073768456
  93              		.cfi_endproc
  94              	.LFE4:
  95              		.size	UsPWM_WriteCounter, .-UsPWM_WriteCounter
  96              		.section	.text.UsPWM_ReadCounter,"ax",%progbits
  97              		.align	2
  98              		.global	UsPWM_ReadCounter
  99              		.thumb
 100              		.thumb_func
 101              		.type	UsPWM_ReadCounter, %function
 102              	UsPWM_ReadCounter:
 103              	.LFB5:
 407:.\Generated_Source\PSoC5/UsPWM.c ****     }
 408:.\Generated_Source\PSoC5/UsPWM.c **** 
 409:.\Generated_Source\PSoC5/UsPWM.c **** 
 410:.\Generated_Source\PSoC5/UsPWM.c ****     /*******************************************************************************
ARM GAS  C:\Users\Nick\AppData\Local\Temp\ccEkhlf3.s 			page 10


 411:.\Generated_Source\PSoC5/UsPWM.c ****     * Function Name: UsPWM_ReadCounter
 412:.\Generated_Source\PSoC5/UsPWM.c ****     ********************************************************************************
 413:.\Generated_Source\PSoC5/UsPWM.c ****     *
 414:.\Generated_Source\PSoC5/UsPWM.c ****     * Summary:
 415:.\Generated_Source\PSoC5/UsPWM.c ****     *  This function returns the current value of the counter.  It doesn't matter
 416:.\Generated_Source\PSoC5/UsPWM.c ****     *  if the counter is enabled or running.
 417:.\Generated_Source\PSoC5/UsPWM.c ****     *
 418:.\Generated_Source\PSoC5/UsPWM.c ****     * Parameters:
 419:.\Generated_Source\PSoC5/UsPWM.c ****     *  None
 420:.\Generated_Source\PSoC5/UsPWM.c ****     *
 421:.\Generated_Source\PSoC5/UsPWM.c ****     * Return:
 422:.\Generated_Source\PSoC5/UsPWM.c ****     *  The current value of the counter.
 423:.\Generated_Source\PSoC5/UsPWM.c ****     *
 424:.\Generated_Source\PSoC5/UsPWM.c ****     *******************************************************************************/
 425:.\Generated_Source\PSoC5/UsPWM.c ****     uint16 UsPWM_ReadCounter(void) 
 426:.\Generated_Source\PSoC5/UsPWM.c ****     {
 104              		.loc 1 426 0
 105              		.cfi_startproc
 106              		@ args = 0, pretend = 0, frame = 0
 107              		@ frame_needed = 0, uses_anonymous_args = 0
 108              		@ link register save eliminated.
 427:.\Generated_Source\PSoC5/UsPWM.c ****         /* Force capture by reading Accumulator */
 428:.\Generated_Source\PSoC5/UsPWM.c ****         /* Must first do a software capture to be able to read the counter */
 429:.\Generated_Source\PSoC5/UsPWM.c ****         /* It is up to the user code to make sure there isn't already captured data in the FIFO */
 430:.\Generated_Source\PSoC5/UsPWM.c ****           (void)CY_GET_REG8(UsPWM_COUNTERCAP_LSB_PTR_8BIT);
 109              		.loc 1 430 0
 110 0000 024B     		ldr	r3, .L11
 111 0002 1B78     		ldrb	r3, [r3]	@ zero_extendqisi2
 431:.\Generated_Source\PSoC5/UsPWM.c **** 
 432:.\Generated_Source\PSoC5/UsPWM.c ****         /* Read the data from the FIFO */
 433:.\Generated_Source\PSoC5/UsPWM.c ****         return (CY_GET_REG16(UsPWM_CAPTURE_LSB_PTR));
 112              		.loc 1 433 0
 113 0004 024B     		ldr	r3, .L11+4
 114 0006 1888     		ldrh	r0, [r3]
 434:.\Generated_Source\PSoC5/UsPWM.c ****     }
 115              		.loc 1 434 0
 116 0008 80B2     		uxth	r0, r0
 117 000a 7047     		bx	lr
 118              	.L12:
 119              		.align	2
 120              	.L11:
 121 000c 14640040 		.word	1073767444
 122 0010 A8680040 		.word	1073768616
 123              		.cfi_endproc
 124              	.LFE5:
 125              		.size	UsPWM_ReadCounter, .-UsPWM_ReadCounter
 126              		.section	.text.UsPWM_WritePeriod,"ax",%progbits
 127              		.align	2
 128              		.global	UsPWM_WritePeriod
 129              		.thumb
 130              		.thumb_func
 131              		.type	UsPWM_WritePeriod, %function
 132              	UsPWM_WritePeriod:
 133              	.LFB7:
 435:.\Generated_Source\PSoC5/UsPWM.c **** 
 436:.\Generated_Source\PSoC5/UsPWM.c ****     #if (UsPWM_UseStatus)
 437:.\Generated_Source\PSoC5/UsPWM.c **** 
ARM GAS  C:\Users\Nick\AppData\Local\Temp\ccEkhlf3.s 			page 11


 438:.\Generated_Source\PSoC5/UsPWM.c **** 
 439:.\Generated_Source\PSoC5/UsPWM.c ****         /*******************************************************************************
 440:.\Generated_Source\PSoC5/UsPWM.c ****         * Function Name: UsPWM_ClearFIFO
 441:.\Generated_Source\PSoC5/UsPWM.c ****         ********************************************************************************
 442:.\Generated_Source\PSoC5/UsPWM.c ****         *
 443:.\Generated_Source\PSoC5/UsPWM.c ****         * Summary:
 444:.\Generated_Source\PSoC5/UsPWM.c ****         *  This function clears all capture data from the capture FIFO
 445:.\Generated_Source\PSoC5/UsPWM.c ****         *
 446:.\Generated_Source\PSoC5/UsPWM.c ****         * Parameters:
 447:.\Generated_Source\PSoC5/UsPWM.c ****         *  None
 448:.\Generated_Source\PSoC5/UsPWM.c ****         *
 449:.\Generated_Source\PSoC5/UsPWM.c ****         * Return:
 450:.\Generated_Source\PSoC5/UsPWM.c ****         *  None
 451:.\Generated_Source\PSoC5/UsPWM.c ****         *
 452:.\Generated_Source\PSoC5/UsPWM.c ****         *******************************************************************************/
 453:.\Generated_Source\PSoC5/UsPWM.c ****         void UsPWM_ClearFIFO(void) 
 454:.\Generated_Source\PSoC5/UsPWM.c ****         {
 455:.\Generated_Source\PSoC5/UsPWM.c ****             while(0u != (UsPWM_ReadStatusRegister() & UsPWM_STATUS_FIFONEMPTY))
 456:.\Generated_Source\PSoC5/UsPWM.c ****             {
 457:.\Generated_Source\PSoC5/UsPWM.c ****                 (void)UsPWM_ReadCapture();
 458:.\Generated_Source\PSoC5/UsPWM.c ****             }
 459:.\Generated_Source\PSoC5/UsPWM.c ****         }
 460:.\Generated_Source\PSoC5/UsPWM.c **** 
 461:.\Generated_Source\PSoC5/UsPWM.c ****     #endif /* UsPWM_UseStatus */
 462:.\Generated_Source\PSoC5/UsPWM.c **** 
 463:.\Generated_Source\PSoC5/UsPWM.c **** #endif /* !UsPWM_UsingFixedFunction */
 464:.\Generated_Source\PSoC5/UsPWM.c **** 
 465:.\Generated_Source\PSoC5/UsPWM.c **** 
 466:.\Generated_Source\PSoC5/UsPWM.c **** /*******************************************************************************
 467:.\Generated_Source\PSoC5/UsPWM.c **** * Function Name: UsPWM_WritePeriod
 468:.\Generated_Source\PSoC5/UsPWM.c **** ********************************************************************************
 469:.\Generated_Source\PSoC5/UsPWM.c **** *
 470:.\Generated_Source\PSoC5/UsPWM.c **** * Summary:
 471:.\Generated_Source\PSoC5/UsPWM.c **** *  This function is used to change the period of the counter.  The new period
 472:.\Generated_Source\PSoC5/UsPWM.c **** *  will be loaded the next time terminal count is detected.
 473:.\Generated_Source\PSoC5/UsPWM.c **** *
 474:.\Generated_Source\PSoC5/UsPWM.c **** * Parameters:
 475:.\Generated_Source\PSoC5/UsPWM.c **** *  period:  Period value. May be between 1 and (2^Resolution)-1.  A value of 0
 476:.\Generated_Source\PSoC5/UsPWM.c **** *           will result in the counter remaining at zero.
 477:.\Generated_Source\PSoC5/UsPWM.c **** *
 478:.\Generated_Source\PSoC5/UsPWM.c **** * Return:
 479:.\Generated_Source\PSoC5/UsPWM.c **** *  None
 480:.\Generated_Source\PSoC5/UsPWM.c **** *
 481:.\Generated_Source\PSoC5/UsPWM.c **** *******************************************************************************/
 482:.\Generated_Source\PSoC5/UsPWM.c **** void UsPWM_WritePeriod(uint16 period) 
 483:.\Generated_Source\PSoC5/UsPWM.c **** {
 134              		.loc 1 483 0
 135              		.cfi_startproc
 136              		@ args = 0, pretend = 0, frame = 0
 137              		@ frame_needed = 0, uses_anonymous_args = 0
 138              		@ link register save eliminated.
 139              	.LVL1:
 484:.\Generated_Source\PSoC5/UsPWM.c ****     #if(UsPWM_UsingFixedFunction)
 485:.\Generated_Source\PSoC5/UsPWM.c ****         CY_SET_REG16(UsPWM_PERIOD_LSB_PTR, (uint16)period);
 486:.\Generated_Source\PSoC5/UsPWM.c ****     #else
 487:.\Generated_Source\PSoC5/UsPWM.c ****         CY_SET_REG16(UsPWM_PERIOD_LSB_PTR, period);
 140              		.loc 1 487 0
ARM GAS  C:\Users\Nick\AppData\Local\Temp\ccEkhlf3.s 			page 12


 141 0000 014B     		ldr	r3, .L14
 142 0002 1880     		strh	r0, [r3]	@ movhi
 143 0004 7047     		bx	lr
 144              	.L15:
 145 0006 00BF     		.align	2
 146              	.L14:
 147 0008 88680040 		.word	1073768584
 148              		.cfi_endproc
 149              	.LFE7:
 150              		.size	UsPWM_WritePeriod, .-UsPWM_WritePeriod
 151              		.section	.text.UsPWM_WriteCompare,"ax",%progbits
 152              		.align	2
 153              		.global	UsPWM_WriteCompare
 154              		.thumb
 155              		.thumb_func
 156              		.type	UsPWM_WriteCompare, %function
 157              	UsPWM_WriteCompare:
 158              	.LFB8:
 488:.\Generated_Source\PSoC5/UsPWM.c ****     #endif /* (UsPWM_UsingFixedFunction) */
 489:.\Generated_Source\PSoC5/UsPWM.c **** }
 490:.\Generated_Source\PSoC5/UsPWM.c **** 
 491:.\Generated_Source\PSoC5/UsPWM.c **** #if (UsPWM_UseOneCompareMode)
 492:.\Generated_Source\PSoC5/UsPWM.c **** 
 493:.\Generated_Source\PSoC5/UsPWM.c **** 
 494:.\Generated_Source\PSoC5/UsPWM.c ****     /*******************************************************************************
 495:.\Generated_Source\PSoC5/UsPWM.c ****     * Function Name: UsPWM_WriteCompare
 496:.\Generated_Source\PSoC5/UsPWM.c ****     ********************************************************************************
 497:.\Generated_Source\PSoC5/UsPWM.c ****     *
 498:.\Generated_Source\PSoC5/UsPWM.c ****     * Summary:
 499:.\Generated_Source\PSoC5/UsPWM.c ****     *  This funtion is used to change the compare1 value when the PWM is in Dither
 500:.\Generated_Source\PSoC5/UsPWM.c ****     *  mode. The compare output will reflect the new value on the next UDB clock.
 501:.\Generated_Source\PSoC5/UsPWM.c ****     *  The compare output will be driven high when the present counter value is
 502:.\Generated_Source\PSoC5/UsPWM.c ****     *  compared to the compare value based on the compare mode defined in
 503:.\Generated_Source\PSoC5/UsPWM.c ****     *  Dither Mode.
 504:.\Generated_Source\PSoC5/UsPWM.c ****     *
 505:.\Generated_Source\PSoC5/UsPWM.c ****     * Parameters:
 506:.\Generated_Source\PSoC5/UsPWM.c ****     *  compare:  New compare value.
 507:.\Generated_Source\PSoC5/UsPWM.c ****     *
 508:.\Generated_Source\PSoC5/UsPWM.c ****     * Return:
 509:.\Generated_Source\PSoC5/UsPWM.c ****     *  None
 510:.\Generated_Source\PSoC5/UsPWM.c ****     *
 511:.\Generated_Source\PSoC5/UsPWM.c ****     * Side Effects:
 512:.\Generated_Source\PSoC5/UsPWM.c ****     *  This function is only available if the PWM mode parameter is set to
 513:.\Generated_Source\PSoC5/UsPWM.c ****     *  Dither Mode, Center Aligned Mode or One Output Mode
 514:.\Generated_Source\PSoC5/UsPWM.c ****     *
 515:.\Generated_Source\PSoC5/UsPWM.c ****     *******************************************************************************/
 516:.\Generated_Source\PSoC5/UsPWM.c ****     void UsPWM_WriteCompare(uint16 compare) \
 517:.\Generated_Source\PSoC5/UsPWM.c ****                                        
 518:.\Generated_Source\PSoC5/UsPWM.c ****     {
 159              		.loc 1 518 0
 160              		.cfi_startproc
 161              		@ args = 0, pretend = 0, frame = 0
 162              		@ frame_needed = 0, uses_anonymous_args = 0
 163              		@ link register save eliminated.
 164              	.LVL2:
 519:.\Generated_Source\PSoC5/UsPWM.c ****         #if(UsPWM_UsingFixedFunction)
 520:.\Generated_Source\PSoC5/UsPWM.c ****             CY_SET_REG16(UsPWM_COMPARE1_LSB_PTR, (uint16)compare);
ARM GAS  C:\Users\Nick\AppData\Local\Temp\ccEkhlf3.s 			page 13


 521:.\Generated_Source\PSoC5/UsPWM.c ****         #else
 522:.\Generated_Source\PSoC5/UsPWM.c ****             CY_SET_REG16(UsPWM_COMPARE1_LSB_PTR, compare);
 165              		.loc 1 522 0
 166 0000 014B     		ldr	r3, .L17
 167 0002 1880     		strh	r0, [r3]	@ movhi
 168 0004 7047     		bx	lr
 169              	.L18:
 170 0006 00BF     		.align	2
 171              	.L17:
 172 0008 48680040 		.word	1073768520
 173              		.cfi_endproc
 174              	.LFE8:
 175              		.size	UsPWM_WriteCompare, .-UsPWM_WriteCompare
 176              		.section	.text.UsPWM_SetInterruptMode,"ax",%progbits
 177              		.align	2
 178              		.global	UsPWM_SetInterruptMode
 179              		.thumb
 180              		.thumb_func
 181              		.type	UsPWM_SetInterruptMode, %function
 182              	UsPWM_SetInterruptMode:
 183              	.LFB9:
 523:.\Generated_Source\PSoC5/UsPWM.c ****         #endif /* (UsPWM_UsingFixedFunction) */
 524:.\Generated_Source\PSoC5/UsPWM.c **** 
 525:.\Generated_Source\PSoC5/UsPWM.c ****         #if (UsPWM_PWMMode == UsPWM__B_PWM__DITHER)
 526:.\Generated_Source\PSoC5/UsPWM.c ****             #if(UsPWM_UsingFixedFunction)
 527:.\Generated_Source\PSoC5/UsPWM.c ****                 CY_SET_REG16(UsPWM_COMPARE2_LSB_PTR, (uint16)(compare + 1u));
 528:.\Generated_Source\PSoC5/UsPWM.c ****             #else
 529:.\Generated_Source\PSoC5/UsPWM.c ****                 CY_SET_REG16(UsPWM_COMPARE2_LSB_PTR, (compare + 1u));
 530:.\Generated_Source\PSoC5/UsPWM.c ****             #endif /* (UsPWM_UsingFixedFunction) */
 531:.\Generated_Source\PSoC5/UsPWM.c ****         #endif /* (UsPWM_PWMMode == UsPWM__B_PWM__DITHER) */
 532:.\Generated_Source\PSoC5/UsPWM.c ****     }
 533:.\Generated_Source\PSoC5/UsPWM.c **** 
 534:.\Generated_Source\PSoC5/UsPWM.c **** 
 535:.\Generated_Source\PSoC5/UsPWM.c **** #else
 536:.\Generated_Source\PSoC5/UsPWM.c **** 
 537:.\Generated_Source\PSoC5/UsPWM.c **** 
 538:.\Generated_Source\PSoC5/UsPWM.c ****     /*******************************************************************************
 539:.\Generated_Source\PSoC5/UsPWM.c ****     * Function Name: UsPWM_WriteCompare1
 540:.\Generated_Source\PSoC5/UsPWM.c ****     ********************************************************************************
 541:.\Generated_Source\PSoC5/UsPWM.c ****     *
 542:.\Generated_Source\PSoC5/UsPWM.c ****     * Summary:
 543:.\Generated_Source\PSoC5/UsPWM.c ****     *  This funtion is used to change the compare1 value.  The compare output will
 544:.\Generated_Source\PSoC5/UsPWM.c ****     *  reflect the new value on the next UDB clock.  The compare output will be
 545:.\Generated_Source\PSoC5/UsPWM.c ****     *  driven high when the present counter value is less than or less than or
 546:.\Generated_Source\PSoC5/UsPWM.c ****     *  equal to the compare register, depending on the mode.
 547:.\Generated_Source\PSoC5/UsPWM.c ****     *
 548:.\Generated_Source\PSoC5/UsPWM.c ****     * Parameters:
 549:.\Generated_Source\PSoC5/UsPWM.c ****     *  compare:  New compare value.
 550:.\Generated_Source\PSoC5/UsPWM.c ****     *
 551:.\Generated_Source\PSoC5/UsPWM.c ****     * Return:
 552:.\Generated_Source\PSoC5/UsPWM.c ****     *  None
 553:.\Generated_Source\PSoC5/UsPWM.c ****     *
 554:.\Generated_Source\PSoC5/UsPWM.c ****     *******************************************************************************/
 555:.\Generated_Source\PSoC5/UsPWM.c ****     void UsPWM_WriteCompare1(uint16 compare) \
 556:.\Generated_Source\PSoC5/UsPWM.c ****                                         
 557:.\Generated_Source\PSoC5/UsPWM.c ****     {
 558:.\Generated_Source\PSoC5/UsPWM.c ****         #if(UsPWM_UsingFixedFunction)
ARM GAS  C:\Users\Nick\AppData\Local\Temp\ccEkhlf3.s 			page 14


 559:.\Generated_Source\PSoC5/UsPWM.c ****             CY_SET_REG16(UsPWM_COMPARE1_LSB_PTR, (uint16)compare);
 560:.\Generated_Source\PSoC5/UsPWM.c ****         #else
 561:.\Generated_Source\PSoC5/UsPWM.c ****             CY_SET_REG16(UsPWM_COMPARE1_LSB_PTR, compare);
 562:.\Generated_Source\PSoC5/UsPWM.c ****         #endif /* (UsPWM_UsingFixedFunction) */
 563:.\Generated_Source\PSoC5/UsPWM.c ****     }
 564:.\Generated_Source\PSoC5/UsPWM.c **** 
 565:.\Generated_Source\PSoC5/UsPWM.c **** 
 566:.\Generated_Source\PSoC5/UsPWM.c ****     /*******************************************************************************
 567:.\Generated_Source\PSoC5/UsPWM.c ****     * Function Name: UsPWM_WriteCompare2
 568:.\Generated_Source\PSoC5/UsPWM.c ****     ********************************************************************************
 569:.\Generated_Source\PSoC5/UsPWM.c ****     *
 570:.\Generated_Source\PSoC5/UsPWM.c ****     * Summary:
 571:.\Generated_Source\PSoC5/UsPWM.c ****     *  This funtion is used to change the compare value, for compare1 output.
 572:.\Generated_Source\PSoC5/UsPWM.c ****     *  The compare output will reflect the new value on the next UDB clock.
 573:.\Generated_Source\PSoC5/UsPWM.c ****     *  The compare output will be driven high when the present counter value is
 574:.\Generated_Source\PSoC5/UsPWM.c ****     *  less than or less than or equal to the compare register, depending on the
 575:.\Generated_Source\PSoC5/UsPWM.c ****     *  mode.
 576:.\Generated_Source\PSoC5/UsPWM.c ****     *
 577:.\Generated_Source\PSoC5/UsPWM.c ****     * Parameters:
 578:.\Generated_Source\PSoC5/UsPWM.c ****     *  compare:  New compare value.
 579:.\Generated_Source\PSoC5/UsPWM.c ****     *
 580:.\Generated_Source\PSoC5/UsPWM.c ****     * Return:
 581:.\Generated_Source\PSoC5/UsPWM.c ****     *  None
 582:.\Generated_Source\PSoC5/UsPWM.c ****     *
 583:.\Generated_Source\PSoC5/UsPWM.c ****     *******************************************************************************/
 584:.\Generated_Source\PSoC5/UsPWM.c ****     void UsPWM_WriteCompare2(uint16 compare) \
 585:.\Generated_Source\PSoC5/UsPWM.c ****                                         
 586:.\Generated_Source\PSoC5/UsPWM.c ****     {
 587:.\Generated_Source\PSoC5/UsPWM.c ****         #if(UsPWM_UsingFixedFunction)
 588:.\Generated_Source\PSoC5/UsPWM.c ****             CY_SET_REG16(UsPWM_COMPARE2_LSB_PTR, compare);
 589:.\Generated_Source\PSoC5/UsPWM.c ****         #else
 590:.\Generated_Source\PSoC5/UsPWM.c ****             CY_SET_REG16(UsPWM_COMPARE2_LSB_PTR, compare);
 591:.\Generated_Source\PSoC5/UsPWM.c ****         #endif /* (UsPWM_UsingFixedFunction) */
 592:.\Generated_Source\PSoC5/UsPWM.c ****     }
 593:.\Generated_Source\PSoC5/UsPWM.c **** #endif /* UseOneCompareMode */
 594:.\Generated_Source\PSoC5/UsPWM.c **** 
 595:.\Generated_Source\PSoC5/UsPWM.c **** #if (UsPWM_DeadBandUsed)
 596:.\Generated_Source\PSoC5/UsPWM.c **** 
 597:.\Generated_Source\PSoC5/UsPWM.c **** 
 598:.\Generated_Source\PSoC5/UsPWM.c ****     /*******************************************************************************
 599:.\Generated_Source\PSoC5/UsPWM.c ****     * Function Name: UsPWM_WriteDeadTime
 600:.\Generated_Source\PSoC5/UsPWM.c ****     ********************************************************************************
 601:.\Generated_Source\PSoC5/UsPWM.c ****     *
 602:.\Generated_Source\PSoC5/UsPWM.c ****     * Summary:
 603:.\Generated_Source\PSoC5/UsPWM.c ****     *  This function writes the dead-band counts to the corresponding register
 604:.\Generated_Source\PSoC5/UsPWM.c ****     *
 605:.\Generated_Source\PSoC5/UsPWM.c ****     * Parameters:
 606:.\Generated_Source\PSoC5/UsPWM.c ****     *  deadtime:  Number of counts for dead time
 607:.\Generated_Source\PSoC5/UsPWM.c ****     *
 608:.\Generated_Source\PSoC5/UsPWM.c ****     * Return:
 609:.\Generated_Source\PSoC5/UsPWM.c ****     *  None
 610:.\Generated_Source\PSoC5/UsPWM.c ****     *
 611:.\Generated_Source\PSoC5/UsPWM.c ****     *******************************************************************************/
 612:.\Generated_Source\PSoC5/UsPWM.c ****     void UsPWM_WriteDeadTime(uint8 deadtime) 
 613:.\Generated_Source\PSoC5/UsPWM.c ****     {
 614:.\Generated_Source\PSoC5/UsPWM.c ****         /* If using the Dead Band 1-255 mode then just write the register */
 615:.\Generated_Source\PSoC5/UsPWM.c ****         #if(!UsPWM_DeadBand2_4)
ARM GAS  C:\Users\Nick\AppData\Local\Temp\ccEkhlf3.s 			page 15


 616:.\Generated_Source\PSoC5/UsPWM.c ****             CY_SET_REG8(UsPWM_DEADBAND_COUNT_PTR, deadtime);
 617:.\Generated_Source\PSoC5/UsPWM.c ****         #else
 618:.\Generated_Source\PSoC5/UsPWM.c ****             /* Otherwise the data has to be masked and offset */
 619:.\Generated_Source\PSoC5/UsPWM.c ****             /* Clear existing data */
 620:.\Generated_Source\PSoC5/UsPWM.c ****             UsPWM_DEADBAND_COUNT &= ((uint8)(~UsPWM_DEADBAND_COUNT_MASK));
 621:.\Generated_Source\PSoC5/UsPWM.c **** 
 622:.\Generated_Source\PSoC5/UsPWM.c ****             /* Set new dead time */
 623:.\Generated_Source\PSoC5/UsPWM.c ****             #if(UsPWM_DEADBAND_COUNT_SHIFT)
 624:.\Generated_Source\PSoC5/UsPWM.c ****                 UsPWM_DEADBAND_COUNT |= ((uint8)((uint8)deadtime << UsPWM_DEADBAND_COUNT_SHIFT)) &
 625:.\Generated_Source\PSoC5/UsPWM.c ****                                                     UsPWM_DEADBAND_COUNT_MASK;
 626:.\Generated_Source\PSoC5/UsPWM.c ****             #else
 627:.\Generated_Source\PSoC5/UsPWM.c ****                 UsPWM_DEADBAND_COUNT |= deadtime & UsPWM_DEADBAND_COUNT_MASK;
 628:.\Generated_Source\PSoC5/UsPWM.c ****             #endif /* (UsPWM_DEADBAND_COUNT_SHIFT) */
 629:.\Generated_Source\PSoC5/UsPWM.c **** 
 630:.\Generated_Source\PSoC5/UsPWM.c ****         #endif /* (!UsPWM_DeadBand2_4) */
 631:.\Generated_Source\PSoC5/UsPWM.c ****     }
 632:.\Generated_Source\PSoC5/UsPWM.c **** 
 633:.\Generated_Source\PSoC5/UsPWM.c **** 
 634:.\Generated_Source\PSoC5/UsPWM.c ****     /*******************************************************************************
 635:.\Generated_Source\PSoC5/UsPWM.c ****     * Function Name: UsPWM_ReadDeadTime
 636:.\Generated_Source\PSoC5/UsPWM.c ****     ********************************************************************************
 637:.\Generated_Source\PSoC5/UsPWM.c ****     *
 638:.\Generated_Source\PSoC5/UsPWM.c ****     * Summary:
 639:.\Generated_Source\PSoC5/UsPWM.c ****     *  This function reads the dead-band counts from the corresponding register
 640:.\Generated_Source\PSoC5/UsPWM.c ****     *
 641:.\Generated_Source\PSoC5/UsPWM.c ****     * Parameters:
 642:.\Generated_Source\PSoC5/UsPWM.c ****     *  None
 643:.\Generated_Source\PSoC5/UsPWM.c ****     *
 644:.\Generated_Source\PSoC5/UsPWM.c ****     * Return:
 645:.\Generated_Source\PSoC5/UsPWM.c ****     *  Dead Band Counts
 646:.\Generated_Source\PSoC5/UsPWM.c ****     *
 647:.\Generated_Source\PSoC5/UsPWM.c ****     *******************************************************************************/
 648:.\Generated_Source\PSoC5/UsPWM.c ****     uint8 UsPWM_ReadDeadTime(void) 
 649:.\Generated_Source\PSoC5/UsPWM.c ****     {
 650:.\Generated_Source\PSoC5/UsPWM.c ****         /* If using the Dead Band 1-255 mode then just read the register */
 651:.\Generated_Source\PSoC5/UsPWM.c ****         #if(!UsPWM_DeadBand2_4)
 652:.\Generated_Source\PSoC5/UsPWM.c ****             return (CY_GET_REG8(UsPWM_DEADBAND_COUNT_PTR));
 653:.\Generated_Source\PSoC5/UsPWM.c ****         #else
 654:.\Generated_Source\PSoC5/UsPWM.c **** 
 655:.\Generated_Source\PSoC5/UsPWM.c ****             /* Otherwise the data has to be masked and offset */
 656:.\Generated_Source\PSoC5/UsPWM.c ****             #if(UsPWM_DEADBAND_COUNT_SHIFT)
 657:.\Generated_Source\PSoC5/UsPWM.c ****                 return ((uint8)(((uint8)(UsPWM_DEADBAND_COUNT & UsPWM_DEADBAND_COUNT_MASK)) >>
 658:.\Generated_Source\PSoC5/UsPWM.c ****                                                                            UsPWM_DEADBAND_COUNT_SHI
 659:.\Generated_Source\PSoC5/UsPWM.c ****             #else
 660:.\Generated_Source\PSoC5/UsPWM.c ****                 return (UsPWM_DEADBAND_COUNT & UsPWM_DEADBAND_COUNT_MASK);
 661:.\Generated_Source\PSoC5/UsPWM.c ****             #endif /* (UsPWM_DEADBAND_COUNT_SHIFT) */
 662:.\Generated_Source\PSoC5/UsPWM.c ****         #endif /* (!UsPWM_DeadBand2_4) */
 663:.\Generated_Source\PSoC5/UsPWM.c ****     }
 664:.\Generated_Source\PSoC5/UsPWM.c **** #endif /* DeadBandUsed */
 665:.\Generated_Source\PSoC5/UsPWM.c **** 
 666:.\Generated_Source\PSoC5/UsPWM.c **** #if (UsPWM_UseStatus || UsPWM_UsingFixedFunction)
 667:.\Generated_Source\PSoC5/UsPWM.c **** 
 668:.\Generated_Source\PSoC5/UsPWM.c **** 
 669:.\Generated_Source\PSoC5/UsPWM.c ****     /*******************************************************************************
 670:.\Generated_Source\PSoC5/UsPWM.c ****     * Function Name: UsPWM_SetInterruptMode
 671:.\Generated_Source\PSoC5/UsPWM.c ****     ********************************************************************************
 672:.\Generated_Source\PSoC5/UsPWM.c ****     *
ARM GAS  C:\Users\Nick\AppData\Local\Temp\ccEkhlf3.s 			page 16


 673:.\Generated_Source\PSoC5/UsPWM.c ****     * Summary:
 674:.\Generated_Source\PSoC5/UsPWM.c ****     *  This function configures the interrupts mask control of theinterrupt
 675:.\Generated_Source\PSoC5/UsPWM.c ****     *  source status register.
 676:.\Generated_Source\PSoC5/UsPWM.c ****     *
 677:.\Generated_Source\PSoC5/UsPWM.c ****     * Parameters:
 678:.\Generated_Source\PSoC5/UsPWM.c ****     *  uint8 interruptMode: Bit field containing the interrupt sources enabled
 679:.\Generated_Source\PSoC5/UsPWM.c ****     *
 680:.\Generated_Source\PSoC5/UsPWM.c ****     * Return:
 681:.\Generated_Source\PSoC5/UsPWM.c ****     *  None
 682:.\Generated_Source\PSoC5/UsPWM.c ****     *
 683:.\Generated_Source\PSoC5/UsPWM.c ****     *******************************************************************************/
 684:.\Generated_Source\PSoC5/UsPWM.c ****     void UsPWM_SetInterruptMode(uint8 interruptMode) 
 685:.\Generated_Source\PSoC5/UsPWM.c ****     {
 184              		.loc 1 685 0
 185              		.cfi_startproc
 186              		@ args = 0, pretend = 0, frame = 0
 187              		@ frame_needed = 0, uses_anonymous_args = 0
 188              		@ link register save eliminated.
 189              	.LVL3:
 686:.\Generated_Source\PSoC5/UsPWM.c ****         CY_SET_REG8(UsPWM_STATUS_MASK_PTR, interruptMode);
 190              		.loc 1 686 0
 191 0000 014B     		ldr	r3, .L20
 192 0002 1870     		strb	r0, [r3]
 193 0004 7047     		bx	lr
 194              	.L21:
 195 0006 00BF     		.align	2
 196              	.L20:
 197 0008 84640040 		.word	1073767556
 198              		.cfi_endproc
 199              	.LFE9:
 200              		.size	UsPWM_SetInterruptMode, .-UsPWM_SetInterruptMode
 201              		.section	.text.UsPWM_ReadStatusRegister,"ax",%progbits
 202              		.align	2
 203              		.global	UsPWM_ReadStatusRegister
 204              		.thumb
 205              		.thumb_func
 206              		.type	UsPWM_ReadStatusRegister, %function
 207              	UsPWM_ReadStatusRegister:
 208              	.LFB10:
 687:.\Generated_Source\PSoC5/UsPWM.c ****     }
 688:.\Generated_Source\PSoC5/UsPWM.c **** 
 689:.\Generated_Source\PSoC5/UsPWM.c **** 
 690:.\Generated_Source\PSoC5/UsPWM.c ****     /*******************************************************************************
 691:.\Generated_Source\PSoC5/UsPWM.c ****     * Function Name: UsPWM_ReadStatusRegister
 692:.\Generated_Source\PSoC5/UsPWM.c ****     ********************************************************************************
 693:.\Generated_Source\PSoC5/UsPWM.c ****     *
 694:.\Generated_Source\PSoC5/UsPWM.c ****     * Summary:
 695:.\Generated_Source\PSoC5/UsPWM.c ****     *  This function returns the current state of the status register.
 696:.\Generated_Source\PSoC5/UsPWM.c ****     *
 697:.\Generated_Source\PSoC5/UsPWM.c ****     * Parameters:
 698:.\Generated_Source\PSoC5/UsPWM.c ****     *  None
 699:.\Generated_Source\PSoC5/UsPWM.c ****     *
 700:.\Generated_Source\PSoC5/UsPWM.c ****     * Return:
 701:.\Generated_Source\PSoC5/UsPWM.c ****     *  uint8 : Current status register value. The status register bits are:
 702:.\Generated_Source\PSoC5/UsPWM.c ****     *  [7:6] : Unused(0)
 703:.\Generated_Source\PSoC5/UsPWM.c ****     *  [5]   : Kill event output
 704:.\Generated_Source\PSoC5/UsPWM.c ****     *  [4]   : FIFO not empty
ARM GAS  C:\Users\Nick\AppData\Local\Temp\ccEkhlf3.s 			page 17


 705:.\Generated_Source\PSoC5/UsPWM.c ****     *  [3]   : FIFO full
 706:.\Generated_Source\PSoC5/UsPWM.c ****     *  [2]   : Terminal count
 707:.\Generated_Source\PSoC5/UsPWM.c ****     *  [1]   : Compare output 2
 708:.\Generated_Source\PSoC5/UsPWM.c ****     *  [0]   : Compare output 1
 709:.\Generated_Source\PSoC5/UsPWM.c ****     *
 710:.\Generated_Source\PSoC5/UsPWM.c ****     *******************************************************************************/
 711:.\Generated_Source\PSoC5/UsPWM.c ****     uint8 UsPWM_ReadStatusRegister(void) 
 712:.\Generated_Source\PSoC5/UsPWM.c ****     {
 209              		.loc 1 712 0
 210              		.cfi_startproc
 211              		@ args = 0, pretend = 0, frame = 0
 212              		@ frame_needed = 0, uses_anonymous_args = 0
 213              		@ link register save eliminated.
 713:.\Generated_Source\PSoC5/UsPWM.c ****         return (CY_GET_REG8(UsPWM_STATUS_PTR));
 214              		.loc 1 713 0
 215 0000 014B     		ldr	r3, .L23
 216 0002 1878     		ldrb	r0, [r3]	@ zero_extendqisi2
 714:.\Generated_Source\PSoC5/UsPWM.c ****     }
 217              		.loc 1 714 0
 218 0004 7047     		bx	lr
 219              	.L24:
 220 0006 00BF     		.align	2
 221              	.L23:
 222 0008 64640040 		.word	1073767524
 223              		.cfi_endproc
 224              	.LFE10:
 225              		.size	UsPWM_ReadStatusRegister, .-UsPWM_ReadStatusRegister
 226              		.section	.text.UsPWM_ReadControlRegister,"ax",%progbits
 227              		.align	2
 228              		.global	UsPWM_ReadControlRegister
 229              		.thumb
 230              		.thumb_func
 231              		.type	UsPWM_ReadControlRegister, %function
 232              	UsPWM_ReadControlRegister:
 233              	.LFB11:
 715:.\Generated_Source\PSoC5/UsPWM.c **** 
 716:.\Generated_Source\PSoC5/UsPWM.c **** #endif /* (UsPWM_UseStatus || UsPWM_UsingFixedFunction) */
 717:.\Generated_Source\PSoC5/UsPWM.c **** 
 718:.\Generated_Source\PSoC5/UsPWM.c **** 
 719:.\Generated_Source\PSoC5/UsPWM.c **** #if (UsPWM_UseControl)
 720:.\Generated_Source\PSoC5/UsPWM.c **** 
 721:.\Generated_Source\PSoC5/UsPWM.c **** 
 722:.\Generated_Source\PSoC5/UsPWM.c ****     /*******************************************************************************
 723:.\Generated_Source\PSoC5/UsPWM.c ****     * Function Name: UsPWM_ReadControlRegister
 724:.\Generated_Source\PSoC5/UsPWM.c ****     ********************************************************************************
 725:.\Generated_Source\PSoC5/UsPWM.c ****     *
 726:.\Generated_Source\PSoC5/UsPWM.c ****     * Summary:
 727:.\Generated_Source\PSoC5/UsPWM.c ****     *  Returns the current state of the control register. This API is available
 728:.\Generated_Source\PSoC5/UsPWM.c ****     *  only if the control register is not removed.
 729:.\Generated_Source\PSoC5/UsPWM.c ****     *
 730:.\Generated_Source\PSoC5/UsPWM.c ****     * Parameters:
 731:.\Generated_Source\PSoC5/UsPWM.c ****     *  None
 732:.\Generated_Source\PSoC5/UsPWM.c ****     *
 733:.\Generated_Source\PSoC5/UsPWM.c ****     * Return:
 734:.\Generated_Source\PSoC5/UsPWM.c ****     *  uint8 : Current control register value
 735:.\Generated_Source\PSoC5/UsPWM.c ****     *
 736:.\Generated_Source\PSoC5/UsPWM.c ****     *******************************************************************************/
ARM GAS  C:\Users\Nick\AppData\Local\Temp\ccEkhlf3.s 			page 18


 737:.\Generated_Source\PSoC5/UsPWM.c ****     uint8 UsPWM_ReadControlRegister(void) 
 738:.\Generated_Source\PSoC5/UsPWM.c ****     {
 234              		.loc 1 738 0
 235              		.cfi_startproc
 236              		@ args = 0, pretend = 0, frame = 0
 237              		@ frame_needed = 0, uses_anonymous_args = 0
 238              		@ link register save eliminated.
 739:.\Generated_Source\PSoC5/UsPWM.c ****         uint8 result;
 740:.\Generated_Source\PSoC5/UsPWM.c **** 
 741:.\Generated_Source\PSoC5/UsPWM.c ****         result = CY_GET_REG8(UsPWM_CONTROL_PTR);
 239              		.loc 1 741 0
 240 0000 014B     		ldr	r3, .L26
 241 0002 1878     		ldrb	r0, [r3]	@ zero_extendqisi2
 242              	.LVL4:
 742:.\Generated_Source\PSoC5/UsPWM.c ****         return (result);
 743:.\Generated_Source\PSoC5/UsPWM.c ****     }
 243              		.loc 1 743 0
 244 0004 7047     		bx	lr
 245              	.L27:
 246 0006 00BF     		.align	2
 247              	.L26:
 248 0008 74640040 		.word	1073767540
 249              		.cfi_endproc
 250              	.LFE11:
 251              		.size	UsPWM_ReadControlRegister, .-UsPWM_ReadControlRegister
 252              		.section	.text.UsPWM_WriteControlRegister,"ax",%progbits
 253              		.align	2
 254              		.global	UsPWM_WriteControlRegister
 255              		.thumb
 256              		.thumb_func
 257              		.type	UsPWM_WriteControlRegister, %function
 258              	UsPWM_WriteControlRegister:
 259              	.LFB12:
 744:.\Generated_Source\PSoC5/UsPWM.c **** 
 745:.\Generated_Source\PSoC5/UsPWM.c **** 
 746:.\Generated_Source\PSoC5/UsPWM.c ****     /*******************************************************************************
 747:.\Generated_Source\PSoC5/UsPWM.c ****     * Function Name: UsPWM_WriteControlRegister
 748:.\Generated_Source\PSoC5/UsPWM.c ****     ********************************************************************************
 749:.\Generated_Source\PSoC5/UsPWM.c ****     *
 750:.\Generated_Source\PSoC5/UsPWM.c ****     * Summary:
 751:.\Generated_Source\PSoC5/UsPWM.c ****     *  Sets the bit field of the control register. This API is available only if
 752:.\Generated_Source\PSoC5/UsPWM.c ****     *  the control register is not removed.
 753:.\Generated_Source\PSoC5/UsPWM.c ****     *
 754:.\Generated_Source\PSoC5/UsPWM.c ****     * Parameters:
 755:.\Generated_Source\PSoC5/UsPWM.c ****     *  uint8 control: Control register bit field, The status register bits are:
 756:.\Generated_Source\PSoC5/UsPWM.c ****     *  [7]   : PWM Enable
 757:.\Generated_Source\PSoC5/UsPWM.c ****     *  [6]   : Reset
 758:.\Generated_Source\PSoC5/UsPWM.c ****     *  [5:3] : Compare Mode2
 759:.\Generated_Source\PSoC5/UsPWM.c ****     *  [2:0] : Compare Mode2
 760:.\Generated_Source\PSoC5/UsPWM.c ****     *
 761:.\Generated_Source\PSoC5/UsPWM.c ****     * Return:
 762:.\Generated_Source\PSoC5/UsPWM.c ****     *  None
 763:.\Generated_Source\PSoC5/UsPWM.c ****     *
 764:.\Generated_Source\PSoC5/UsPWM.c ****     *******************************************************************************/
 765:.\Generated_Source\PSoC5/UsPWM.c ****     void UsPWM_WriteControlRegister(uint8 control) 
 766:.\Generated_Source\PSoC5/UsPWM.c ****     {
 260              		.loc 1 766 0
ARM GAS  C:\Users\Nick\AppData\Local\Temp\ccEkhlf3.s 			page 19


 261              		.cfi_startproc
 262              		@ args = 0, pretend = 0, frame = 0
 263              		@ frame_needed = 0, uses_anonymous_args = 0
 264              		@ link register save eliminated.
 265              	.LVL5:
 767:.\Generated_Source\PSoC5/UsPWM.c ****         CY_SET_REG8(UsPWM_CONTROL_PTR, control);
 266              		.loc 1 767 0
 267 0000 014B     		ldr	r3, .L29
 268 0002 1870     		strb	r0, [r3]
 269 0004 7047     		bx	lr
 270              	.L30:
 271 0006 00BF     		.align	2
 272              	.L29:
 273 0008 74640040 		.word	1073767540
 274              		.cfi_endproc
 275              	.LFE12:
 276              		.size	UsPWM_WriteControlRegister, .-UsPWM_WriteControlRegister
 277              		.section	.text.UsPWM_ReadCapture,"ax",%progbits
 278              		.align	2
 279              		.global	UsPWM_ReadCapture
 280              		.thumb
 281              		.thumb_func
 282              		.type	UsPWM_ReadCapture, %function
 283              	UsPWM_ReadCapture:
 284              	.LFB13:
 768:.\Generated_Source\PSoC5/UsPWM.c ****     }
 769:.\Generated_Source\PSoC5/UsPWM.c **** 
 770:.\Generated_Source\PSoC5/UsPWM.c **** #endif /* (UsPWM_UseControl) */
 771:.\Generated_Source\PSoC5/UsPWM.c **** 
 772:.\Generated_Source\PSoC5/UsPWM.c **** 
 773:.\Generated_Source\PSoC5/UsPWM.c **** #if (!UsPWM_UsingFixedFunction)
 774:.\Generated_Source\PSoC5/UsPWM.c **** 
 775:.\Generated_Source\PSoC5/UsPWM.c **** 
 776:.\Generated_Source\PSoC5/UsPWM.c ****     /*******************************************************************************
 777:.\Generated_Source\PSoC5/UsPWM.c ****     * Function Name: UsPWM_ReadCapture
 778:.\Generated_Source\PSoC5/UsPWM.c ****     ********************************************************************************
 779:.\Generated_Source\PSoC5/UsPWM.c ****     *
 780:.\Generated_Source\PSoC5/UsPWM.c ****     * Summary:
 781:.\Generated_Source\PSoC5/UsPWM.c ****     *  Reads the capture value from the capture FIFO.
 782:.\Generated_Source\PSoC5/UsPWM.c ****     *
 783:.\Generated_Source\PSoC5/UsPWM.c ****     * Parameters:
 784:.\Generated_Source\PSoC5/UsPWM.c ****     *  None
 785:.\Generated_Source\PSoC5/UsPWM.c ****     *
 786:.\Generated_Source\PSoC5/UsPWM.c ****     * Return:
 787:.\Generated_Source\PSoC5/UsPWM.c ****     *  uint8/uint16: The current capture value
 788:.\Generated_Source\PSoC5/UsPWM.c ****     *
 789:.\Generated_Source\PSoC5/UsPWM.c ****     *******************************************************************************/
 790:.\Generated_Source\PSoC5/UsPWM.c ****     uint16 UsPWM_ReadCapture(void) 
 791:.\Generated_Source\PSoC5/UsPWM.c ****     {
 285              		.loc 1 791 0
 286              		.cfi_startproc
 287              		@ args = 0, pretend = 0, frame = 0
 288              		@ frame_needed = 0, uses_anonymous_args = 0
 289              		@ link register save eliminated.
 792:.\Generated_Source\PSoC5/UsPWM.c ****         return (CY_GET_REG16(UsPWM_CAPTURE_LSB_PTR));
 290              		.loc 1 792 0
 291 0000 014B     		ldr	r3, .L32
ARM GAS  C:\Users\Nick\AppData\Local\Temp\ccEkhlf3.s 			page 20


 292 0002 1888     		ldrh	r0, [r3]
 793:.\Generated_Source\PSoC5/UsPWM.c ****     }
 293              		.loc 1 793 0
 294 0004 80B2     		uxth	r0, r0
 295 0006 7047     		bx	lr
 296              	.L33:
 297              		.align	2
 298              	.L32:
 299 0008 A8680040 		.word	1073768616
 300              		.cfi_endproc
 301              	.LFE13:
 302              		.size	UsPWM_ReadCapture, .-UsPWM_ReadCapture
 303              		.section	.text.UsPWM_ClearFIFO,"ax",%progbits
 304              		.align	2
 305              		.global	UsPWM_ClearFIFO
 306              		.thumb
 307              		.thumb_func
 308              		.type	UsPWM_ClearFIFO, %function
 309              	UsPWM_ClearFIFO:
 310              	.LFB6:
 454:.\Generated_Source\PSoC5/UsPWM.c ****         {
 311              		.loc 1 454 0
 312              		.cfi_startproc
 313              		@ args = 0, pretend = 0, frame = 0
 314              		@ frame_needed = 0, uses_anonymous_args = 0
 315 0000 08B5     		push	{r3, lr}
 316              		.cfi_def_cfa_offset 8
 317              		.cfi_offset 3, -8
 318              		.cfi_offset 14, -4
 455:.\Generated_Source\PSoC5/UsPWM.c ****             while(0u != (UsPWM_ReadStatusRegister() & UsPWM_STATUS_FIFONEMPTY))
 319              		.loc 1 455 0
 320 0002 01E0     		b	.L35
 321              	.L36:
 457:.\Generated_Source\PSoC5/UsPWM.c ****                 (void)UsPWM_ReadCapture();
 322              		.loc 1 457 0
 323 0004 FFF7FEFF 		bl	UsPWM_ReadCapture
 324              	.LVL6:
 325              	.L35:
 455:.\Generated_Source\PSoC5/UsPWM.c ****             while(0u != (UsPWM_ReadStatusRegister() & UsPWM_STATUS_FIFONEMPTY))
 326              		.loc 1 455 0 discriminator 1
 327 0008 FFF7FEFF 		bl	UsPWM_ReadStatusRegister
 328              	.LVL7:
 329 000c 10F0100F 		tst	r0, #16
 330 0010 F8D1     		bne	.L36
 459:.\Generated_Source\PSoC5/UsPWM.c ****         }
 331              		.loc 1 459 0
 332 0012 08BD     		pop	{r3, pc}
 333              		.cfi_endproc
 334              	.LFE6:
 335              		.size	UsPWM_ClearFIFO, .-UsPWM_ClearFIFO
 336              		.section	.text.UsPWM_Init,"ax",%progbits
 337              		.align	2
 338              		.global	UsPWM_Init
 339              		.thumb
 340              		.thumb_func
 341              		.type	UsPWM_Init, %function
 342              	UsPWM_Init:
ARM GAS  C:\Users\Nick\AppData\Local\Temp\ccEkhlf3.s 			page 21


 343              	.LFB1:
  85:.\Generated_Source\PSoC5/UsPWM.c **** {
 344              		.loc 1 85 0
 345              		.cfi_startproc
 346              		@ args = 0, pretend = 0, frame = 0
 347              		@ frame_needed = 0, uses_anonymous_args = 0
 348 0000 10B5     		push	{r4, lr}
 349              		.cfi_def_cfa_offset 8
 350              		.cfi_offset 4, -8
 351              		.cfi_offset 14, -4
 117:.\Generated_Source\PSoC5/UsPWM.c ****         ctrl = UsPWM_CONTROL & ((uint8)(~UsPWM_CTRL_CMPMODE2_MASK)) &
 352              		.loc 1 117 0
 353 0002 154B     		ldr	r3, .L38
 354 0004 1A78     		ldrb	r2, [r3]	@ zero_extendqisi2
 355 0006 02F0C002 		and	r2, r2, #192
 356              	.LVL8:
 119:.\Generated_Source\PSoC5/UsPWM.c ****         UsPWM_CONTROL = ctrl | UsPWM_DEFAULT_COMPARE2_MODE |
 357              		.loc 1 119 0
 358 000a 42F00902 		orr	r2, r2, #9
 359              	.LVL9:
 360 000e 1A70     		strb	r2, [r3]
 129:.\Generated_Source\PSoC5/UsPWM.c ****             UsPWM_AUX_CONTROLDP0 |= (UsPWM_AUX_CTRL_FIFO0_CLR);
 361              		.loc 1 129 0
 362 0010 124C     		ldr	r4, .L38+4
 363 0012 2378     		ldrb	r3, [r4]	@ zero_extendqisi2
 364 0014 43F00103 		orr	r3, r3, #1
 365 0018 2370     		strb	r3, [r4]
 130:.\Generated_Source\PSoC5/UsPWM.c ****             UsPWM_AUX_CONTROLDP1 |= (UsPWM_AUX_CTRL_FIFO0_CLR);
 366              		.loc 1 130 0
 367 001a 114B     		ldr	r3, .L38+8
 368 001c 1A78     		ldrb	r2, [r3]	@ zero_extendqisi2
 369 001e 42F00102 		orr	r2, r2, #1
 370 0022 1A70     		strb	r2, [r3]
 133:.\Generated_Source\PSoC5/UsPWM.c ****         UsPWM_WriteCounter(UsPWM_INIT_PERIOD_VALUE);
 371              		.loc 1 133 0
 372 0024 4FF6FF70 		movw	r0, #65535
 373 0028 FFF7FEFF 		bl	UsPWM_WriteCounter
 374              	.LVL10:
 136:.\Generated_Source\PSoC5/UsPWM.c ****     UsPWM_WritePeriod(UsPWM_INIT_PERIOD_VALUE);
 375              		.loc 1 136 0
 376 002c 4FF6FF70 		movw	r0, #65535
 377 0030 FFF7FEFF 		bl	UsPWM_WritePeriod
 378              	.LVL11:
 139:.\Generated_Source\PSoC5/UsPWM.c ****             UsPWM_WriteCompare(UsPWM_INIT_COMPARE_VALUE1);
 379              		.loc 1 139 0
 380 0034 3C20     		movs	r0, #60
 381 0036 FFF7FEFF 		bl	UsPWM_WriteCompare
 382              	.LVL12:
 154:.\Generated_Source\PSoC5/UsPWM.c ****         UsPWM_SetInterruptMode(UsPWM_INIT_INTERRUPTS_MODE);
 383              		.loc 1 154 0
 384 003a 0020     		movs	r0, #0
 385 003c FFF7FEFF 		bl	UsPWM_SetInterruptMode
 386              	.LVL13:
 167:.\Generated_Source\PSoC5/UsPWM.c ****             UsPWM_interruptState = CyEnterCriticalSection();
 387              		.loc 1 167 0
 388 0040 FFF7FEFF 		bl	CyEnterCriticalSection
 389              	.LVL14:
ARM GAS  C:\Users\Nick\AppData\Local\Temp\ccEkhlf3.s 			page 22


 169:.\Generated_Source\PSoC5/UsPWM.c ****             UsPWM_STATUS_AUX_CTRL |= UsPWM_STATUS_ACTL_INT_EN_MASK;
 390              		.loc 1 169 0
 391 0044 2378     		ldrb	r3, [r4]	@ zero_extendqisi2
 392 0046 43F01003 		orr	r3, r3, #16
 393 004a 2370     		strb	r3, [r4]
 172:.\Generated_Source\PSoC5/UsPWM.c ****             CyExitCriticalSection(UsPWM_interruptState);
 394              		.loc 1 172 0
 395 004c FFF7FEFF 		bl	CyExitCriticalSection
 396              	.LVL15:
 176:.\Generated_Source\PSoC5/UsPWM.c ****             UsPWM_ClearFIFO();
 397              		.loc 1 176 0
 398 0050 FFF7FEFF 		bl	UsPWM_ClearFIFO
 399              	.LVL16:
 400 0054 10BD     		pop	{r4, pc}
 401              	.L39:
 402 0056 00BF     		.align	2
 403              	.L38:
 404 0058 74640040 		.word	1073767540
 405 005c 94640040 		.word	1073767572
 406 0060 95640040 		.word	1073767573
 407              		.cfi_endproc
 408              	.LFE1:
 409              		.size	UsPWM_Init, .-UsPWM_Init
 410              		.section	.text.UsPWM_Start,"ax",%progbits
 411              		.align	2
 412              		.global	UsPWM_Start
 413              		.thumb
 414              		.thumb_func
 415              		.type	UsPWM_Start, %function
 416              	UsPWM_Start:
 417              	.LFB0:
  56:.\Generated_Source\PSoC5/UsPWM.c **** {
 418              		.loc 1 56 0
 419              		.cfi_startproc
 420              		@ args = 0, pretend = 0, frame = 0
 421              		@ frame_needed = 0, uses_anonymous_args = 0
 422 0000 08B5     		push	{r3, lr}
 423              		.cfi_def_cfa_offset 8
 424              		.cfi_offset 3, -8
 425              		.cfi_offset 14, -4
  58:.\Generated_Source\PSoC5/UsPWM.c ****     if(UsPWM_initVar == 0u)
 426              		.loc 1 58 0
 427 0002 054B     		ldr	r3, .L42
 428 0004 1B78     		ldrb	r3, [r3]	@ zero_extendqisi2
 429 0006 23B9     		cbnz	r3, .L41
  60:.\Generated_Source\PSoC5/UsPWM.c ****         UsPWM_Init();
 430              		.loc 1 60 0
 431 0008 FFF7FEFF 		bl	UsPWM_Init
 432              	.LVL17:
  61:.\Generated_Source\PSoC5/UsPWM.c ****         UsPWM_initVar = 1u;
 433              		.loc 1 61 0
 434 000c 0122     		movs	r2, #1
 435 000e 024B     		ldr	r3, .L42
 436 0010 1A70     		strb	r2, [r3]
 437              	.L41:
  63:.\Generated_Source\PSoC5/UsPWM.c ****     UsPWM_Enable();
 438              		.loc 1 63 0
ARM GAS  C:\Users\Nick\AppData\Local\Temp\ccEkhlf3.s 			page 23


 439 0012 FFF7FEFF 		bl	UsPWM_Enable
 440              	.LVL18:
 441 0016 08BD     		pop	{r3, pc}
 442              	.L43:
 443              		.align	2
 444              	.L42:
 445 0018 00000000 		.word	.LANCHOR0
 446              		.cfi_endproc
 447              	.LFE0:
 448              		.size	UsPWM_Start, .-UsPWM_Start
 449              		.section	.text.UsPWM_ReadCompare,"ax",%progbits
 450              		.align	2
 451              		.global	UsPWM_ReadCompare
 452              		.thumb
 453              		.thumb_func
 454              		.type	UsPWM_ReadCompare, %function
 455              	UsPWM_ReadCompare:
 456              	.LFB14:
 794:.\Generated_Source\PSoC5/UsPWM.c **** 
 795:.\Generated_Source\PSoC5/UsPWM.c **** #endif /* (!UsPWM_UsingFixedFunction) */
 796:.\Generated_Source\PSoC5/UsPWM.c **** 
 797:.\Generated_Source\PSoC5/UsPWM.c **** 
 798:.\Generated_Source\PSoC5/UsPWM.c **** #if (UsPWM_UseOneCompareMode)
 799:.\Generated_Source\PSoC5/UsPWM.c **** 
 800:.\Generated_Source\PSoC5/UsPWM.c **** 
 801:.\Generated_Source\PSoC5/UsPWM.c ****     /*******************************************************************************
 802:.\Generated_Source\PSoC5/UsPWM.c ****     * Function Name: UsPWM_ReadCompare
 803:.\Generated_Source\PSoC5/UsPWM.c ****     ********************************************************************************
 804:.\Generated_Source\PSoC5/UsPWM.c ****     *
 805:.\Generated_Source\PSoC5/UsPWM.c ****     * Summary:
 806:.\Generated_Source\PSoC5/UsPWM.c ****     *  Reads the compare value for the compare output when the PWM Mode parameter is
 807:.\Generated_Source\PSoC5/UsPWM.c ****     *  set to Dither mode, Center Aligned mode, or One Output mode.
 808:.\Generated_Source\PSoC5/UsPWM.c ****     *
 809:.\Generated_Source\PSoC5/UsPWM.c ****     * Parameters:
 810:.\Generated_Source\PSoC5/UsPWM.c ****     *  None
 811:.\Generated_Source\PSoC5/UsPWM.c ****     *
 812:.\Generated_Source\PSoC5/UsPWM.c ****     * Return:
 813:.\Generated_Source\PSoC5/UsPWM.c ****     *  uint8/uint16: Current compare value
 814:.\Generated_Source\PSoC5/UsPWM.c ****     *
 815:.\Generated_Source\PSoC5/UsPWM.c ****     *******************************************************************************/
 816:.\Generated_Source\PSoC5/UsPWM.c ****     uint16 UsPWM_ReadCompare(void) 
 817:.\Generated_Source\PSoC5/UsPWM.c ****     {
 457              		.loc 1 817 0
 458              		.cfi_startproc
 459              		@ args = 0, pretend = 0, frame = 0
 460              		@ frame_needed = 0, uses_anonymous_args = 0
 461              		@ link register save eliminated.
 818:.\Generated_Source\PSoC5/UsPWM.c ****         #if(UsPWM_UsingFixedFunction)
 819:.\Generated_Source\PSoC5/UsPWM.c ****             return ((uint16)CY_GET_REG16(UsPWM_COMPARE1_LSB_PTR));
 820:.\Generated_Source\PSoC5/UsPWM.c ****         #else
 821:.\Generated_Source\PSoC5/UsPWM.c ****             return (CY_GET_REG16(UsPWM_COMPARE1_LSB_PTR));
 462              		.loc 1 821 0
 463 0000 014B     		ldr	r3, .L45
 464 0002 1888     		ldrh	r0, [r3]
 822:.\Generated_Source\PSoC5/UsPWM.c ****         #endif /* (UsPWM_UsingFixedFunction) */
 823:.\Generated_Source\PSoC5/UsPWM.c ****     }
 465              		.loc 1 823 0
ARM GAS  C:\Users\Nick\AppData\Local\Temp\ccEkhlf3.s 			page 24


 466 0004 80B2     		uxth	r0, r0
 467 0006 7047     		bx	lr
 468              	.L46:
 469              		.align	2
 470              	.L45:
 471 0008 48680040 		.word	1073768520
 472              		.cfi_endproc
 473              	.LFE14:
 474              		.size	UsPWM_ReadCompare, .-UsPWM_ReadCompare
 475              		.section	.text.UsPWM_ReadPeriod,"ax",%progbits
 476              		.align	2
 477              		.global	UsPWM_ReadPeriod
 478              		.thumb
 479              		.thumb_func
 480              		.type	UsPWM_ReadPeriod, %function
 481              	UsPWM_ReadPeriod:
 482              	.LFB15:
 824:.\Generated_Source\PSoC5/UsPWM.c **** 
 825:.\Generated_Source\PSoC5/UsPWM.c **** #else
 826:.\Generated_Source\PSoC5/UsPWM.c **** 
 827:.\Generated_Source\PSoC5/UsPWM.c **** 
 828:.\Generated_Source\PSoC5/UsPWM.c ****     /*******************************************************************************
 829:.\Generated_Source\PSoC5/UsPWM.c ****     * Function Name: UsPWM_ReadCompare1
 830:.\Generated_Source\PSoC5/UsPWM.c ****     ********************************************************************************
 831:.\Generated_Source\PSoC5/UsPWM.c ****     *
 832:.\Generated_Source\PSoC5/UsPWM.c ****     * Summary:
 833:.\Generated_Source\PSoC5/UsPWM.c ****     *  Reads the compare value for the compare1 output.
 834:.\Generated_Source\PSoC5/UsPWM.c ****     *
 835:.\Generated_Source\PSoC5/UsPWM.c ****     * Parameters:
 836:.\Generated_Source\PSoC5/UsPWM.c ****     *  None
 837:.\Generated_Source\PSoC5/UsPWM.c ****     *
 838:.\Generated_Source\PSoC5/UsPWM.c ****     * Return:
 839:.\Generated_Source\PSoC5/UsPWM.c ****     *  uint8/uint16: Current compare value.
 840:.\Generated_Source\PSoC5/UsPWM.c ****     *
 841:.\Generated_Source\PSoC5/UsPWM.c ****     *******************************************************************************/
 842:.\Generated_Source\PSoC5/UsPWM.c ****     uint16 UsPWM_ReadCompare1(void) 
 843:.\Generated_Source\PSoC5/UsPWM.c ****     {
 844:.\Generated_Source\PSoC5/UsPWM.c ****         return (CY_GET_REG16(UsPWM_COMPARE1_LSB_PTR));
 845:.\Generated_Source\PSoC5/UsPWM.c ****     }
 846:.\Generated_Source\PSoC5/UsPWM.c **** 
 847:.\Generated_Source\PSoC5/UsPWM.c **** 
 848:.\Generated_Source\PSoC5/UsPWM.c ****     /*******************************************************************************
 849:.\Generated_Source\PSoC5/UsPWM.c ****     * Function Name: UsPWM_ReadCompare2
 850:.\Generated_Source\PSoC5/UsPWM.c ****     ********************************************************************************
 851:.\Generated_Source\PSoC5/UsPWM.c ****     *
 852:.\Generated_Source\PSoC5/UsPWM.c ****     * Summary:
 853:.\Generated_Source\PSoC5/UsPWM.c ****     *  Reads the compare value for the compare2 output.
 854:.\Generated_Source\PSoC5/UsPWM.c ****     *
 855:.\Generated_Source\PSoC5/UsPWM.c ****     * Parameters:
 856:.\Generated_Source\PSoC5/UsPWM.c ****     *  None
 857:.\Generated_Source\PSoC5/UsPWM.c ****     *
 858:.\Generated_Source\PSoC5/UsPWM.c ****     * Return:
 859:.\Generated_Source\PSoC5/UsPWM.c ****     *  uint8/uint16: Current compare value.
 860:.\Generated_Source\PSoC5/UsPWM.c ****     *
 861:.\Generated_Source\PSoC5/UsPWM.c ****     *******************************************************************************/
 862:.\Generated_Source\PSoC5/UsPWM.c ****     uint16 UsPWM_ReadCompare2(void) 
 863:.\Generated_Source\PSoC5/UsPWM.c ****     {
ARM GAS  C:\Users\Nick\AppData\Local\Temp\ccEkhlf3.s 			page 25


 864:.\Generated_Source\PSoC5/UsPWM.c ****         return (CY_GET_REG16(UsPWM_COMPARE2_LSB_PTR));
 865:.\Generated_Source\PSoC5/UsPWM.c ****     }
 866:.\Generated_Source\PSoC5/UsPWM.c **** 
 867:.\Generated_Source\PSoC5/UsPWM.c **** #endif /* (UsPWM_UseOneCompareMode) */
 868:.\Generated_Source\PSoC5/UsPWM.c **** 
 869:.\Generated_Source\PSoC5/UsPWM.c **** 
 870:.\Generated_Source\PSoC5/UsPWM.c **** /*******************************************************************************
 871:.\Generated_Source\PSoC5/UsPWM.c **** * Function Name: UsPWM_ReadPeriod
 872:.\Generated_Source\PSoC5/UsPWM.c **** ********************************************************************************
 873:.\Generated_Source\PSoC5/UsPWM.c **** *
 874:.\Generated_Source\PSoC5/UsPWM.c **** * Summary:
 875:.\Generated_Source\PSoC5/UsPWM.c **** *  Reads the period value used by the PWM hardware.
 876:.\Generated_Source\PSoC5/UsPWM.c **** *
 877:.\Generated_Source\PSoC5/UsPWM.c **** * Parameters:
 878:.\Generated_Source\PSoC5/UsPWM.c **** *  None
 879:.\Generated_Source\PSoC5/UsPWM.c **** *
 880:.\Generated_Source\PSoC5/UsPWM.c **** * Return:
 881:.\Generated_Source\PSoC5/UsPWM.c **** *  uint8/16: Period value
 882:.\Generated_Source\PSoC5/UsPWM.c **** *
 883:.\Generated_Source\PSoC5/UsPWM.c **** *******************************************************************************/
 884:.\Generated_Source\PSoC5/UsPWM.c **** uint16 UsPWM_ReadPeriod(void) 
 885:.\Generated_Source\PSoC5/UsPWM.c **** {
 483              		.loc 1 885 0
 484              		.cfi_startproc
 485              		@ args = 0, pretend = 0, frame = 0
 486              		@ frame_needed = 0, uses_anonymous_args = 0
 487              		@ link register save eliminated.
 886:.\Generated_Source\PSoC5/UsPWM.c ****     #if(UsPWM_UsingFixedFunction)
 887:.\Generated_Source\PSoC5/UsPWM.c ****         return ((uint16)CY_GET_REG16(UsPWM_PERIOD_LSB_PTR));
 888:.\Generated_Source\PSoC5/UsPWM.c ****     #else
 889:.\Generated_Source\PSoC5/UsPWM.c ****         return (CY_GET_REG16(UsPWM_PERIOD_LSB_PTR));
 488              		.loc 1 889 0
 489 0000 014B     		ldr	r3, .L48
 490 0002 1888     		ldrh	r0, [r3]
 890:.\Generated_Source\PSoC5/UsPWM.c ****     #endif /* (UsPWM_UsingFixedFunction) */
 891:.\Generated_Source\PSoC5/UsPWM.c **** }
 491              		.loc 1 891 0
 492 0004 80B2     		uxth	r0, r0
 493 0006 7047     		bx	lr
 494              	.L49:
 495              		.align	2
 496              	.L48:
 497 0008 88680040 		.word	1073768584
 498              		.cfi_endproc
 499              	.LFE15:
 500              		.size	UsPWM_ReadPeriod, .-UsPWM_ReadPeriod
 501              		.global	UsPWM_initVar
 502              		.bss
 503              		.set	.LANCHOR0,. + 0
 504              		.type	UsPWM_initVar, %object
 505              		.size	UsPWM_initVar, 1
 506              	UsPWM_initVar:
 507 0000 00       		.space	1
 508              		.text
 509              	.Letext0:
 510              		.file 2 ".\\Generated_Source\\PSoC5\\cytypes.h"
 511              		.file 3 ".\\Generated_Source\\PSoC5\\CyLib.h"
ARM GAS  C:\Users\Nick\AppData\Local\Temp\ccEkhlf3.s 			page 26

